 cgamex86

 Timestamp is 54b6f9aa (Wed Jan 14 23:20:10 2015)

 Preferred load address is 30000000

 Start         Length     Name                   Class
 0001:00000000 0009c33fH .text$mn                CODE
 0002:00000000 00000100H .idata$5                DATA
 0002:00000100 00000004H .CRT$XCA                DATA
 0002:00000104 00000004H .CRT$XCZ                DATA
 0002:00000108 00000004H .CRT$XIA                DATA
 0002:0000010c 00000014H .CRT$XIC                DATA
 0002:00000120 00000004H .CRT$XIZ                DATA
 0002:00000124 00000004H .CRT$XPA                DATA
 0002:00000128 00000008H .CRT$XPX                DATA
 0002:00000130 00000004H .CRT$XPXA               DATA
 0002:00000134 00000004H .CRT$XPZ                DATA
 0002:00000138 00000004H .CRT$XTA                DATA
 0002:0000013c 00000004H .CRT$XTZ                DATA
 0002:00000140 0002bdd8H .rdata                  DATA
 0002:0002bf20 0000000cH .rdata$sxdata           DATA
 0002:0002bf2c 00000004H .rtc$IAA                DATA
 0002:0002bf30 00000004H .rtc$IZZ                DATA
 0002:0002bf34 00000004H .rtc$TAA                DATA
 0002:0002bf38 00000004H .rtc$TZZ                DATA
 0002:0002bf40 00000334H .xdata$x                DATA
 0002:0002c280 00000059H .edata                  DATA
 0002:0002c2dc 00000014H .idata$2                DATA
 0002:0002c2f0 00000014H .idata$3                DATA
 0002:0002c304 00000100H .idata$4                DATA
 0002:0002c404 00000490H .idata$6                DATA
 0003:00000000 0000cd54H .data                   DATA
 0003:0000cd60 00aa9108H .bss                    DATA
 0004:00000000 00000058H .rsrc$01                DATA
 0004:00000060 00000180H .rsrc$02                DATA

  Address         Publics by Value              Rva+Base       Lib:Object

 0000:00000000       __except_list              00000000     <absolute>
 0000:00000000       ___guard_fids_count        00000000     <absolute>
 0000:00000000       ___guard_flags             00000000     <absolute>
 0000:00000000       ___guard_fids_table        00000000     <absolute>
 0000:00000003       ___safe_se_handler_count   00000003     <absolute>
 0000:00000000       ___ImageBase               30000000     <linker-defined>
 0001:00000000       _G_SetAnimalVehicleFunctions 30001000 f   AnimalNPC.obj
 0001:000002e0       _BG_AttachToRancor         300012e0 f   bg_g2_utils.obj
 0001:00000540       _BG_GetRootSurfNameWithVariant 30001540 f   bg_g2_utils.obj
 0001:000005d0       _BG_AddPredictableEventToPlayerstate 300015d0 f   bg_misc.obj
 0001:00000610       _BG_Alloc                  30001610 f   bg_misc.obj
 0001:00000660       _BG_CanItemBeGrabbed       30001660 f   bg_misc.obj
 0001:000009e0       _BG_CanUseFPNow            300019e0 f   bg_misc.obj
 0001:00000af0       _BG_CycleForce             30001af0 f   bg_misc.obj
 0001:00000bd0       _BG_CycleInven             30001bd0 f   bg_misc.obj
 0001:00000ca0       _BG_EmplacedView           30001ca0 f   bg_misc.obj
 0001:00000d60       _BG_EvaluateTrajectory     30001d60 f   bg_misc.obj
 0001:00000fd0       _BG_EvaluateTrajectoryDelta 30001fd0 f   bg_misc.obj
 0001:000011e0       _BG_FileExists             300021e0 f   bg_misc.obj
 0001:00001230       _BG_FindItemForHoldable    30002230 f   bg_misc.obj
 0001:00001290       _BG_FindItemForPowerup     30002290 f   bg_misc.obj
 0001:000012f0       _BG_FindItemForWeapon      300022f0 f   bg_misc.obj
 0001:00001330       _BG_GetItemIndexByTag      30002330 f   bg_misc.obj
 0001:00001370       _BG_HasYsalamiri           30002370 f   bg_misc.obj
 0001:000013b0       _BG_IsItemSelectable       300023b0 f   bg_misc.obj
 0001:000013d0       _BG_IsUsingHeavyWeap       300023d0 f   bg_misc.obj
 0001:00001410       _BG_IsUsingMediumWeap      30002410 f   bg_misc.obj
 0001:00001440       _BG_IsValidCharacterModel  30002440 f   bg_misc.obj
 0001:000014b0       _BG_IsWhiteSpace           300024b0 f   bg_misc.obj
 0001:000014d0       _BG_ModelCache             300024d0 f   bg_misc.obj
 0001:00001500       _BG_ParseField             30002500 f   bg_misc.obj
 0001:00001640       _BG_PlayerStateToEntityState 30002640 f   bg_misc.obj
 0001:00001ae0       _BG_PlayerTouchesItem      30002ae0 f   bg_misc.obj
 0001:00001b70       _BG_ProperForceIndex       30002b70 f   bg_misc.obj
 0001:00001ba0       _BG_TempAlloc              30002ba0 f   bg_misc.obj
 0001:00001be0       _BG_TempFree               30002be0 f   bg_misc.obj
 0001:00001c30       _BG_TouchJumpPad           30002c30 f   bg_misc.obj
 0001:00001cb0       _BG_ValidateSkinForTeam    30002cb0 f   bg_misc.obj
 0001:00001ef0       _vectoyaw                  30002ef0 f   bg_misc.obj
 0001:00001fa0       _BG_AnimLength             30002fa0 f   bg_panimate.obj
 0001:00002000       _BG_AnimsetAlloc           30003000 f   bg_panimate.obj
 0001:00002030       _BG_BounceAnim             30003030 f   bg_panimate.obj
 0001:000020a0       _BG_CrouchAnim             300030a0 f   bg_panimate.obj
 0001:000021a0       _BG_FlippingAnim           300031a0 f   bg_panimate.obj
 0001:00002280       _BG_FullBodyTauntAnim      30003280 f   bg_panimate.obj
 0001:000022c0       _BG_GetLegsAnimPoint       300032c0 f   bg_panimate.obj
 0001:000023a0       _BG_GetTorsoAnimPoint      300033a0 f   bg_panimate.obj
 0001:00002480       _BG_InBackFlip             30003480 f   bg_panimate.obj
 0001:000024a0       _BG_InDeathAnim            300034a0 f   bg_panimate.obj
 0001:000024e0       _BG_InGrappleMove          300034e0 f   bg_panimate.obj
 0001:00002530       _BG_InKataAnim             30003530 f   bg_panimate.obj
 0001:00002550       _BG_InKnockDownOnly        30003550 f   bg_panimate.obj
 0001:00002570       _BG_InLedgeMove            30003570 f   bg_panimate.obj
 0001:00002590       _BG_InReboundHold          30003590 f   bg_panimate.obj
 0001:000025b0       _BG_InReboundJump          300035b0 f   bg_panimate.obj
 0001:000025d0       _BG_InRoll                 300035d0 f   bg_panimate.obj
 0001:00002660       _BG_InSaberLock            30003660 f   bg_panimate.obj
 0001:00002720       _BG_InSaberLockOld         30003720 f   bg_panimate.obj
 0001:00002760       _BG_InSaberStandAnim       30003760 f   bg_panimate.obj
 0001:000027a0       _BG_InSpecialJump          300037a0 f   bg_panimate.obj
 0001:000028a0       _BG_InitAnimsets           300038a0 f   bg_panimate.obj
 0001:000028c0       _BG_KickMove               300038c0 f   bg_panimate.obj
 0001:000028e0       _BG_KickingAnim            300038e0 f   bg_panimate.obj
 0001:00002940       _BG_ParseAnimationFile     30003940 f   bg_panimate.obj
 0001:00002c60       _BG_SaberInAttack          30003c60 f   bg_panimate.obj
 0001:00002c90       _BG_SaberInAttackPure      30003c90 f   bg_panimate.obj
 0001:00002cb0       _BG_SaberInIdle            30003cb0 f   bg_panimate.obj
 0001:00002cc0       _BG_SaberInKata            30003cc0 f   bg_panimate.obj
 0001:00002ce0       _BG_SaberInSpecial         30003ce0 f   bg_panimate.obj
 0001:00002d00       _BG_SaberInSpecialAttack   30003d00 f   bg_panimate.obj
 0001:00002e60       _BG_SaberInTransitionAny   30003e60 f   bg_panimate.obj
 0001:00002e90       _BG_SaberLockBreakAnim     30003e90 f   bg_panimate.obj
 0001:00002f50       _BG_SaberStartTransAnim    30003f50 f   bg_panimate.obj
 0001:000031d0       _BG_SetAnim                300041d0 f   bg_panimate.obj
 0001:000032f0       _BG_SetAnimFinal           300042f0 f   bg_panimate.obj
 0001:00003610       _BG_SpinningSaberAnim      30004610 f   bg_panimate.obj
 0001:000038b0       _BG_SuperBreakLoseAnim     300048b0 f   bg_panimate.obj
 0001:00003940       _BG_SuperBreakWinAnim      30004940 f   bg_panimate.obj
 0001:000039d0       _PM_AnimLength             300049d0 f   bg_panimate.obj
 0001:00003a50       _PM_CanRollFromSoulCal     30004a50 f   bg_panimate.obj
 0001:00003a80       _PM_ContinueLegsAnim       30004a80 f   bg_panimate.obj
 0001:00003ab0       _PM_ForceLegsAnim          30004ab0 f   bg_panimate.obj
 0001:00003b50       _PM_InCartwheel            30004b50 f   bg_panimate.obj
 0001:00003b80       _PM_InForceGetUp           30004b80 f   bg_panimate.obj
 0001:00003bb0       _PM_InGetUp                30004bb0 f   bg_panimate.obj
 0001:00003c20       _PM_InKnockDown            30004c20 f   bg_panimate.obj
 0001:00003c80       _PM_InOnGroundAnim         30004c80 f   bg_panimate.obj
 0001:00003cc0       _PM_InRollComplete         30004cc0 f   bg_panimate.obj
 0001:00003cf0       _PM_InSaberAnim            30004cf0 f   bg_panimate.obj
 0001:00003d10       _PM_JumpingAnim            30004d10 f   bg_panimate.obj
 0001:00003d30       _PM_KnockDownAnimExtended  30004d30 f   bg_panimate.obj
 0001:00003d70       _PM_LandingAnim            30004d70 f   bg_panimate.obj
 0001:00003dc0       _PM_LockedAnim             30004dc0 f   bg_panimate.obj
 0001:00003e10       _PM_PainAnim               30004e10 f   bg_panimate.obj
 0001:00003e30       _PM_SaberBounceForAttack   30004e30 f   bg_panimate.obj
 0001:00003eb0       _PM_SaberInKnockaway       30004eb0 f   bg_panimate.obj
 0001:00003ed0       _PM_SaberInParry           30004ed0 f   bg_panimate.obj
 0001:00003ef0       _PM_SaberInReflect         30004ef0 f   bg_panimate.obj
 0001:00003f10       _PM_SaberInReturn          30004f10 f   bg_panimate.obj
 0001:00003f30       _PM_SaberInStart           30004f30 f   bg_panimate.obj
 0001:00003f50       _PM_SaberInTransition      30004f50 f   bg_panimate.obj
 0001:00003f70       _PM_SaberReturnAnim        30004f70 f   bg_panimate.obj
 0001:00003fe0       _PM_SetAnim                30004fe0 f   bg_panimate.obj
 0001:00004010       _PM_StartTorsoAnim         30005010 f   bg_panimate.obj
 0001:00004040       _BG_AdjustClientSpeed      30005040 f   bg_pmove.obj
 0001:000043a0       _BG_BoneOrientationsForClass 300053a0 f   bg_pmove.obj
 0001:000044f0       _BG_ClassHasBadBones       300054f0 f   bg_pmove.obj
 0001:00004530       _BG_ClearRocketLock        30005530 f   bg_pmove.obj
 0001:00004570       _BG_CmdForRoll             30005570 f   bg_pmove.obj
 0001:00004780       _BG_G2ATSTAngles           30005780 f   bg_pmove.obj
 0001:000051f0       _BG_G2PlayerAngles         300061f0 f   bg_pmove.obj
 0001:00005f60       _BG_IK_MoveArm             30006f60 f   bg_pmove.obj
 0001:00006420       _BG_InKnockDown            30007420 f   bg_pmove.obj
 0001:00006470       _BG_InRoll2                30007470 f   bg_pmove.obj
 0001:00006500       _BG_InSlopeAnim            30007500 f   bg_pmove.obj
 0001:00006520       _BG_SabersOff              30007520 f   bg_pmove.obj
 0001:00006710       _BG_UnrestrainedPitchRoll  30007710 f   bg_pmove.obj
 0001:00006760       _BG_UpdateLookAngles       30007760 f   bg_pmove.obj
 0001:00006930       _BG_VehTraceFromCamPos     30007930 f   bg_pmove.obj
 0001:00006b80       _BG_VehicleAdjustBBoxForOrientation 30007b80 f   bg_pmove.obj
 0001:00007000       _BG_VehicleTurnRateForSpeed 30008000 f   bg_pmove.obj
 0001:000070c0       _JumpHeightDeduction       300080c0 f   bg_pmove.obj
 0001:00007140       _LedgeGrabableEntity       30008140 f   bg_pmove.obj
 0001:00007190       _LedgeTrace                30008190 f   bg_pmove.obj
 0001:00007540       _NumberOfWeapons           30008540 f   bg_pmove.obj
 0001:00007770       _PM_AddEvent               30008770 f   bg_pmove.obj
 0001:00007790       _PM_AddEventWithParm       30008790 f   bg_pmove.obj
 0001:000077b0       _PM_AddTouchEnt            300087b0 f   bg_pmove.obj
 0001:00007800       _PM_AdjustAngleForWallGrap 30008800 f   bg_pmove.obj
 0001:00007a80       _PM_AdjustAngleForWallJump 30008a80 f   bg_pmove.obj
 0001:00007f50       _PM_AdjustAngleForWallRun  30008f50 f   bg_pmove.obj
 0001:00008390       _PM_AdjustAngleForWallRunUp 30009390 f   bg_pmove.obj
 0001:000087d0       _PM_AdjustAnglesForKnockdown 300097d0 f   bg_pmove.obj
 0001:00008910       _PM_AdjustAttackStates     30009910 f   bg_pmove.obj
 0001:00008cb0       _PM_AdjustStandAnimForSlope 30009cb0 f   bg_pmove.obj
 0001:000096c0       _PM_BGEntForNum            3000a6c0 f   bg_pmove.obj
 0001:000096f0       _PM_BeginWeaponChange      3000a6f0 f   bg_pmove.obj
 0001:000097c0       _PM_CanForceFall           3000a7c0 f   bg_pmove.obj
 0001:000098c0       _PM_CanSetWeaponReadyAnim  3000a8c0 f   bg_pmove.obj
 0001:00009920       _PM_CheckDualForwardJumpDuck 3000a920 f   bg_pmove.obj
 0001:00009e50       _PM_CheckFixMins           3000ae50 f   bg_pmove.obj
 0001:0000a080       _PM_CheckGrab              3000b080 f   bg_pmove.obj
 0001:0000c0b0       _PM_CheckRollGetup         3000d0b0 f   bg_pmove.obj
 0001:0000c3a0       _PM_CheckRollSafety        3000d3a0 f   bg_pmove.obj
 0001:0000c730       _PM_ClipVelocity           3000d730 f   bg_pmove.obj
 0001:0000d500       _PM_CrouchGetup            3000e500 f   bg_pmove.obj
 0001:0000dc20       _PM_DoPunch                3000ec20 f   bg_pmove.obj
 0001:0000dcf0       _PM_FinishWeaponChange     3000ecf0 f   bg_pmove.obj
 0001:0000e1f0       _PM_FootSlopeTrace         3000f1f0 f   bg_pmove.obj
 0001:0000ee50       _PM_ForceJumpingUp         3000fe50 f   bg_pmove.obj
 0001:0000f170       _PM_GetOkWeaponForVehicle  30010170 f   bg_pmove.obj
 0001:0000f1b0       _PM_GetSaberStance         300101b0 f   bg_pmove.obj
 0001:0000f2b0       _PM_GetWeaponReadyAnim     300102b0 f i bg_pmove.obj
 0001:0000f2e0       _PM_GettingUpFromKnockDown 300102e0 f   bg_pmove.obj
 0001:0000f700       _PM_GrabWallForJump        30010700 f   bg_pmove.obj
 0001:0000fce0       _PM_HoverTrace             30010ce0 f   bg_pmove.obj
 0001:00010150       _PM_InForceFall            30011150 f   bg_pmove.obj
 0001:000102e0       _PM_LegsSlopeBackTransition 300112e0 f   bg_pmove.obj
 0001:00010380       _PM_MinGetUpTime           30011380 f   bg_pmove.obj
 0001:000103f0       _PM_MoveForKata            300113f0 f   bg_pmove.obj
 0001:00010550       _PM_MoveLock               30011550 f   bg_pmove.obj
 0001:000108e0       _PM_RocketLock             300118e0 f   bg_pmove.obj
 0001:00010cf0       _PM_RunningAnim            30011cf0 f   bg_pmove.obj
 0001:00010d40       _PM_SetForceJumpZStart     30011d40 f   bg_pmove.obj
 0001:00010e70       _PM_SetPMViewAngle         30011e70 f   bg_pmove.obj
 0001:00010ef0       _PM_SetSpecialMoveValues   30011ef0 f   bg_pmove.obj
 0001:00011310       _PM_SetVelocityforLedgeMove 30012310 f   bg_pmove.obj
 0001:00011a30       _PM_UpdateViewAngles       30012a30 f   bg_pmove.obj
 0001:00011c50       _PM_Use                    30012c50 f   bg_pmove.obj
 0001:00011cb0       _PM_VehFaceHyperspacePoint 30012cb0 f   bg_pmove.obj
 0001:00011f30       _PM_VehForcedTurning       30012f30 f   bg_pmove.obj
 0001:000120f0       _PM_VehicleViewAngles      300130f0 f   bg_pmove.obj
 0001:00012280       _PM_VehicleWeaponAnimate   30013280 f   bg_pmove.obj
 0001:00012c50       _PM_WalkingAnim            30013c50 f   bg_pmove.obj
 0001:00014b10       _PM_WeaponOkOnVehicle      30015b10 f   bg_pmove.obj
 0001:00014b30       _PM_pitch_roll_for_slope   30015b30 f   bg_pmove.obj
 0001:00014e80       _Pmove                     30015e80 f   bg_pmove.obj
 0001:00014f30       _PmoveSingle               30015f30 f   bg_pmove.obj
 0001:000164c0       _BG_AddFatigue             300174c0 f   bg_saber.obj
 0001:00016520       _BG_CheckIncrementLockAnim 30017520 f   bg_saber.obj
 0001:000165d0       _BG_EnoughForcePowerForMove 300175d0 f   bg_saber.obj
 0001:00016600       _BG_ForcePowerDrain        30017600 f   bg_saber.obj
 0001:00016680       _BG_InSlowBounce           30017680 f   bg_saber.obj
 0001:000166c0       _BG_MySaber                300176c0 f   bg_saber.obj
 0001:00016720       _BG_SaberFatigue           30017720 f   bg_saber.obj
 0001:000167e0       _PM_BrokenParryForParry    300177e0 f   bg_saber.obj
 0001:000168f0       _PM_CanBackstab            300178f0 f   bg_saber.obj
 0001:00016ad0       _PM_CanDoRollStab          30017ad0 f   bg_saber.obj
 0001:00016b40       _PM_CheckStabDown          30017b40 f   bg_saber.obj
 0001:00016d80       _PM_DoFake                 30017d80 f   bg_saber.obj
 0001:00016e80       _PM_DoKick                 30017e80 f   bg_saber.obj
 0001:00016fe0       _PM_GroundDistance         30017fe0 f   bg_saber.obj
 0001:000170c0       _PM_KickMoveForConditions  300180c0 f   bg_saber.obj
 0001:00017280       _PM_ReturnforQuad          30018280 f   bg_saber.obj
 0001:000172f0       _PM_SaberAnimTransitionAnim 300182f0 f   bg_saber.obj
 0001:00017530       _PM_SaberAttackForMovement 30018530 f   bg_saber.obj
 0001:00018420       _PM_SaberBackflipAttackMove 30019420 f   bg_saber.obj
 0001:00018530       _PM_SaberDroidWeapon       30019530 f   bg_saber.obj
 0001:00018670       _PM_SaberFlipOverAttackMove 30019670 f   bg_saber.obj
 0001:00018840       _PM_SaberInBounce          30019840 f   bg_saber.obj
 0001:00018870       _PM_SaberInBrokenParry     30019870 f   bg_saber.obj
 0001:000188b0       _PM_SaberJumpAttackMove    300198b0 f   bg_saber.obj
 0001:00018a60       _PM_SaberJumpAttackMove2   30019a60 f   bg_saber.obj
 0001:00018b70       _PM_SaberLockBreak         30019b70 f   bg_saber.obj
 0001:00018e10       _PM_SaberLockLoseAnim      30019e10 f   bg_saber.obj
 0001:00018ed0       _PM_SaberLockResultAnim    30019ed0 f   bg_saber.obj
 0001:00018fb0       _PM_SaberLockWinAnim       30019fb0 f   bg_saber.obj
 0001:00019110       _PM_SaberLocked            3001a110 f   bg_saber.obj
 0001:000194c0       _PM_SaberLungeAttackMove   3001a4c0 f   bg_saber.obj
 0001:000196b0       _PM_SaberPowerCheck        3001a6b0 f   bg_saber.obj
 0001:00019710       _PM_SaberThrowable         3001a710 f   bg_saber.obj
 0001:000197b0       _PM_SetSaberMove           3001a7b0 f   bg_saber.obj
 0001:0001a030       _PM_WalkableGroundDistance 3001b030 f   bg_saber.obj
 0001:0001a120       _PM_WeaponLightsaber       3001b120 f   bg_saber.obj
 0001:0001b020       _PM_irand_timesync         3001c020 f   bg_saber.obj
 0001:0001b080       _BG_ParseLiteral           3001c080 f   bg_saberLoad.obj
 0001:0001b0e0       _BG_SI_SetDesiredLength    3001c0e0 f   bg_saberLoad.obj
 0001:0001b130       _BG_SI_SetLength           3001c130 f   bg_saberLoad.obj
 0001:0001b170       _BG_SI_SetLengthGradual    3001c170 f   bg_saberLoad.obj
 0001:0001b290       _TranslateSaberColor       3001c290 f   bg_saberLoad.obj
 0001:0001b350       _TranslateSaberStyle       3001c350 f   bg_saberLoad.obj
 0001:0001b410       _WP_RemoveSaber            3001c410 f   bg_saberLoad.obj
 0001:0001b4a0       _WP_SaberBladeUseSecondBladeStyle 3001c4a0 f   bg_saberLoad.obj
 0001:0001b4d0       _WP_SaberLoadParms         3001c4d0 f   bg_saberLoad.obj
 0001:0001b610       _WP_SaberParseParm         3001c610 f   bg_saberLoad.obj
 0001:0001b750       _WP_SaberParseParms        3001c750 f   bg_saberLoad.obj
 0001:0001dc30       _WP_SaberSetDefaults       3001ec30 f   bg_saberLoad.obj
 0001:0001e100       _WP_SaberValidForPlayerInMP 3001f100 f   bg_saberLoad.obj
 0001:0001e160       _WP_SetSaber               3001f160 f   bg_saberLoad.obj
 0001:0001e210       _BG_GetNextValueGroup      3001f210 f   bg_saga.obj
 0001:0001e2d0       _BG_PrecacheSabersForSiegeTeam 3001f2d0 f   bg_saga.obj
 0001:0001e3b0       _BG_SiegeFindClassByName   3001f3b0 f   bg_saga.obj
 0001:0001e400       _BG_SiegeFindClassIndexByName 3001f400 f   bg_saga.obj
 0001:0001e450       _BG_SiegeFindTeamForTheme  3001f450 f   bg_saga.obj
 0001:0001e4b0       _BG_SiegeFindThemeForTeam  3001f4b0 f   bg_saga.obj
 0001:0001e4d0       _BG_SiegeGetPairedValue    3001f4d0 f   bg_saga.obj
 0001:0001e730       _BG_SiegeGetValueGroup     3001f730 f   bg_saga.obj
 0001:0001ea40       _BG_SiegeLoadClasses       3001fa40 f   bg_saga.obj
 0001:0001eb20       _BG_SiegeLoadTeams         3001fb20 f   bg_saga.obj
 0001:0001ee40       _BG_SiegeParseClassFile    3001fe40 f   bg_saga.obj
 0001:0001f720       _BG_SiegeSetTeamTheme      30020720 f   bg_saga.obj
 0001:0001f750       _BG_SiegeStripTabs         30020750 f   bg_saga.obj
 0001:0001f790       _BG_SiegeTranslateForcePowers 30020790 f   bg_saga.obj
 0001:0001f960       _BG_SiegeTranslateGenericTable 30020960 f   bg_saga.obj
 0001:0001fa50       _PM_GroundSlideOkay        30020a50 f   bg_slidemove.obj
 0001:0001fad0       _PM_SlideMove              30020ad0 f   bg_slidemove.obj
 0001:00020370       _PM_StepSlideMove          30021370 f   bg_slidemove.obj
 0001:00020970       _PM_VehicleImpact          30021970 f   bg_slidemove.obj
 0001:00021030       _AttachRidersGeneric       30022030 f   bg_vehicleLoad.obj
 0001:000210e0       _BG_GetVehicleModelName    300220e0 f   bg_vehicleLoad.obj
 0001:00021130       _BG_GetVehicleSkinName     30022130 f   bg_vehicleLoad.obj
 0001:00021770       _BG_SetSharedVehicleFunctions 30022770 f   bg_vehicleLoad.obj
 0001:000217d0       _BG_VehWeaponLoadParms     300227d0 f   bg_vehicleLoad.obj
 0001:00021950       _BG_VehicleClampData       30022950 f   bg_vehicleLoad.obj
 0001:000219f0       _BG_VehicleGetIndex        300229f0 f   bg_vehicleLoad.obj
 0001:00021a00       _BG_VehicleLoadParms       30022a00 f   bg_vehicleLoad.obj
 0001:00021d90       _BG_VehicleSetDefaults     30022d90 f   bg_vehicleLoad.obj
 0001:00021e20       _BG_VehicleUnloadParms     30022e20 f   bg_vehicleLoad.obj
 0001:00021e40       _VEH_LoadVehWeapon         30022e40 f   bg_vehicleLoad.obj
 0001:00022030       _VEH_LoadVehicle           30023030 f   bg_vehicleLoad.obj
 0001:00022890       _VEH_VehWeaponIndexForName 30023890 f   bg_vehicleLoad.obj
 0001:00022930       _VEH_VehicleIndexForName   30023930 f   bg_vehicleLoad.obj
 0001:000229d0       _CGCam_Disable             300239d0 f   cg_camera.obj
 0001:00022a90       _CGCam_DoFade              30023a90 f   cg_camera.obj
 0001:00022b10       _CGCam_Enable              30023b10 f   cg_camera.obj
 0001:00022b90       _CGCam_Fade                30023b90 f   cg_camera.obj
 0001:00022cb0       _CGCam_Follow              30023cb0 f   cg_camera.obj
 0001:00022d70       _CGCam_FollowUpdate        30023d70 f   cg_camera.obj
 0001:000231e0       _CGCam_Move                300241e0 f   cg_camera.obj
 0001:000232c0       _CGCam_Pan                 300242c0 f   cg_camera.obj
 0001:000234c0       _CGCam_RenderScene         300244c0 f   cg_camera.obj
 0001:000234e0       _CGCam_Shake               300244e0 f   cg_camera.obj
 0001:00023520       _CGCam_TrackUpdate         30024520 f   cg_camera.obj
 0001:000238e0       _CGCam_Update              300248e0 f   cg_camera.obj
 0001:00023f10       _CGCam_UpdateFade          30024f10 f   cg_camera.obj
 0001:00024000       _CGCam_UpdateShake         30025000 f   cg_camera.obj
 0001:000241a0       _CGCam_UpdateSmooth        300251a0 f   cg_camera.obj
 0001:00024300       _CGCam_Zoom                30025300 f   cg_camera.obj
 0001:00024360       _CG_CameraParse            30025360 f   cg_camera.obj
 0001:00024600       _CG_TargetCommand_f        30025600 f   cg_consolecmds.obj
 0001:00024ac0       _CG_ConsoleCommand         30025ac0 f   cg_consolecmds.obj
 0001:00024b00       _CG_InitConsoleCommands    30025b00 f   cg_consolecmds.obj
 0001:00024d10       _CG_AddLagometerFrameInfo  30025d10 f   cg_draw.obj
 0001:00024d40       _CG_AddLagometerSnapshotInfo 30025d40 f   cg_draw.obj
 0001:00024da0       _CG_BracketEntity          30025da0 f   cg_draw.obj
 0001:00025400       _CG_CalcEWebMuzzlePoint    30026400 f   cg_draw.obj
 0001:00025530       _CG_CalcVehicleMuzzlePoint 30026530 f   cg_draw.obj
 0001:00025720       _CG_CenterPrint            30026720 f   cg_draw.obj
 0001:00025790       _CG_ChatBox_AddString      30026790 f   cg_draw.obj
 0001:00025900       _CG_ChatBox_ArrayInsert    30026900 f   cg_draw.obj
 0001:00025ab0       _CG_ChatBox_StrInsert      30026ab0 f   cg_draw.obj
 0001:00025b30       _CG_CheckTargetVehicle     30026b30 f   cg_draw.obj
 0001:00025c70       _CG_DottedLine             30026c70 f   cg_draw.obj
 0001:00026f80       _CG_Draw3DModel            30027f80 f   cg_draw.obj
 0001:000270c0       _CG_DrawActive             300280c0 f   cg_draw.obj
 0001:000275b0       _CG_DrawArmor              300285b0 f   cg_draw.obj
 0001:00027810       _CG_DrawBracketedEntities  30028810 f   cg_draw.obj
 0001:00027a20       _CG_DrawCloakFuel          30028a20 f   cg_draw.obj
 0001:00028870       _CG_DrawDodge              30029870 f   cg_draw.obj
 0001:000289c0       _CG_DrawDuelistHealth      300299c0 f   cg_draw.obj
 0001:00028a80       _CG_DrawEWebHealth         30029a80 f   cg_draw.obj
 0001:00029160       _CG_DrawFlagModel          3002a160 f   cg_draw.obj
 0001:00029340       _CG_DrawFlagStatus         3002a340 f   cg_draw.obj
 0001:00029570       _CG_DrawForcePower         3002a570 f   cg_draw.obj
 0001:000296c0       _CG_DrawForceSelect        3002a6c0 f   cg_draw.obj
 0001:00029980       _CG_DrawGenericTimerBar    3002a980 f   cg_draw.obj
 0001:00029ab0       _CG_DrawHUD                3002aab0 f   cg_draw.obj
 0001:00029e70       _CG_DrawHaqrBar            3002ae70 f   cg_draw.obj
 0001:0002a030       _CG_DrawHealth             3002b030 f   cg_draw.obj
 0001:0002a130       _CG_DrawHealthBar          3002b130 f   cg_draw.obj
 0001:0002a2c0       _CG_DrawHealthBarRough     3002b2c0 f   cg_draw.obj
 0001:0002a4d0       _CG_DrawInvenSelect        3002b4d0 f   cg_draw.obj
 0001:0002a8a0       _CG_DrawJetpackFuel        3002b8a0 f   cg_draw.obj
 0001:0002b0b0       _CG_DrawRadar              3002c0b0 f   cg_draw.obj
 0001:0002cac0       _CG_DrawSiegeInfo          3002dac0 f   cg_draw.obj
 0001:0002ce40       _CG_DrawSiegeMessage       3002de40 f   cg_draw.obj
 0001:0002ce80       _CG_DrawSiegeMessageNonMenu 3002de80 f   cg_draw.obj
 0001:0002d550       _CG_DrawTeamBackground     3002e550 f   cg_draw.obj
 0001:0002dd70       _CG_DrawVehicleAmmo        3002ed70 f   cg_draw.obj
 0001:0002dee0       _CG_DrawVehicleAmmoLower   3002eee0 f   cg_draw.obj
 0001:0002e050       _CG_DrawVehicleAmmoUpper   3002f050 f   cg_draw.obj
 0001:0002e1c0       _CG_DrawVehicleArmor       3002f1c0 f   cg_draw.obj
 0001:0002e2f0       _CG_DrawVehicleDamage      3002f2f0 f   cg_draw.obj
 0001:0002e430       _CG_DrawVehicleDamageHUD   3002f430 f   cg_draw.obj
 0001:0002e720       _CG_DrawVehicleHud         3002f720 f   cg_draw.obj
 0001:0002e8f0       _CG_DrawVehicleShields     3002f8f0 f   cg_draw.obj
 0001:0002ea20       _CG_DrawVehicleSpeed       3002fa20 f   cg_draw.obj
 0001:0002eba0       _CG_DrawVehicleTurboRecharge 3002fba0 f   cg_draw.obj
 0001:0002ec90       _CG_DrawVehicleWeaponsLinked 3002fc90 f   cg_draw.obj
 0001:0002ff00       _CG_InATST                 30030f00 f   cg_draw.obj
 0001:0002ff40       _CG_InFighter              30030f40 f   cg_draw.obj
 0001:0002ff80       _CG_SaberClashFlare        30030f80 f   cg_draw.obj
 0001:00030180       _CG_SanitizeString         30031180 f   cg_draw.obj
 0001:000308a0       _CG_Text_Height            300318a0 f   cg_draw.obj
 0001:000308f0       _CG_Text_Paint             300318f0 f   cg_draw.obj
 0001:000309a0       _CG_Text_Width             300319a0 f   cg_draw.obj
 0001:000309f0       _CG_WorldCoordToScreenCoord 300319f0 f   cg_draw.obj
 0001:00030a30       _CG_WorldCoordToScreenCoordFloat 30031a30 f   cg_draw.obj
 0001:00030b70       _CG_ColorForGivenHealth    30031b70 f   cg_drawtools.obj
 0001:00030c00       _CG_ColorForHealth         30031c00 f   cg_drawtools.obj
 0001:00030c80       _CG_DrawBigString          30031c80 f   cg_drawtools.obj
 0001:00030cd0       _CG_DrawNumField           30031cd0 f   cg_drawtools.obj
 0001:00030fe0       _CG_DrawPic                30031fe0 f   cg_drawtools.obj
 0001:00031040       _CG_DrawRect               30032040 f   cg_drawtools.obj
 0001:000310d0       _CG_DrawRotatePic          300320d0 f   cg_drawtools.obj
 0001:00031140       _CG_DrawRotatePic2         30032140 f   cg_drawtools.obj
 0001:000311b0       _CG_DrawSides              300321b0 f   cg_drawtools.obj
 0001:00031290       _CG_DrawSmallString        30032290 f   cg_drawtools.obj
 0001:000312e0       _CG_DrawStringExt          300322e0 f   cg_drawtools.obj
 0001:000315d0       _CG_DrawStrlen             300325d0 f   cg_drawtools.obj
 0001:00031610       _CG_DrawTopBottom          30032610 f   cg_drawtools.obj
 0001:000316f0       _CG_FadeColor              300326f0 f   cg_drawtools.obj
 0001:00031770       _CG_FillRect               30032770 f   cg_drawtools.obj
 0001:000317f0       _CG_GetColorForHealth      300327f0 f   cg_drawtools.obj
 0001:000318d0       _CG_TileClear              300328d0 f   cg_drawtools.obj
 0001:00031b80       _UI_DrawProportionalString 30032b80 f   cg_drawtools.obj
 0001:00031c30       _UI_DrawScaledProportionalString 30032c30 f   cg_drawtools.obj
 0001:00031ce0       _CGDEBUG_SaberColor        30032ce0 f   cg_effects.obj
 0001:000324d0       _CG_Chunks                 300334d0 f   cg_effects.obj
 0001:00032bf0       _CG_DoGlass                30033bf0 f   cg_effects.obj
 0001:00033240       _CG_GlassShatter           30034240 f   cg_effects.obj
 0001:000332a0       _CG_InitGlass              300342a0 f   cg_effects.obj
 0001:00033370       _CG_MiscModelExplosion     30034370 f   cg_effects.obj
 0001:000335b0       _CG_ScorePlum              300345b0 f   cg_effects.obj
 0001:00033710       _CG_SmokePuff              30034710 f   cg_effects.obj
 0001:000338b0       _CG_TestLine               300348b0 f   cg_effects.obj
 0001:000339f0       _CG_AddBracketedEnt        300349f0 f   cg_ents.obj
 0001:00033bc0       _CG_AddPacketEntities      30034bc0 f   cg_ents.obj
 0001:00033f00       _CG_AddRadarEnt            30034f00 f   cg_ents.obj
 0001:00033f30       _CG_AdjustPositionForMover 30034f30 f   cg_ents.obj
 0001:00034020       _CG_Beam                   30035020 f   cg_ents.obj
 0001:00034130       _CG_CalcEntityLerpPositions 30035130 f   cg_ents.obj
 0001:00034260       _CG_Cube                   30035260 f   cg_ents.obj
 0001:00034410       _CG_Disintegration         30035410 f   cg_ents.obj
 0001:00036910       _CG_GreyItem               30037910 f   cg_ents.obj
 0001:00037630       _CG_ManualEntityRender     30038630 f   cg_ents.obj
 0001:00038290       _CG_PlayDoorLoopSound      30039290 f   cg_ents.obj
 0001:00038370       _CG_PlayDoorSound          30039370 f   cg_ents.obj
 0001:000385c0       _CG_PositionEntityOnTag    300395c0 f   cg_ents.obj
 0001:00038700       _CG_PositionRotatedEntityOnTag 30039700 f   cg_ents.obj
 0001:00038840       _CG_ROFF_NotetrackCallback 30039840 f   cg_ents.obj
 0001:00038db0       _CG_S_AddLoopingSound      30039db0 f   cg_ents.obj
 0001:00038e80       _CG_S_AddRealLoopingSound  30039e80 f   cg_ents.obj
 0001:00038e90       _CG_S_StopLoopingSound     30039e90 f   cg_ents.obj
 0001:00038f20       _CG_S_UpdateLoopingSounds  30039f20 f   cg_ents.obj
 0001:00038ff0       _CG_SetEntitySoundPosition 30039ff0 f   cg_ents.obj
 0001:00039080       _CG_SetGhoul2Info          3003a080 f   cg_ents.obj
 0001:000391b0       _CG_Special                3003a1b0 f   cg_ents.obj
 0001:000392b0       _FX_AddOrientedLine        3003a2b0 f   cg_ents.obj
 0001:00039400       _FX_DrawPortableShield     3003a400 f   cg_ents.obj
 0001:000395a0       _ScaleModelAxis            3003a5a0 f   cg_ents.obj
 0001:000396a0       _CG_CalcVehMuzzle          3003a6a0 f   cg_event.obj
 0001:000397c0       _CG_CheckEvents            3003a7c0 f   cg_event.obj
 0001:00039850       _CG_EntityEvent            3003a850 f   cg_event.obj
 0001:0003db50       _CG_G2MarkEvent            3003eb50 f   cg_event.obj
 0001:0003dde0       _CG_GetCTFMessageEvent     3003ede0 f   cg_event.obj
 0001:0003de50       _CG_GetStringForVoiceSound 3003ee50 f   cg_event.obj
 0001:0003dea0       _CG_InClientBitflags       3003eea0 f   cg_event.obj
 0001:0003e0b0       _CG_LocalTimingBar         3003f0b0 f   cg_event.obj
 0001:0003eb10       _CG_PainEvent              3003fb10 f   cg_event.obj
 0001:0003eb80       _CG_PlaceString            3003fb80 f   cg_event.obj
 0001:0003ed10       _CG_PrintCTFMessage        3003fd10 f   cg_event.obj
 0001:0003eec0       _CG_ReattachLimb           3003fec0 f   cg_event.obj
 0001:0003ef20       _CG_ToggleBinoculars       3003ff20 f   cg_event.obj
 0001:0003f0b0       _CG_VehMuzzleFireFX        300400b0 f   cg_event.obj
 0001:0003f1d0       _DoFall                    300401d0 f   cg_event.obj
 0001:0003f2f0       _CG_LoadHolsterData        300402f0 f   cg_holster.obj
 0001:0003f5d0       _InitHolsterData           300405d0 f   cg_holster.obj
 0001:0003f640       _CG_DrawInformation        30040640 f   cg_info.obj
 0001:00040060       _CG_LoadBar                30041060 f   cg_info.obj
 0001:00040160       _CG_LoadingClient          30041160 f   cg_info.obj
 0001:000401f0       _CG_LoadingItem            300411f0 f   cg_info.obj
 0001:00040260       _CG_LoadingString          30041260 f   cg_info.obj
 0001:000402c0       _CG_ClearLightStyles       300412c0 f   cg_light.obj
 0001:000403a0       _CG_RunLightStyles         300413a0 f   cg_light.obj
 0001:00040440       _CG_SetLightstyle          30041440 f   cg_light.obj
 0001:000405c0       _CG_AddFadeRGB             300415c0 f   cg_localents.obj
 0001:000408c0       _CG_AddFragment            300418c0 f   cg_localents.obj
 0001:00040ad0       _CG_AddLocalEntities       30041ad0 f   cg_localents.obj
 0001:00040db0       _CG_AddOLine               30041db0 f   cg_localents.obj
 0001:00040ff0       _CG_AddRefEntity           30041ff0 f   cg_localents.obj
 0001:00041160       _CG_AddScorePlum           30042160 f   cg_localents.obj
 0001:00041650       _CG_AllocLocalEntity       30042650 f   cg_localents.obj
 0001:000416d0       _CG_BloodTrail             300426d0 f   cg_localents.obj
 0001:000417a0       _CG_FragmentBounceMark     300427a0 f   cg_localents.obj
 0001:000417d0       _CG_FragmentBounceSound    300427d0 f   cg_localents.obj
 0001:00041860       _CG_FreeLocalEntity        30042860 f   cg_localents.obj
 0001:000418a0       _CG_InitLocalEntities      300428a0 f   cg_localents.obj
 0001:00041900       _CG_ReflectVelocity        30042900 f   cg_localents.obj
 0001:00041a40       _BG_GetTime                30042a40 f   cg_main.obj
 0001:00041af0       _CG_Argv                   30042af0 f   cg_main.obj
 0001:00041b10       _CG_AssetCache             30042b10 f   cg_main.obj
 0001:00041c20       _CG_Asset_Parse            30042c20 f   cg_main.obj
 0001:000420f0       _CG_BuildSpectatorString   300430f0 f   cg_main.obj
 0001:00042170       _CG_ConfigString           30043170 f   cg_main.obj
 0001:000421a0       _CG_CreateModelFromSpawnEnt 300431a0 f   cg_main.obj
 0001:000423c0       _CG_CreateWeatherZoneFromSpawnEnt 300433c0 f   cg_main.obj
 0001:000423f0       _CG_CrosshairPlayer        300433f0 f   cg_main.obj
 0001:00042700       _CG_DestroyAllGhoul2       30043700 f   cg_main.obj
 0001:000427a0       _CG_DrawMiscEnts           300437a0 f   cg_main.obj
 0001:000428c0       _CG_Error                  300438c0 f   cg_main.obj
 0001:00042c00       _CG_GetLocationString      30043c00 f   cg_main.obj
 0001:00042c30       _CG_GetStringEdString      30043c30 f   cg_main.obj
 0001:00042d60       _CG_Init                   30043d60 f   cg_main.obj
 0001:00043260       _CG_LastAttacker           30044260 f   cg_main.obj
 0001:00043280       _CG_LoadHudMenu            30044280 f   cg_main.obj
 0001:000434b0       _CG_LoadMenus              300444b0 f   cg_main.obj
 0001:000435e0       _CG_Load_Menu              300445e0 f   cg_main.obj
 0001:00043720       _CG_MiscEnt                30044720 f   cg_main.obj
 0001:000438c0       _CG_NewString              300448c0 f   cg_main.obj
 0001:00043970       _CG_NextForcePower_f       30044970 f   cg_main.obj
 0001:00043a30       _CG_NextInventory_f        30044a30 f   cg_main.obj
 0001:00043ac0       _CG_NoUseableForce         30044ac0 f   cg_main.obj
 0001:00043bf0       _CG_ParseSiegeState        30044bf0 f   cg_main.obj
 0001:00043cb0       _CG_ParseSpawnVars         30044cb0 f   cg_main.obj
 0001:00043e90       _CG_ParseWeatherEffect     30044e90 f   cg_main.obj
 0001:00043ed0       _CG_PrevForcePower_f       30044ed0 f   cg_main.obj
 0001:00043f90       _CG_PrevInventory_f        30044f90 f   cg_main.obj
 0001:00044020       _CG_Printf                 30045020 f   cg_main.obj
 0001:000441d0       _CG_RegisterCvars          300451d0 f   cg_main.obj
 0001:000465f0       _CG_SetScoreSelection      300475f0 f   cg_main.obj
 0001:00046690       _CG_Shutdown               30047690 f   cg_main.obj
 0001:000466d0       _CG_SiegeCountCvars        300476d0 f   cg_main.obj
 0001:00046910       _CG_SpawnCGameEntFromVars  30047910 f   cg_main.obj
 0001:00046ab0       _CG_StartMusic             30047ab0 f   cg_main.obj
 0001:00046bb0       _CG_Text_PaintWithCursor   30047bb0 f   cg_main.obj
 0001:00046c00       _CG_TransitionPermanent    30047c00 f   cg_main.obj
 0001:00046cc0       _CG_UpdateCvars            30047cc0 f   cg_main.obj
 0001:00047080       _Com_Error                 30048080 f   cg_main.obj
 0001:000470c0       _Com_Printf                300480c0 f   cg_main.obj
 0001:00047100       _vmMain                    30048100 f   cg_main.obj
 0001:00047470       _CG_AddMarks               30048470 f   cg_marks.obj
 0001:000475f0       _CG_AddParticleToScene     300485f0 f   cg_marks.obj
 0001:00049350       _CG_AddParticles           3004a350 f   cg_marks.obj
 0001:000496d0       _CG_AllocMark              3004a6d0 f   cg_marks.obj
 0001:00049760       _CG_ClearParticles         3004a760 f   cg_marks.obj
 0001:000497f0       _CG_ImpactMark             3004a7f0 f   cg_marks.obj
 0001:00049c60       _CG_InitMarkPolys          3004ac60 f   cg_marks.obj
 0001:00049cc0       _ItemParse_isSaber         3004acc0 f   ui_shared.obj
 0001:00049cc0       _ItemParse_isSaber2        3004acc0 f   ui_shared.obj
 0001:00049cc0       __matherr                  3004acc0 f   LIBCMT:matherr.obj
 0001:00049cc0       _CG_DeferMenuScript        3004acc0 f   cg_newDraw.obj
 0001:00049cd0       _CG_EventHandling          3004acd0 f   cg_newDraw.obj
 0001:00049d00       _CG_GameTypeString         3004ad00 f   cg_newDraw.obj
 0001:00049d70       _CG_GetGameStatusText      3004ad70 f   cg_newDraw.obj
 0001:00049e80       _CG_GetKillerText          3004ae80 f   cg_newDraw.obj
 0001:00049ec0       _CG_GetSelectedPlayer      3004aec0 f   cg_newDraw.obj
 0001:00049ee0       _CG_GetTeamColor           3004aee0 f   cg_newDraw.obj
 0001:00049f50       _CG_GetValue               3004af50 f   cg_newDraw.obj
 0001:0004a0c0       _CG_KeyEvent               3004b0c0 f   cg_newDraw.obj
 0001:0004a170       _CG_MouseEvent             3004b170 f   cg_newDraw.obj
 0001:0004a240       _CG_OtherTeamHasFlag       3004b240 f   cg_newDraw.obj
 0001:0004a280       _CG_OwnerDrawVisible       3004b280 f   cg_newDraw.obj
 0001:0004a3c0       _CG_StatusHandle           3004b3c0 f   cg_newDraw.obj
 0001:0004a420       _CG_YourTeamHasFlag        3004b420 f   cg_newDraw.obj
 0001:0004a460       _ApplyAxisRotation         3004b460 f   cg_players.obj
 0001:0004a820       _CG_ActualLoadDeferredPlayers 3004b820 f   cg_players.obj
 0001:0004aba0       _CG_AddGhoul2Mark          3004bba0 f   cg_players.obj
 0001:0004ad60       _CG_AddRefEntityWithPowerups 3004bd60 f   cg_players.obj
 0001:0004adb0       _CG_AddSaberBlade          3004bdb0 f   cg_players.obj
 0001:0004cb20       _CG_CacheG2AnimInfo        3004db20 f   cg_players.obj
 0001:0004cce0       _CG_CheckThirdPersonAlpha  3004dce0 f   cg_players.obj
 0001:0004cf90       _CG_CleanJetpackGhoul2     3004df90 f   cg_players.obj
 0001:0004d2c0       _CG_CreateNPCClient        3004e2c0 f   cg_players.obj
 0001:0004d2e0       _CG_CreateSaberMarks       3004e2e0 f   cg_players.obj
 0001:0004ddd0       _CG_CustomSound            3004edd0 f   cg_players.obj
 0001:0004e110       _CG_DestroyNPCClient       3004f110 f   cg_players.obj
 0001:0004e130       _CG_DoEp1Saber             3004f130 f   cg_players.obj
 0001:0004f7f0       _CG_DoEp2Saber             300507f0 f   cg_players.obj
 0001:00050fa0       _CG_DoEp3Saber             30051fa0 f   cg_players.obj
 0001:00052770       _CG_DoOTSaber              30053770 f   cg_players.obj
 0001:00053e80       _CG_DoSFXSaber             30054e80 f   cg_players.obj
 0001:000554f0       _CG_DoSaber                300564f0 f   cg_players.obj
 0001:00055ab0       _CG_DoSaberLight           30056ab0 f   cg_players.obj
 0001:00055f00       _CG_DrawPlayerSphere       30056f00 f   cg_players.obj
 0001:00057050       _CG_G2AnimEntModelLoad     30058050 f   cg_players.obj
 0001:00057700       _CG_G2Animated             30058700 f   cg_players.obj
 0001:00057d90       _CG_G2PlayerHeadAnims      30058d90 f   cg_players.obj
 0001:00058100       _CG_G2SaberEffects         30059100 f   cg_players.obj
 0001:00058230       _CG_G2ServerBoneAngles     30059230 f   cg_players.obj
 0001:00058550       _CG_G2SkelForModel         30059550 f   cg_players.obj
 0001:000585c0       _CG_G2TraceCollide         300595c0 f   cg_players.obj
 0001:00058780       _CG_HandleAppendedSkin     30059780 f   cg_players.obj
 0001:00058840       _CG_HolsteredWeaponRender  30059840 f   cg_players.obj
 0001:00058df0       _CG_InitJetpackGhoul2      30059df0 f   cg_players.obj
 0001:00058e50       _CG_IsMindTricked          30059e50 f   cg_players.obj
 0001:00058ef0       _CG_LoadCISounds           30059ef0 f   cg_players.obj
 0001:000592c0       _CG_LoadClientInfo         3005a2c0 f   cg_players.obj
 0001:00059600       _CG_LoadDeferredPlayers    3005a600 f   cg_players.obj
 0001:00059610       _CG_NewClientInfo          3005a610 f   cg_players.obj
 0001:0005a270       _CG_ParseAnimationEvtFile  3005b270 f   cg_players.obj
 0001:0005a600       _CG_ParseScriptedSaber     3005b600 f   cg_players.obj
 0001:0005a730       _CG_ParseSurfsFile         3005b730 f   cg_players.obj
 0001:0005a900       _CG_Player                 3005b900 f   cg_players.obj
 0001:0005f710       _CG_PlayerAmbientEvents    30060710 f   cg_players.obj
 0001:0005f870       _CG_PlayerAnimEventDo      30060870 f   cg_players.obj
 0001:0005fc30       _CG_PlayerAnimEvents       30060c30 f   cg_players.obj
 0001:00060920       _CG_PlayerShieldHit        30061920 f   cg_players.obj
 0001:00060e60       _CG_RadiusForCent          30061e60 f   cg_players.obj
 0001:00060f60       _CG_RagDoll                30061f60 f   cg_players.obj
 0001:00062780       _CG_ResetPlayerEntity      30063780 f   cg_players.obj
 0001:00062e40       _CG_SaberCompWork          30063e40 f   cg_players.obj
 0001:00063ce0       _CG_ThereIsAMaster         30064ce0 f   cg_players.obj
 0001:00063d10       _CG_TriggerAnimSounds      30064d10 f   cg_players.obj
 0001:00063e80       _CG_VehicleAttachDroidUnit 30064e80 f   cg_players.obj
 0001:00064940       _CG_VehicleShouldDrawShields 30065940 f   cg_players.obj
 0001:00064980       _CG_VisualWeaponsUpdate    30065980 f   cg_players.obj
 0001:000657e0       _CheckAnimFrameForEventType 300667e0 f   cg_players.obj
 0001:00065820       _FindGender                30066820 f   cg_players.obj
 0001:00065910       _ParseAnimationEvtBlock    30066910 f   cg_players.obj
 0001:000661f0       _ParseRGBSaber             300671f0 f   cg_players.obj
 0001:00066240       _RGB_AdjustPimpSaberColor  30067240 f   cg_players.obj
 0001:000663c0       _RGB_AdjustSciptedSaberColor 300673c0 f   cg_players.obj
 0001:00066520       _RGB_RandomRGB             30067520 f   cg_players.obj
 0001:00066580       _SmoothTrueView            30067580 f   cg_players.obj
 0001:00067200       _CG_CheckLocalSounds       30068200 f   cg_playerstate.obj
 0001:000673d0       _CG_CheckPlayerstateEvents 300683d0 f   cg_playerstate.obj
 0001:000674c0       _CG_DamageFeedback         300684c0 f   cg_playerstate.obj
 0001:00067810       _CG_Respawn                30068810 f   cg_playerstate.obj
 0001:00067840       _CG_TransitionPlayerState  30068840 f   cg_playerstate.obj
 0001:00067960       _CG_BuildSolidList         30068960 f   cg_predict.obj
 0001:00067f60       _CG_G2Trace                30068f60 f   cg_predict.obj
 0001:00068340       _CG_PmoveClientPointerUpdate 30069340 f   cg_predict.obj
 0001:000683d0       _CG_PointContents          300693d0 f   cg_predict.obj
 0001:00068450       _CG_PredictPlayerState     30069450 f   cg_predict.obj
 0001:00069850       _CG_Trace                  3006a850 f   cg_predict.obj
 0001:000698e0       _CG_UsingEWeb              3006a8e0 f   cg_predict.obj
 0001:000699c0       _CG_AdjustEyePos           3006a9c0 f   cg_saga.obj
 0001:00069a20       _CG_InitSiegeMode          3006aa20 f   cg_saga.obj
 0001:0006a100       _CG_ParseSiegeExtendedData 3006b100 f   cg_saga.obj
 0001:0006a2d0       _CG_ParseSiegeObjectiveStatus 3006b2d0 f   cg_saga.obj
 0001:0006a520       _CG_PrecachePlayersForSiegeTeam 3006b520 f   cg_saga.obj
 0001:0006a640       _CG_PrecacheSiegeObjectiveAssetsForTeam 3006b640 f   cg_saga.obj
 0001:0006a7f0       _CG_SetSiegeTimerCvar      3006b7f0 f   cg_saga.obj
 0001:0006a860       _CG_SiegeBriefingDisplay   3006b860 f   cg_saga.obj
 0001:0006acb0       _CG_SiegeGetObjectiveDescription 3006bcb0 f   cg_saga.obj
 0001:0006ad50       _CG_SiegeGetObjectiveFinal 3006bd50 f   cg_saga.obj
 0001:0006ae90       _CG_SiegeObjectiveCompleted 3006be90 f   cg_saga.obj
 0001:0006b030       _CG_SiegeRoundOver         3006c030 f   cg_saga.obj
 0001:0006b180       _CG_TrueViewInit           3006c180 f   cg_saga.obj
 0001:0006b210       _siege_Cvar_Set            3006c210 f   cg_saga.obj
 0001:0006b340       _siege_Cvar_VariableStringBuffer 3006c340 f   cg_saga.obj
 0001:0006b400       _siegecvarlist             3006c400 f   cg_saga.obj
 0001:0006bb40       _CG_DrawOldScoreboard      3006cb40 f   cg_scoreboard.obj
 0001:0006c490       _CG_GetClassCount          3006d490 f   cg_scoreboard.obj
 0001:0006c4e0       _CG_GetTeamCount           3006d4e0 f   cg_scoreboard.obj
 0001:0006c530       _CG_GetTeamNonScoreCount   3006d530 f   cg_scoreboard.obj
 0001:0006c890       _CG_CheckSVStringEdRef     3006d890 f   cg_servercmds.obj
 0001:0006cfd0       _CG_ExecuteNewServerCommands 3006dfd0 f   cg_servercmds.obj
 0001:0006d010       _CG_HandleNPCSounds        3006e010 f   cg_servercmds.obj
 0001:0006d4c0       _CG_KillCEntityG2          3006e4c0 f   cg_servercmds.obj
 0001:0006d670       _CG_KillCEntityInstances   3006e670 f   cg_servercmds.obj
 0001:0006db30       _CG_ParseServerinfo        3006eb30 f   cg_servercmds.obj
 0001:0006dfe0       _CG_PrecacheNPCSounds      3006efe0 f   cg_servercmds.obj
 0001:0006ef40       _CG_SetConfigValues        3006ff40 f   cg_servercmds.obj
 0001:0006f070       _CG_ShaderStateChanged     30070070 f   cg_servercmds.obj
 0001:0006f1e0       _SetCustomSoundForType     300701e0 f   cg_servercmds.obj
 0001:0006f280       _SetDuelistHealthsFromConfigString 30070280 f   cg_servercmds.obj
 0001:0006f350       _CG_ProcessSnapshots       30070350 f   cg_snapshot.obj
 0001:0006f5d0       _CG_SetInitialSnapshot     300705d0 f   cg_snapshot.obj
 0001:0006fa50       _strap_G2API_AnimateG2Models 30070a50 f   cg_strap.obj
 0001:0006fa60       _strap_G2API_GetBoltMatrix 30070a60 f   cg_strap.obj
 0001:0006fa70       _strap_G2API_GetBoltMatrix_NoRecNoRot 30070a70 f   cg_strap.obj
 0001:0006fa80       _strap_G2API_GetBoneAnim   30070a80 f   cg_strap.obj
 0001:0006fa90       _strap_G2API_IKMove        30070a90 f   cg_strap.obj
 0001:0006faa0       _strap_G2API_SetBoneAngles 30070aa0 f   cg_strap.obj
 0001:0006fab0       _strap_G2API_SetBoneAnim   30070ab0 f   cg_strap.obj
 0001:0006faf0       _strap_G2API_SetBoneIKState 30070af0 f   cg_strap.obj
 0001:0006fb00       _dllEntry                  30070b00 f   cg_syscalls.obj
 0001:0006fb10       _trap_AS_AddPrecacheEntry  30070b10 f   cg_syscalls.obj
 0001:0006fb30       _trap_AS_GetBModelSound    30070b30 f   cg_syscalls.obj
 0001:0006fb50       _trap_AS_ParseSets         30070b50 f   cg_syscalls.obj
 0001:0006fb60       _trap_AddCommand           30070b60 f   cg_syscalls.obj
 0001:0006fb80       _trap_AnyLanguage_ReadCharFromString 30070b80 f   cg_syscalls.obj
 0001:0006fba0       _trap_Argc                 30070ba0 f   cg_syscalls.obj
 0001:0006fbb0       _trap_Args                 30070bb0 f   cg_syscalls.obj
 0001:0006fbd0       _trap_Argv                 30070bd0 f   cg_syscalls.obj
 0001:0006fbf0       _trap_CG_RegisterSharedMemory 30070bf0 f   cg_syscalls.obj
 0001:0006fc10       _trap_CIN_DrawCinematic    30070c10 f   cg_syscalls.obj
 0001:0006fc30       _trap_CIN_PlayCinematic    30070c30 f   cg_syscalls.obj
 0001:0006fc60       _trap_CIN_RunCinematic     30070c60 f   cg_syscalls.obj
 0001:0006fc80       _trap_CIN_SetExtents       30070c80 f   cg_syscalls.obj
 0001:0006fcb0       _trap_CIN_StopCinematic    30070cb0 f   cg_syscalls.obj
 0001:0006fcd0       _trap_CM_BoxTrace          30070cd0 f   cg_syscalls.obj
 0001:0006fd00       _trap_CM_InlineModel       30070d00 f   cg_syscalls.obj
 0001:0006fd20       _trap_CM_LoadMap           30070d20 f   cg_syscalls.obj
 0001:0006fd40       _trap_CM_MarkFragments     30070d40 f   cg_syscalls.obj
 0001:0006fd70       _trap_CM_NumInlineModels   30070d70 f   cg_syscalls.obj
 0001:0006fd80       _trap_CM_PointContents     30070d80 f   cg_syscalls.obj
 0001:0006fda0       _trap_CM_TempBoxModel      30070da0 f   cg_syscalls.obj
 0001:0006fdc0       _trap_CM_TransformedBoxTrace 30070dc0 f   cg_syscalls.obj
 0001:0006fdf0       _trap_CM_TransformedPointContents 30070df0 f   cg_syscalls.obj
 0001:0006fe10       _trap_Cvar_Register        30070e10 f   cg_syscalls.obj
 0001:0006fe30       _trap_Cvar_Set             30070e30 f   cg_syscalls.obj
 0001:0006fe50       _trap_Cvar_Update          30070e50 f   cg_syscalls.obj
 0001:0006fe70       _trap_Cvar_VariableStringBuffer 30070e70 f   cg_syscalls.obj
 0001:0006fe90       _trap_Error                30070e90 f   cg_syscalls.obj
 0001:0006feb0       _trap_FS_FCloseFile        30070eb0 f   cg_syscalls.obj
 0001:0006fed0       _trap_FS_FOpenFile         30070ed0 f   cg_syscalls.obj
 0001:0006fef0       _trap_FS_GetFileList       30070ef0 f   cg_syscalls.obj
 0001:0006ff10       _trap_FS_Read              30070f10 f   cg_syscalls.obj
 0001:0006ff30       _trap_FX_AddBezier         30070f30 f   cg_syscalls.obj
 0001:0006ff50       _trap_FX_AddElectricity    30070f50 f   cg_syscalls.obj
 0001:0006ff70       _trap_FX_AddLine           30070f70 f   cg_syscalls.obj
 0001:00070000       _trap_FX_AddPoly           30071000 f   cg_syscalls.obj
 0001:00070020       _trap_FX_AddPrimitive      30071020 f   cg_syscalls.obj
 0001:00070040       _trap_FX_AddScheduledEffects 30071040 f   cg_syscalls.obj
 0001:00070060       _trap_FX_AddSprite         30071060 f   cg_syscalls.obj
 0001:00070080       _trap_FX_AdjustTime        30071080 f   cg_syscalls.obj
 0001:000700a0       _trap_FX_FreeSystem        300710a0 f   cg_syscalls.obj
 0001:000700b0       _trap_FX_InitSystem        300710b0 f   cg_syscalls.obj
 0001:000700d0       _trap_FX_PlayBoltedEffectID 300710d0 f   cg_syscalls.obj
 0001:00070100       _trap_FX_PlayEffectID      30071100 f   cg_syscalls.obj
 0001:00070130       _trap_FX_PlayEntityEffectID 30071130 f   cg_syscalls.obj
 0001:00070160       _trap_FX_PlayPortalEffectID 30071160 f   cg_syscalls.obj
 0001:00070180       _trap_FX_RegisterEffect    30071180 f   cg_syscalls.obj
 0001:000701a0       _trap_G2API_AbsurdSmoothing 300711a0 f   cg_syscalls.obj
 0001:000701c0       _trap_G2API_AddBolt        300711c0 f   cg_syscalls.obj
 0001:000701e0       _trap_G2API_AddSkinGore    300711e0 f   cg_syscalls.obj
 0001:00070200       _trap_G2API_AnimateG2Models 30071200 f   cg_syscalls.obj
 0001:00070220       _trap_G2API_AttachInstanceToEntNum 30071220 f   cg_syscalls.obj
 0001:00070240       _trap_G2API_CleanGhoul2Models 30071240 f   cg_syscalls.obj
 0001:00070260       _trap_G2API_ClearAttachedInstance 30071260 f   cg_syscalls.obj
 0001:00070280       _trap_G2API_ClearSkinGore  30071280 f   cg_syscalls.obj
 0001:000702a0       _trap_G2API_CollisionDetect 300712a0 f   cg_syscalls.obj
 0001:000702f0       _trap_G2API_CollisionDetectCache 300712f0 f   cg_syscalls.obj
 0001:00070340       _trap_G2API_CopySpecificGhoul2Model 30071340 f   cg_syscalls.obj
 0001:00070360       _trap_G2API_DuplicateGhoul2Instance 30071360 f   cg_syscalls.obj
 0001:00070380       _trap_G2API_GetBoltMatrix  30071380 f   cg_syscalls.obj
 0001:000703b0       _trap_G2API_GetBoltMatrix_NoRecNoRot 300713b0 f   cg_syscalls.obj
 0001:000703e0       _trap_G2API_GetBoneAnim    300713e0 f   cg_syscalls.obj
 0001:00070420       _trap_G2API_GetBoneFrame   30071420 f   cg_syscalls.obj
 0001:00070450       _trap_G2API_GetGLAName     30071450 f   cg_syscalls.obj
 0001:00070470       _trap_G2API_GetNumGoreMarks 30071470 f   cg_syscalls.obj
 0001:00070490       _trap_G2API_GetSurfaceRenderStatus 30071490 f   cg_syscalls.obj
 0001:000704b0       _trap_G2API_HasGhoul2ModelOnIndex 300714b0 f   cg_syscalls.obj
 0001:000704d0       _trap_G2API_IKMove         300714d0 f   cg_syscalls.obj
 0001:000704f0       _trap_G2API_InitGhoul2Model 300714f0 f   cg_syscalls.obj
 0001:00070520       _trap_G2API_RagEffectorGoal 30071520 f   cg_syscalls.obj
 0001:00070540       _trap_G2API_RagEffectorKick 30071540 f   cg_syscalls.obj
 0001:00070560       _trap_G2API_RagForceSolve  30071560 f   cg_syscalls.obj
 0001:00070580       _trap_G2API_RagPCJConstraint 30071580 f   cg_syscalls.obj
 0001:000705a0       _trap_G2API_RagPCJGradientSpeed 300715a0 f   cg_syscalls.obj
 0001:000705d0       _trap_G2API_RemoveGhoul2Model 300715d0 f   cg_syscalls.obj
 0001:000705f0       _trap_G2API_SetBoltInfo    300715f0 f   cg_syscalls.obj
 0001:00070610       _trap_G2API_SetBoneAngles  30071610 f   cg_syscalls.obj
 0001:00070650       _trap_G2API_SetBoneAnim    30071650 f   cg_syscalls.obj
 0001:000706a0       _trap_G2API_SetBoneIKState 300716a0 f   cg_syscalls.obj
 0001:000706d0       _trap_G2API_SetNewOrigin   300716d0 f   cg_syscalls.obj
 0001:000706f0       _trap_G2API_SetRagDoll     300716f0 f   cg_syscalls.obj
 0001:00070710       _trap_G2API_SetRootSurface 30071710 f   cg_syscalls.obj
 0001:00070730       _trap_G2API_SetSkin        30071730 f   cg_syscalls.obj
 0001:00070750       _trap_G2API_SetSurfaceOnOff 30071750 f   cg_syscalls.obj
 0001:00070770       _trap_G2API_SkinlessModel  30071770 f   cg_syscalls.obj
 0001:00070790       _trap_G2_HaveWeGhoul2Models 30071790 f   cg_syscalls.obj
 0001:000707b0       _trap_GetCurrentCmdNumber  300717b0 f   cg_syscalls.obj
 0001:000707c0       _trap_GetCurrentSnapshotNumber 300717c0 f   cg_syscalls.obj
 0001:000707e0       _trap_GetDefaultState      300717e0 f   cg_syscalls.obj
 0001:00070800       _trap_GetEntityToken       30071800 f   cg_syscalls.obj
 0001:00070820       _trap_GetGameState         30071820 f   cg_syscalls.obj
 0001:00070840       _trap_GetGlconfig          30071840 f   cg_syscalls.obj
 0001:00070860       _trap_GetServerCommand     30071860 f   cg_syscalls.obj
 0001:00070880       _trap_GetSnapshot          30071880 f   cg_syscalls.obj
 0001:000708a0       _trap_GetUserCmd           300718a0 f   cg_syscalls.obj
 0001:000708c0       _trap_Key_GetCatcher       300718c0 f   cg_syscalls.obj
 0001:000708d0       _trap_Key_SetCatcher       300718d0 f   cg_syscalls.obj
 0001:000708f0       _trap_Language_IsAsian     300718f0 f   cg_syscalls.obj
 0001:00070900       _trap_Language_UsesSpaces  30071900 f   cg_syscalls.obj
 0001:00070910       _trap_Milliseconds         30071910 f   cg_syscalls.obj
 0001:00070920       _trap_OpenUIMenu           30071920 f   cg_syscalls.obj
 0001:00070940       _trap_PC_FreeSource        30071940 f   cg_syscalls.obj
 0001:00070960       _trap_PC_LoadSource        30071960 f   cg_syscalls.obj
 0001:00070980       _trap_PC_ReadToken         30071980 f   cg_syscalls.obj
 0001:000709a0       _trap_PC_SourceFileAndLine 300719a0 f   cg_syscalls.obj
 0001:000709c0       _trap_Print                300719c0 f   cg_syscalls.obj
 0001:000709e0       _trap_ROFF_Clean           300719e0 f   cg_syscalls.obj
 0001:000709f0       _trap_ROFF_Play            300719f0 f   cg_syscalls.obj
 0001:00070a10       _trap_ROFF_UpdateEntities  30071a10 f   cg_syscalls.obj
 0001:00070a20       _trap_R_AddDecalToScene    30071a20 f   cg_syscalls.obj
 0001:00070a90       _trap_R_AddLightToScene    30071a90 f   cg_syscalls.obj
 0001:00070ae0       _trap_R_AddPolyToScene     30071ae0 f   cg_syscalls.obj
 0001:00070b00       _trap_R_AddRefEntityToScene 30071b00 f   cg_syscalls.obj
 0001:00070b20       _trap_R_AutomapElevAdj     30071b20 f   cg_syscalls.obj
 0001:00070b40       _trap_R_ClearDecals        30071b40 f   cg_syscalls.obj
 0001:00070b50       _trap_R_ClearScene         30071b50 f   cg_syscalls.obj
 0001:00070b60       _trap_R_DrawRotatePic      30071b60 f   cg_syscalls.obj
 0001:00070bf0       _trap_R_DrawRotatePic2     30071bf0 f   cg_syscalls.obj
 0001:00070c80       _trap_R_DrawStretchPic     30071c80 f   cg_syscalls.obj
 0001:00070d00       _trap_R_Font_DrawString    30071d00 f   cg_syscalls.obj
 0001:00070d30       _trap_R_Font_HeightPixels  30071d30 f   cg_syscalls.obj
 0001:00070d50       _trap_R_Font_StrLenChars   30071d50 f   cg_syscalls.obj
 0001:00070d70       _trap_R_Font_StrLenPixels  30071d70 f   cg_syscalls.obj
 0001:00070da0       _trap_R_GetBModelVerts     30071da0 f   cg_syscalls.obj
 0001:00070dc0       _trap_R_GetDistanceCull    30071dc0 f   cg_syscalls.obj
 0001:00070de0       _trap_R_GetRealRes         30071de0 f   cg_syscalls.obj
 0001:00070e00       _trap_R_InitWireframeAutomap 30071e00 f   cg_syscalls.obj
 0001:00070e10       _trap_R_LerpTag            30071e10 f   cg_syscalls.obj
 0001:00070e40       _trap_R_LoadWorldMap       30071e40 f   cg_syscalls.obj
 0001:00070e60       _trap_R_ModelBounds        30071e60 f   cg_syscalls.obj
 0001:00070e80       _trap_R_RegisterFont       30071e80 f   cg_syscalls.obj
 0001:00070ea0       _trap_R_RegisterModel      30071ea0 f   cg_syscalls.obj
 0001:00070ec0       _trap_R_RegisterShader     30071ec0 f   cg_syscalls.obj
 0001:00070ee0       _trap_R_RegisterShaderNoMip 30071ee0 f   cg_syscalls.obj
 0001:00070f00       _trap_R_RegisterSkin       30071f00 f   cg_syscalls.obj
 0001:00070f20       _trap_R_RemapShader        30071f20 f   cg_syscalls.obj
 0001:00070f40       _trap_R_RenderScene        30071f40 f   cg_syscalls.obj
 0001:00070f60       _trap_R_SetColor           30071f60 f   cg_syscalls.obj
 0001:00070f80       _trap_R_SetLightStyle      30071f80 f   cg_syscalls.obj
 0001:00070fa0       _trap_R_SetRangeFog        30071fa0 f   cg_syscalls.obj
 0001:00070fc0       _trap_R_SetRefractProp     30071fc0 f   cg_syscalls.obj
 0001:00071000       _trap_R_WeatherContentsOverride 30072000 f   cg_syscalls.obj
 0001:00071020       _trap_R_WorldEffectCommand 30072020 f   cg_syscalls.obj
 0001:00071040       _trap_R_inPVS              30072040 f   cg_syscalls.obj
 0001:00071060       _trap_SP_GetStringTextString 30072060 f   cg_syscalls.obj
 0001:00071080       _trap_S_AddLocalSet        30072080 f   cg_syscalls.obj
 0001:000710a0       _trap_S_AddLoopingSound    300720a0 f   cg_syscalls.obj
 0001:000710c0       _trap_S_AddRealLoopingSound 300720c0 f   cg_syscalls.obj
 0001:000710e0       _trap_S_ClearLoopingSounds 300720e0 f   cg_syscalls.obj
 0001:000710f0       _trap_S_GetVoiceVolume     300720f0 f   cg_syscalls.obj
 0001:00071110       _trap_S_MuteSound          30072110 f   cg_syscalls.obj
 0001:00071130       _trap_S_RegisterSound      30072130 f   cg_syscalls.obj
 0001:00071150       _trap_S_Respatialize       30072150 f   cg_syscalls.obj
 0001:00071170       _trap_S_ShutUp             30072170 f   cg_syscalls.obj
 0001:00071190       _trap_S_StartBackgroundTrack 30072190 f   cg_syscalls.obj
 0001:000711b0       _trap_S_StartLocalSound    300721b0 f   cg_syscalls.obj
 0001:000711d0       _trap_S_StartSound         300721d0 f   cg_syscalls.obj
 0001:000711f0       _trap_S_StopBackgroundTrack 300721f0 f   cg_syscalls.obj
 0001:00071200       _trap_S_UpdateAmbientSet   30072200 f   cg_syscalls.obj
 0001:00071220       _trap_S_UpdateEntityPosition 30072220 f   cg_syscalls.obj
 0001:00071240       _trap_SendClientCommand    30072240 f   cg_syscalls.obj
 0001:00071260       _trap_SendConsoleCommand   30072260 f   cg_syscalls.obj
 0001:00071280       _trap_SetClientForceAngle  30072280 f   cg_syscalls.obj
 0001:000712a0       _trap_SetUserCmdValue      300722a0 f   cg_syscalls.obj
 0001:00071300       _trap_SnapVector           30072300 f   cg_syscalls.obj
 0001:00071320       _trap_TrueFree             30072320 f   cg_syscalls.obj
 0001:00071340       _trap_TrueMalloc           30072340 f   cg_syscalls.obj
 0001:00071360       _trap_UpdateScreen         30072360 f   cg_syscalls.obj
 0001:00071370       _trap_WE_AddWeatherZone    30072370 f   cg_syscalls.obj
 0001:00071390       _CreepToPosition           30072390 f   cg_turret.obj
 0001:000714f0       _TurretClientRun           300724f0 f   cg_turret.obj
 0001:000718a0       _CGCam_SetMusicMult        300728a0 f   cg_view.obj
 0001:000718f0       _CG_AddBufferedSound       300728f0 f   cg_view.obj
 0001:00071930       _CG_AddRadarAutomapEnts    30072930 f   cg_view.obj
 0001:00071d50       _CG_CalcFOVFromX           30072d50 f   cg_view.obj
 0001:000728d0       _CG_CalcVrect              300738d0 f   cg_view.obj
 0001:000729a0       _CG_CheckPassengerTurretView 300739a0 f   cg_view.obj
 0001:00072cd0       _CG_DoCameraShake          30073cd0 f   cg_view.obj
 0001:00072d60       _CG_DrawActiveFrame        30073d60 f   cg_view.obj
 0001:00073410       _CG_DrawAutoMap            30074410 f   cg_view.obj
 0001:00073950       _CG_DrawSkyBoxPortal       30074950 f   cg_view.obj
 0001:00073dc0       _CG_EmplacedView           30074dc0 f   cg_view.obj
 0001:00073e80       _CG_GetVehicleCamPos       30074e80 f   cg_view.obj
 0001:00074c20       _CG_SE_UpdateMusic         30075c20 f   cg_view.obj
 0001:00074d60       _CG_TestGun_f              30075d60 f   cg_view.obj
 0001:00074d80       _CG_TestModelNextFrame_f   30075d80 f   cg_view.obj
 0001:00074da0       _CG_TestModelNextSkin_f    30075da0 f   cg_view.obj
 0001:00074dc0       _CG_TestModelPrevFrame_f   30075dc0 f   cg_view.obj
 0001:00074df0       _CG_TestModelPrevSkin_f    30075df0 f   cg_view.obj
 0001:00074e20       _CG_TestModel_f            30075e20 f   cg_view.obj
 0001:000752f0       _CG_UpdateSoundTrackers    300762f0 f   cg_view.obj
 0001:00075910       _CheckCameraLocation       30076910 f   cg_view.obj
 0001:00075980       _CG_RegisterWeapon         30076980 f   cg_weaponinit.obj
 0001:00076ba0       _CG_AddPlayerWeapon        30077ba0 f   cg_weapons.obj
 0001:000774b0       _CG_AddViewWeapon          300784b0 f   cg_weapons.obj
 0001:00077a40       _CG_CalcMuzzlePoint        30078a40 f   cg_weapons.obj
 0001:00077fb0       _CG_CheckPlayerG2Weapons   30078fb0 f   cg_weapons.obj
 0001:00078290       _CG_CopyG2WeaponInstance   30079290 f   cg_weapons.obj
 0001:00078410       _CG_DrawIconBackground     30079410 f   cg_weapons.obj
 0001:00078560       _CG_DrawWeaponSelect       30079560 f   cg_weapons.obj
 0001:000789a0       _CG_FireWeapon             300799a0 f   cg_weapons.obj
 0001:00078ba0       _CG_G2HolsterWeaponInstance 30079ba0 f   cg_weapons.obj
 0001:00078c20       _CG_G2WeaponInstance       30079c20 f   cg_weapons.obj
 0001:00078c90       _CG_G2WeaponInstance2      30079c90 f   cg_weapons.obj
 0001:00078d00       _CG_GetClientWeaponMuzzleBoltPoint 30079d00 f   cg_weapons.obj
 0001:00078db0       _CG_InitG2Weapons          30079db0 f   cg_weapons.obj
 0001:00079000       _CG_MissileHitPlayer       3007a000 f   cg_weapons.obj
 0001:000791b0       _CG_MissileHitWall         3007a1b0 f   cg_weapons.obj
 0001:00079360       _CG_NextWeapon_f           3007a360 f   cg_weapons.obj
 0001:00079420       _CG_OutOfAmmoChange        3007a420 f   cg_weapons.obj
 0001:00079420       _CG_OwnerDraw              3007a420 f   cg_newDraw.obj
 0001:00079420       _CG_RunMenuScript          3007a420 f   cg_newDraw.obj
 0001:00079420       _BG_ClearAnimsets          3007a420 f   bg_panimate.obj
 0001:00079430       _CG_PrevWeapon_f           3007a430 f   cg_weapons.obj
 0001:000794f0       _CG_RegisterItemVisuals    3007a4f0 f   cg_weapons.obj
 0001:000796a0       _CG_ShutDownG2Weapons      3007a6a0 f   cg_weapons.obj
 0001:000796e0       _CG_VehicleWeaponImpact    3007a6e0 f   cg_weapons.obj
 0001:00079750       _CG_WeaponCheck            3007a750 f   cg_weapons.obj
 0001:000797d0       _CG_WeaponClean_f          3007a7d0 f   cg_weapons.obj
 0001:000799a0       _CG_Weapon_f               3007a9a0 f   cg_weapons.obj
 0001:00079b40       _BG_FighterUpdate          3007ab40 f   FighterNPC.obj
 0001:00079f20       _FighterIsLanded           3007af20 f   FighterNPC.obj
 0001:00079f70       _FighterIsLanding          3007af70 f   FighterNPC.obj
 0001:0007a0b0       _FighterOverValidLandingSurface 3007b0b0 f   FighterNPC.obj
 0001:0007a0f0       _FighterPitchAdjust        3007b0f0 f   FighterNPC.obj
 0001:0007a380       _FighterYawAdjust          3007b380 f   FighterNPC.obj
 0001:0007a450       _G_SetFighterVehicleFunctions 3007b450 f   FighterNPC.obj
 0001:0007b770       _FX_BlasterProjectileThink 3007c770 f   fx_blaster.obj
 0001:0007b7d0       _FX_BlasterWeaponHitPlayer 3007c7d0 f   fx_blaster.obj
 0001:0007b810       _FX_BlasterWeaponHitWall   3007c810 f   fx_blaster.obj
 0001:0007b830       _FX_BowcasterHitWall       3007c830 f   fx_bowcaster.obj
 0001:0007b830       _FX_BowcasterHitPlayer     3007c830 f   fx_bowcaster.obj
 0001:0007b850       _FX_BowcasterProjectileThink 3007c850 f   fx_bowcaster.obj
 0001:0007b850       _FX_BowcasterAltProjectileThink 3007c850 f   fx_bowcaster.obj
 0001:0007b8b0       _FX_BryarAltHitWall        3007c8b0 f   fx_bryarpistol.obj
 0001:0007b930       _FX_BryarAltProjectileThink 3007c930 f   fx_bryarpistol.obj
 0001:0007b9d0       _FX_BryarHitWall           3007c9d0 f   fx_bryarpistol.obj
 0001:0007b9d0       _FX_TurretHitWall          3007c9d0 f   fx_bryarpistol.obj
 0001:0007b9f0       _FX_BryarProjectileThink   3007c9f0 f   fx_bryarpistol.obj
 0001:0007ba50       _FX_ConcAltShot            3007ca50 f   fx_bryarpistol.obj
 0001:0007bb30       _FX_ConcussionHitPlayer    3007cb30 f   fx_bryarpistol.obj
 0001:0007bb30       _FX_ConcussionHitWall      3007cb30 f   fx_bryarpistol.obj
 0001:0007bb50       _FX_ConcussionProjectileThink 3007cb50 f   fx_bryarpistol.obj
 0001:0007bbb0       _FX_BryarAltHitPlayer      3007cbb0 f   fx_bryarpistol.obj
 0001:0007bbb0       _FX_BryarHitPlayer         3007cbb0 f   fx_bryarpistol.obj
 0001:0007bbb0       _FX_TurretHitPlayer        3007cbb0 f   fx_bryarpistol.obj
 0001:0007bbf0       _FX_TurretProjectileThink  3007cbf0 f   fx_bryarpistol.obj
 0001:0007bc50       _FX_DEMP2_AltDetonate      3007cc50 f   fx_demp2.obj
 0001:0007bcf0       _FX_DEMP2_HitPlayer        3007ccf0 f   fx_demp2.obj
 0001:0007bd10       _FX_DEMP2_HitWall          3007cd10 f   fx_demp2.obj
 0001:0007bd30       _FX_DEMP2_ProjectileThink  3007cd30 f   fx_demp2.obj
 0001:0007bd90       _FX_DisruptorAltHit        3007cd90 f   fx_disruptor.obj
 0001:0007bdb0       _FX_DisruptorAltMiss       3007cdb0 f   fx_disruptor.obj
 0001:0007bf70       _FX_DisruptorAltShot       3007cf70 f   fx_disruptor.obj
 0001:0007c070       _FX_DisruptorHitPlayer     3007d070 f   fx_disruptor.obj
 0001:0007c090       _FX_DisruptorHitWall       3007d090 f   fx_disruptor.obj
 0001:0007c0b0       _FX_DisruptorMainShot      3007d0b0 f   fx_disruptor.obj
 0001:0007c120       _FX_FlechetteAltProjectileThink 3007d120 f   fx_flechette.obj
 0001:0007c180       _FX_FlechetteProjectileThink 3007d180 f   fx_flechette.obj
 0001:0007c1e0       _FX_FlechetteWeaponHitPlayer 3007d1e0 f   fx_flechette.obj
 0001:0007c200       _FX_FlechetteWeaponHitWall 3007d200 f   fx_flechette.obj
 0001:0007c420       _FX_RepeaterAltHitPlayer   3007d420 f   fx_heavyrepeater.obj
 0001:0007c420       _FX_RepeaterAltHitWall     3007d420 f   fx_heavyrepeater.obj
 0001:0007c440       _FX_RepeaterAltProjectileThink 3007d440 f   fx_heavyrepeater.obj
 0001:0007c4b0       _FX_RepeaterHitPlayer      3007d4b0 f   fx_heavyrepeater.obj
 0001:0007c4d0       _FX_RepeaterHitWall        3007d4d0 f   fx_heavyrepeater.obj
 0001:0007c4f0       _FX_RepeaterProjectileThink 3007d4f0 f   fx_heavyrepeater.obj
 0001:0007c550       _FX_RocketAltProjectileThink 3007d550 f   fx_rocketlauncher.obj
 0001:0007c550       _FX_RocketProjectileThink  3007d550 f   fx_rocketlauncher.obj
 0001:0007c5b0       _FX_RocketHitPlayer        3007d5b0 f   fx_rocketlauncher.obj
 0001:0007c5b0       _FX_RocketHitWall          3007d5b0 f   fx_rocketlauncher.obj
 0001:0007c5d0       _AngleDelta                3007d5d0 f   q_math.obj
 0001:0007c630       _AngleMod                  3007d630 f   q_math.obj
 0001:0007c630       _AngleNormalize360         3007d630 f   q_math.obj
 0001:0007c670       _AngleNormalize180         3007d670 f   q_math.obj
 0001:0007c6d0       _AngleSubtract             3007d6d0 f   q_math.obj
 0001:0007c750       _AngleVectors              3007d750 f   q_math.obj
 0001:0007c910       _AnglesSubtract            3007d910 f   q_math.obj
 0001:0007ca60       _AnglesToAxis              3007da60 f   q_math.obj
 0001:0007cac0       _AxisClear                 3007dac0 f   q_math.obj
 0001:0007cb10       _AxisCopy                  3007db10 f   q_math.obj
 0001:0007cb50       _ByteToDir                 3007db50 f   q_math.obj
 0001:0007cbd0       _G_FindClosestPointOnLineSegment 3007dbd0 f   q_math.obj
 0001:0007d0c0       _LerpAngle                 3007e0c0 f   q_math.obj
 0001:0007d120       _MatrixMultiply            3007e120 f   q_math.obj
 0001:0007d2b0       _PerpendicularVector       3007e2b0 f   q_math.obj
 0001:0007d470       _Q_fabs                    3007e470 f   q_math.obj
 0001:0007d480       _Q_irand                   3007e480 f   q_math.obj
 0001:0007d4b0       _Q_random                  3007e4b0 f   q_math.obj
 0001:0007d4e0       _RotateAroundDirection     3007e4e0 f   q_math.obj
 0001:0007d740       _RotatePointAroundVector   3007e740 f   q_math.obj
 0001:0007dd00       _ShortestLineSegBewteen2LineSegs 3007ed00 f   q_math.obj
 0001:0007e490       _VectorNormalize           3007f490 f   q_math.obj
 0001:0007e550       _VectorNormalize2          3007f550 f   q_math.obj
 0001:0007e600       _flrand                    3007f600 f   q_math.obj
 0001:0007e660       _vectoangles               3007f660 f   q_math.obj
 0001:0007e7e0       _COM_BeginParseSession     3007f7e0 f   q_shared.obj
 0001:0007e810       _COM_BitCheck              3007f810 f   q_shared.obj
 0001:0007e850       _COM_Compress              3007f850 f   q_shared.obj
 0001:0007e960       _COM_Parse                 3007f960 f   q_shared.obj
 0001:0007e980       _COM_ParseExt              3007f980 f   q_shared.obj
 0001:0007eaf0       _COM_ParseFloat            3007faf0 f   q_shared.obj
 0001:0007eb30       _COM_ParseInt              3007fb30 f   q_shared.obj
 0001:0007eb70       _COM_ParseString           3007fb70 f   q_shared.obj
 0001:0007ebb0       _COM_StripExtension        3007fbb0 f   q_shared.obj
 0001:0007ebe0       _Com_sprintf               3007fbe0 f   q_shared.obj
 0001:0007ec30       _GetIDForString            3007fc30 f   q_shared.obj
 0001:0007ec80       _GetStringForID            3007fc80 f   q_shared.obj
 0001:0007ecc0       _Info_ValueForKey          3007fcc0 f   q_shared.obj
 0001:0007edb0       _Q_CleanStr                3007fdb0 f   q_shared.obj
 0001:0007ee00       _Q_strcat                  3007fe00 f   q_shared.obj
 0001:0007ee90       _Q_stricmp                 3007fe90 f   q_shared.obj
 0001:0007eec0       _Q_stricmpn                3007fec0 f   q_shared.obj
 0001:0007ef40       _Q_strncmp                 3007ff40 f   q_shared.obj
 0001:0007ef90       _Q_strncpyz                3007ff90 f   q_shared.obj
 0001:0007eff0       _Q_strrchr                 3007fff0 f   q_shared.obj
 0001:0007f020       _Q_strupr                  30080020 f   q_shared.obj
 0001:0007f050       _SkipBracedSection         30080050 f   q_shared.obj
 0001:0007f1b0       _SkipRestOfLine            300801b0 f   q_shared.obj
 0001:0007f1e0       _va                        300801e0 f   q_shared.obj
 0001:0007f260       _G_CreateAnimalNPC         30080260 f   AnimalNPC.obj
 0001:0007f260       _G_CreateWalkerNPC         30080260 f   WalkerNPC.obj
 0001:0007f260       _G_CreateSpeederNPC        30080260 f   SpeederNPC.obj
 0001:0007f260       _G_CreateFighterNPC        30080260 f   FighterNPC.obj
 0001:0007f2b0       _G_SetSpeederVehicleFunctions 300802b0 f   SpeederNPC.obj
 0001:0007f5d0       _ProcessOrientCommands     300805d0 f   SpeederNPC.obj
 0001:0007f710       _ItemParse_name            30080710 f   ui_shared.obj
 0001:0007f730       _ItemParse_focusSound      30080730 f   ui_shared.obj
 0001:0007f780       _ItemParse_text            30080780 f   ui_shared.obj
 0001:0007f7a0       _ItemParse_descText        300807a0 f   ui_shared.obj
 0001:0007f7c0       _ItemParse_text2alignx     300807c0 f   ui_shared.obj
 0001:0007f7e0       _ItemParse_text2aligny     300807e0 f   ui_shared.obj
 0001:0007f800       _ItemParse_group           30080800 f   ui_shared.obj
 0001:0007f820       _MenuParse_font            30080820 f   ui_shared.obj
 0001:0007f880       _MenuParse_name            30080880 f   ui_shared.obj
 0001:0007f8c0       _MenuParse_fullscreen      300808c0 f   ui_shared.obj
 0001:0007f8e0       _ItemParse_asset_model     300808e0 f   ui_shared.obj
 0001:0007f910       _MenuParse_rect            30080910 f   ui_shared.obj
 0001:0007f970       _ItemParse_asset_shader    30080970 f   ui_shared.obj
 0001:0007f9c0       _MenuParse_style           300809c0 f   ui_shared.obj
 0001:0007fa00       _ItemParse_model_origin    30080a00 f   ui_shared.obj
 0001:0007fa60       _ItemParse_visible         30080a60 f   ui_shared.obj
 0001:0007fa60       _MenuParse_visible         30080a60 f   ui_shared.obj
 0001:0007faa0       _MenuParse_onOpen          30080aa0 f   ui_shared.obj
 0001:0007fac0       _ItemParse_model_fovy      30080ac0 f   ui_shared.obj
 0001:0007fac0       _ItemParse_elementheight   30080ac0 f   ui_shared.obj
 0001:0007faf0       _MenuParse_onClose         30080af0 f   ui_shared.obj
 0001:0007fb10       _ItemParse_model_rotation  30080b10 f   ui_shared.obj
 0001:0007fb40       _MenuParse_onAccept        30080b40 f   ui_shared.obj
 0001:0007fb60       _ItemParse_model_angle     30080b60 f   ui_shared.obj
 0001:0007fb90       _MenuParse_onESC           30080b90 f   ui_shared.obj
 0001:0007fbb0       _ItemParse_model_g2mins    30080bb0 f   ui_shared.obj
 0001:0007fc10       _MenuParse_border          30080c10 f   ui_shared.obj
 0001:0007fc10       _ItemParse_border          30080c10 f   ui_shared.obj
 0001:0007fc30       _ItemParse_model_g2maxs    30080c30 f   ui_shared.obj
 0001:0007fc90       _ItemParse_model_g2scale   30080c90 f   ui_shared.obj
 0001:0007fcf0       _MenuParse_backcolor       30080cf0 f   ui_shared.obj
 0001:0007fda0       _ItemParse_model_g2skin    30080da0 f   ui_shared.obj
 0001:0007fe00       _MenuParse_descAlignment   30080e00 f   ui_shared.obj
 0001:0007fe40       _ItemParse_model_g2anim    30080e40 f   ui_shared.obj
 0001:0007fee0       _MenuParse_descX           30080ee0 f   ui_shared.obj
 0001:0007ff00       _MenuParse_descY           30080f00 f   ui_shared.obj
 0001:0007ff20       _MenuParse_descScale       30080f20 f   ui_shared.obj
 0001:0007ff40       _MenuParse_descColor       30080f40 f   ui_shared.obj
 0001:00080000       _ItemParse_rectcvar        30081000 f   ui_shared.obj
 0001:00080130       _MenuParse_forecolor       30081130 f   ui_shared.obj
 0001:00080220       _ItemParse_rect            30081220 f   ui_shared.obj
 0001:00080280       _MenuParse_bordercolor     30081280 f   ui_shared.obj
 0001:00080340       _ItemParse_flag            30081340 f   ui_shared.obj
 0001:000803e0       _MenuParse_focuscolor      300813e0 f   ui_shared.obj
 0001:000804a0       _Script_SetColor           300814a0 f   ui_shared.obj
 0001:00080580       _ItemParse_style           30081580 f   ui_shared.obj
 0001:000805c0       _MenuParse_disablecolor    300815c0 f   ui_shared.obj
 0001:00080680       _ItemParse_decoration      30081680 f   ui_shared.obj
 0001:000806a0       _ItemParse_notselectable   300816a0 f   ui_shared.obj
 0001:000806e0       _Script_SetAsset           300816e0 f   ui_shared.obj
 0001:00080710       _ItemParse_scrollhidden    30081710 f   ui_shared.obj
 0001:00080750       _Script_SetBackground      30081750 f   ui_shared.obj
 0001:000807a0       _MenuParse_background      300817a0 f   ui_shared.obj
 0001:000807a0       _ItemParse_background      300817a0 f   ui_shared.obj
 0001:000807f0       _ItemParse_wrapped         300817f0 f   ui_shared.obj
 0001:00080810       _Script_SetItemRectCvar    30081810 f   ui_shared.obj
 0001:00080a00       _ItemParse_autowrapped     30081a00 f   ui_shared.obj
 0001:00080a20       _MenuParse_cinematic       30081a20 f   ui_shared.obj
 0001:00080a20       _ItemParse_cinematic       30081a20 f   ui_shared.obj
 0001:00080a40       _ItemParse_horizontalscroll 30081a40 f   ui_shared.obj
 0001:00080a60       _MenuParse_ownerdrawFlag   30081a60 f   ui_shared.obj
 0001:00080a60       _ItemParse_ownerdrawFlag   30081a60 f   ui_shared.obj
 0001:00080a90       _ItemParse_type            30081a90 f   ui_shared.obj
 0001:00080ad0       _ItemParse_model_fovx      30081ad0 f   ui_shared.obj
 0001:00080ad0       _ItemParse_elementwidth    30081ad0 f   ui_shared.obj
 0001:00080b00       _MenuParse_ownerdraw       30081b00 f   ui_shared.obj
 0001:00080b20       _Script_SetItemBackground  30081b20 f   ui_shared.obj
 0001:00080ba0       _MenuParse_popup           30081ba0 f   ui_shared.obj
 0001:00080bc0       _Script_SetItemText        30081bc0 f   ui_shared.obj
 0001:00080c40       _MenuParse_outOfBounds     30081c40 f   ui_shared.obj
 0001:00080c60       _ItemParse_elementtype     30081c60 f   ui_shared.obj
 0001:00080ca0       _MenuParse_soundLoop       30081ca0 f   ui_shared.obj
 0001:00080ca0       _ItemParse_text2           30081ca0 f   ui_shared.obj
 0001:00080cc0       _MenuParse_fadeClamp       30081cc0 f   ui_shared.obj
 0001:00080ce0       _ItemParse_columns         30081ce0 f   ui_shared.obj
 0001:00080da0       _Script_SetTeamColor       30081da0 f   ui_shared.obj
 0001:00080de0       _Script_SetItemColor       30081de0 f   ui_shared.obj
 0001:00080f50       _ItemParse_align           30081f50 f   ui_shared.obj
 0001:00080f50       _MenuParse_fadeCycle       30081f50 f   ui_shared.obj
 0001:00080f70       _MenuParse_itemDef         30081f70 f   ui_shared.obj
 0001:00081040       _ItemParse_bordersize      30082040 f   ui_shared.obj
 0001:00081040       _MenuParse_borderSize      30082040 f   ui_shared.obj
 0001:00081060       _MenuParse_appearanceIncrement 30082060 f   ui_shared.obj
 0001:00081080       _ItemParse_ownerdraw       30082080 f   ui_shared.obj
 0001:000810b0       _Script_SetItemColorCvar   300820b0 f   ui_shared.obj
 0001:00081300       _ItemParse_isCharacter     30082300 f   ui_shared.obj
 0001:00081350       _ItemParse_textalign       30082350 f   ui_shared.obj
 0001:00081390       _ItemParse_textalignx      30082390 f   ui_shared.obj
 0001:00081390       _MenuParse_fadeAmount      30082390 f   ui_shared.obj
 0001:000813b0       _ItemParse_textaligny      300823b0 f   ui_shared.obj
 0001:000813d0       _ItemParse_textscale       300823d0 f   ui_shared.obj
 0001:000813f0       _ItemParse_textstyle       300823f0 f   ui_shared.obj
 0001:00081410       _Script_SetItemRect        30082410 f   ui_shared.obj
 0001:000814e0       _ItemParse_invertyesno     300824e0 f   ui_shared.obj
 0001:00081500       _ItemParse_xoffset         30082500 f   ui_shared.obj
 0001:00081520       _ItemParse_backcolor       30082520 f   ui_shared.obj
 0001:000815d0       _ItemParse_forecolor       300825d0 f   ui_shared.obj
 0001:000816c0       _ItemParse_bordercolor     300826c0 f   ui_shared.obj
 0001:00081780       _MenuParse_outlinecolor    30082780 f   ui_shared.obj
 0001:00081780       _ItemParse_outlinecolor    30082780 f   ui_shared.obj
 0001:000817a0       _ItemParse_doubleClick     300827a0 f   ui_shared.obj
 0001:000817e0       _ItemParse_onFocus         300827e0 f   ui_shared.obj
 0001:00081800       _ItemParse_leaveFocus      30082800 f   ui_shared.obj
 0001:00081820       _ItemParse_mouseEnter      30082820 f   ui_shared.obj
 0001:00081840       _ItemParse_mouseExit       30082840 f   ui_shared.obj
 0001:00081860       _Script_Show               30082860 f   ui_shared.obj
 0001:000818b0       _ItemParse_mouseEnterText  300828b0 f   ui_shared.obj
 0001:000818d0       _Script_Hide               300828d0 f   ui_shared.obj
 0001:00081920       _ItemParse_mouseExitText   30082920 f   ui_shared.obj
 0001:00081940       _ItemParse_action          30082940 f   ui_shared.obj
 0001:00081960       _Script_FadeIn             30082960 f   ui_shared.obj
 0001:000819b0       _ItemParse_feeder          300829b0 f   ui_shared.obj
 0001:000819b0       _ItemParse_special         300829b0 f   ui_shared.obj
 0001:000819d0       _Script_FadeOut            300829d0 f   ui_shared.obj
 0001:00081a20       _ItemParse_cvarTest        30082a20 f   ui_shared.obj
 0001:00081a40       _Script_Open               30082a40 f   ui_shared.obj
 0001:00081a80       _ItemParse_cvar            30082a80 f   ui_shared.obj
 0001:00081b00       _Script_Close              30082b00 f   ui_shared.obj
 0001:00081b60       _ItemParse_font            30082b60 f   ui_shared.obj
 0001:00081b90       _ItemParse_maxChars        30082b90 f   ui_shared.obj
 0001:00081be0       _ItemParse_maxPaintChars   30082be0 f   ui_shared.obj
 0001:00081c30       _ItemParse_maxLineChars    30082c30 f   ui_shared.obj
 0001:00081c80       _ItemParse_lineHeight      30082c80 f   ui_shared.obj
 0001:00081cd0       _ItemParse_cvarInt         30082cd0 f   ui_shared.obj
 0001:00081d60       _ItemParse_cvarFloat       30082d60 f   ui_shared.obj
 0001:00081de0       _Script_Defer              30082de0 f   ui_shared.obj
 0001:00081e30       _Script_RunDeferred        30082e30 f   ui_shared.obj
 0001:00081e60       _ItemParse_cvarStrList     30082e60 f   ui_shared.obj
 0001:00081fb0       _Script_Transition         30082fb0 f   ui_shared.obj
 0001:00082070       _ItemParse_cvarFloatList   30083070 f   ui_shared.obj
 0001:00082190       _ItemParse_addColorRange   30083190 f   ui_shared.obj
 0001:00082220       _Script_Disable            30083220 f   ui_shared.obj
 0001:000822c0       _ItemParse_enableCvar      300832c0 f   ui_shared.obj
 0001:00082300       _Script_Scale              30083300 f   ui_shared.obj
 0001:00082460       _ItemParse_disableCvar     30083460 f   ui_shared.obj
 0001:000824a0       _ItemParse_showCvar        300834a0 f   ui_shared.obj
 0001:000824e0       _ItemParse_hideCvar        300834e0 f   ui_shared.obj
 0001:00082520       _Script_Orbit              30083520 f   ui_shared.obj
 0001:00082640       _ItemParse_cvarSubString   30083640 f   ui_shared.obj
 0001:00082660       _ItemParse_Appearance_slot 30083660 f   ui_shared.obj
 0001:00082680       _Script_SetFocus           30083680 f   ui_shared.obj
 0001:00082730       _Script_SetPlayerModel     30083730 f   ui_shared.obj
 0001:00082780       _Script_Transition2        30083780 f   ui_shared.obj
 0001:00082850       _Script_SetCvar            30083850 f   ui_shared.obj
 0001:000828d0       _Script_SetCvarToCvar      300838d0 f   ui_shared.obj
 0001:00082980       _Script_Exec               30083980 f   ui_shared.obj
 0001:00082a70       _Script_Play               30083a70 f   ui_shared.obj
 0001:00082ad0       _Script_PlayVoice          30083ad0 f   ui_shared.obj
 0001:00082b30       _Script_playLooped         30083b30 f   ui_shared.obj
 0001:00082ba0       _BindingIDFromName         30083ba0 f   ui_shared.obj
 0001:00082be0       _Color_Parse               30083be0 f   ui_shared.obj
 0001:00082c30       _Controls_GetConfig        30083c30 f   ui_shared.obj
 0001:00082ce0       _Controls_SetConfig        30083ce0 f   ui_shared.obj
 0001:00082d30       _Display_CaptureItem       30083d30 f   ui_shared.obj
 0001:00082ea0       _Display_CursorType        30083ea0 f   ui_shared.obj
 0001:00082f30       _Display_HandleKey         30083f30 f   ui_shared.obj
 0001:00082f60       _Display_MouseMove         30083f60 f   ui_shared.obj
 0001:00083060       _Float_Parse               30084060 f   ui_shared.obj
 0001:000830a0       _Init_Display              300840a0 f   ui_shared.obj
 0001:000830b0       _Int_Parse                 300840b0 f   ui_shared.obj
 0001:000830f0       _IsForceRank               300840f0 f   ui_shared.obj
 0001:00083120       _IsVisible                 30084120 f   ui_shared.obj
 0001:00083140       _Item_Action               30084140 f   ui_shared.obj
 0001:00083160       _Item_Bind_HandleKey       30084160 f   ui_shared.obj
 0001:00083430       _Item_EnableShowViaCvar    30084430 f   ui_shared.obj
 0001:000835a0       _Item_HandleAccept         300845a0 f   ui_shared.obj
 0001:000835d0       _Item_HandleKey            300845d0 f   ui_shared.obj
 0001:00083730       _Item_Init                 30084730 f   ui_shared.obj
 0001:00083790       _Item_ListBox_HandleKey    30084790 f   ui_shared.obj
 0001:00083be0       _Item_ListBox_MouseEnter   30084be0 f   ui_shared.obj
 0001:00083dc0       _Item_ListBox_OverLB       30084dc0 f   ui_shared.obj
 0001:00084220       _Item_ListBox_ThumbPosition 30085220 f   ui_shared.obj
 0001:00084350       _Item_MouseEnter           30085350 f   ui_shared.obj
 0001:00084500       _Item_MouseLeave           30085500 f   ui_shared.obj
 0001:00084540       _Item_Multi_FindCvarByValue 30085540 f   ui_shared.obj
 0001:00084620       _Item_Multi_HandleKey      30085620 f   ui_shared.obj
 0001:000847d0       _Item_OwnerDraw_HandleKey  300857d0 f   ui_shared.obj
 0001:00084890       _Item_Parse                30085890 f   ui_shared.obj
 0001:000849e0       _Item_RunScript            300859e0 f   ui_shared.obj
 0001:00084ad0       _Item_SetFocus             30085ad0 f   ui_shared.obj
 0001:00084bf0       _Item_SetScreenCoords      30085bf0 f   ui_shared.obj
 0001:00084c90       _Item_SetupKeywordHash     30085c90 f   ui_shared.obj
 0001:00084d40       _Item_Slider_HandleKey     30085d40 f   ui_shared.obj
 0001:00084ef0       _Item_Slider_ThumbPosition 30085ef0 f   ui_shared.obj
 0001:00084fb0       _Item_StartCapture         30085fb0 f   ui_shared.obj
 0001:00085270       _Item_TextField_HandleKey  30086270 f   ui_shared.obj
 0001:00085940       _Item_TextScroll_HandleKey 30086940 f   ui_shared.obj
 0001:00085ab0       _Item_TextScroll_OverLB    30086ab0 f   ui_shared.obj
 0001:00085ca0       _Item_ValidateTypeData     30086ca0 f   ui_shared.obj
 0001:00085db0       _Item_YesNo_HandleKey      30086db0 f   ui_shared.obj
 0001:00085ea0       _Leaving_EditField         30086ea0 f   ui_shared.obj
 0001:00085ed0       _Menu_ClearFocus           30086ed0 f   ui_shared.obj
 0001:00086020       _Menu_FadeItemByName       30087020 f   ui_shared.obj
 0001:00086080       _Menu_FindItemByName       30087080 f   ui_shared.obj
 0001:000860e0       _Menu_GetFocused           300870e0 f   ui_shared.obj
 0001:00086120       _Menu_GetMatchingItemByNumber 30087120 f   ui_shared.obj
 0001:000861a0       _Menu_HandleKey            300871a0 f   ui_shared.obj
 0001:000866d0       _Menu_HandleMouseMove      300876d0 f   ui_shared.obj
 0001:000868d0       _Menu_Init                 300878d0 f   ui_shared.obj
 0001:00086960       _Menu_ItemDisable          30087960 f   ui_shared.obj
 0001:000869b0       _Menu_ItemsMatchingGroup   300879b0 f   ui_shared.obj
 0001:00086a30       _Menu_New                  30087a30 f   ui_shared.obj
 0001:00086aa0       _Menu_OrbitItemByName      30087aa0 f   ui_shared.obj
 0001:00086c80       _Menu_Parse                30087c80 f   ui_shared.obj
 0001:00086dd0       _Menu_Reset                30087dd0 f   ui_shared.obj
 0001:00086de0       _Menu_ScrollFeeder         30087de0 f   ui_shared.obj
 0001:00087230       _Menu_SetFeederSelection   30088230 f   ui_shared.obj
 0001:00087300       _Menu_SetItemBackground    30088300 f   ui_shared.obj
 0001:00087360       _Menu_SetItemText          30088360 f   ui_shared.obj
 0001:00087420       _Menu_SetNextCursorItem    30088420 f   ui_shared.obj
 0001:00087520       _Menu_SetPrevCursorItem    30088520 f   ui_shared.obj
 0001:00087620       _Menu_SetupKeywordHash     30088620 f   ui_shared.obj
 0001:000876d0       _Menu_ShowItemByName       300886d0 f   ui_shared.obj
 0001:00087740       _Menu_TransitionItemByName 30088740 f   ui_shared.obj
 0001:000878a0       _Menu_UpdatePosition       300888a0 f   ui_shared.obj
 0001:000879b0       _Menus_ActivateByName      300889b0 f   ui_shared.obj
 0001:00087ad0       _Menus_CloseAll            30088ad0 f   ui_shared.obj
 0001:00087b60       _Menus_CloseByName         30088b60 f   ui_shared.obj
 0001:00087be0       _Menus_FindByName          30088be0 f   ui_shared.obj
 0001:00087c30       _Menus_HandleOOBClick      30088c30 f   ui_shared.obj
 0001:00087e00       _PC_Color_Parse            30088e00 f   ui_shared.obj
 0001:00087ea0       _PC_Float_Parse            30088ea0 f   ui_shared.obj
 0001:00087f40       _PC_Int_Parse              30088f40 f   ui_shared.obj
 0001:00087fd0       _PC_Script_Parse           30088fd0 f   ui_shared.obj
 0001:000880e0       _PC_SourceError            300890e0 f   ui_shared.obj
 0001:00088140       _PC_String_Parse           30089140 f   ui_shared.obj
 0001:000881b0       _ParseRect                 300891b0 f   ui_shared.obj
 0001:00088210       _Rect_ContainsPoint        30089210 f   ui_shared.obj
 0001:00088260       _Rect_Parse                30089260 f   ui_shared.obj
 0001:00088940       _String_Alloc              30089940 f   ui_shared.obj
 0001:00088a50       _String_Init               30089a50 f   ui_shared.obj
 0001:00088aa0       _String_Parse              30089aa0 f   ui_shared.obj
 0001:00088ae0       _UI_Alloc                  30089ae0 f   ui_shared.obj
 0001:00088b40       _UI_CleanupGhoul2          30089b40 f   ui_shared.obj
 0001:00088bd0       _G_SetWalkerVehicleFunctions 30089bd0 f   WalkerNPC.obj
 0001:00088ec0       _WalkerYawAdjust           30089ec0 f   WalkerNPC.obj
 0001:00089020       _memset                    3008a020 f   LIBCMT:memset.obj
 0001:000890b0       __fpmath                   3008a0b0 f   LIBCMT:fpinit.obj
 0001:000890c7       __cfltcvt_init             3008a0c7 f   LIBCMT:fpinit.obj
 0001:00089127       ??0_LocaleUpdate@@QAE@PAUlocaleinfo_struct@@@Z 3008a127 f i LIBCMT:atof.obj
 0001:000891af       __atof_l                   3008a1af f   LIBCMT:atof.obj
 0001:0008924d       _atof                      3008a24d f   LIBCMT:atof.obj
 0001:0008925e       _sscanf                    3008a25e f   LIBCMT:sscanf.obj
 0001:000892f0       _strchr                    3008a2f0 f   LIBCMT:strchr.obj
 0001:0008935e       ___from_strstr_to_strchr   3008a35e     LIBCMT:strchr.obj
 0001:0008941b       _atoi                      3008a41b f   LIBCMT:atox.obj
 0001:00089424       _atol                      3008a424 f   LIBCMT:atox.obj
 0001:00089440       _atan2                     3008a440 f   LIBCMT:87ctriga.obj
 0001:0008944a       __CIatan2                  3008a44a f   LIBCMT:87ctriga.obj
 0001:00089460       __libm_sse2_cos_precise    3008a460 f   LIBCMT:cos_sse2_precise.obj
 0001:00089620       __libm_sse2_sin_precise    3008a620 f   LIBCMT:sin_sse2_precise.obj
 0001:000897f0       _strstr                    3008a7f0 f   LIBCMT:strstr.obj
 0001:00089a60       __chkstk                   3008aa60 f   LIBCMT:chkstk.obj
 0001:00089a60       __alloca_probe             3008aa60 f   LIBCMT:chkstk.obj
 0001:00089a90       __ftol2_sse                3008aa90 f   LIBCMT:ftol2.obj
 0001:00089a99       __ftol2_pentium4           3008aa99 f   LIBCMT:ftol2.obj
 0001:00089aac       __ftol2_sse_excpt          3008aaac f   LIBCMT:ftol2.obj
 0001:00089ac6       __ftol2                    3008aac6 f   LIBCMT:ftol2.obj
 0001:00089b40       _ceil                      3008ab40 f   LIBCMT:ceil_pentium4.obj
 0001:00089b80       __ceil_pentium4            3008ab80 f   LIBCMT:ceil_pentium4.obj
 0001:00089c60       _floor                     3008ac60 f   LIBCMT:floor_pentium4.obj
 0001:00089ca0       __floor_pentium4           3008aca0 f   LIBCMT:floor_pentium4.obj
 0001:00089d90       __libm_sse2_sqrt_precise   3008ad90 f   LIBCMT:sqrt_sse2_precise.obj
 0001:00089e90       _strncmp                   3008ae90 f   LIBCMT:strncmp.obj
 0001:00089f08       _rand                      3008af08 f   LIBCMT:rand.obj
 0001:00089f29       __isdigit_l                3008af29 f i LIBCMT:_ctype.obj
 0001:00089f7b       __isspace_l                3008af7b f i LIBCMT:_ctype.obj
 0001:00089fcd       __isxdigit_l               3008afcd f i LIBCMT:_ctype.obj
 0001:0008a025       _isdigit                   3008b025 f i LIBCMT:_ctype.obj
 0001:0008a050       _isspace                   3008b050 f i LIBCMT:_ctype.obj
 0001:0008a07b       _isxdigit                  3008b07b f i LIBCMT:_ctype.obj
 0001:0008a0a8       _sprintf                   3008b0a8 f   LIBCMT:sprintf.obj
 0001:0008a12c       __vsprintf_l               3008b12c f   LIBCMT:vsprintf.obj
 0001:0008a1b0       _vsprintf                  3008b1b0 f   LIBCMT:vsprintf.obj
 0001:0008a1d0       _memcpy                    3008b1d0 f   LIBCMT:memcpy.obj
 0001:0008a820       _strrchr                   3008b820 f   LIBCMT:strrchr.obj
 0001:0008a957       __strtod_l                 3008b957 f   LIBCMT:strtod.obj
 0001:0008aa6e       _strtod                    3008ba6e f   LIBCMT:strtod.obj
 0001:0008aa90       __libm_sse2_acos_precise   3008ba90 f   LIBCMT:acos_sse2_precise.obj
 0001:0008afb0       _strncpy                   3008bfb0 f   LIBCMT:strncpy.obj
 0001:0008b0e0       __libm_sse2_pow_precise    3008c0e0 f   LIBCMT:pow_sse2_precise.obj
 0001:0008bc50       __libm_sse2_tan_precise    3008cc50 f   LIBCMT:tan_sse2_precise.obj
 0001:0008bec0       _fmod                      3008cec0 f   LIBCMT:87fmod.obj
 0001:0008beca       __CIfmod                   3008ceca f   LIBCMT:87fmod.obj
 0001:0008bee2       __vsnprintf                3008cee2 f   LIBCMT:vsnprint.obj
 0001:0008befd       __vsnprintf_l              3008cefd f   LIBCMT:vsnprint.obj
 0001:0008bfa9       __toupper_l                3008cfa9 f   LIBCMT:toupper.obj
 0001:0008c0ed       _toupper                   3008d0ed f   LIBCMT:toupper.obj
 0001:0008c119       __tolower_l                3008d119 f   LIBCMT:tolower.obj
 0001:0008c25c       _tolower                   3008d25c f   LIBCMT:tolower.obj
 0001:0008c290       _memmove                   3008d290 f   LIBCMT:memmove.obj
 0001:0008c8d4       __CRT_INIT@12              3008d8d4 f   LIBCMT:dllcrt0.obj
 0001:0008ca46       __DllMainCRTStartup@12     3008da46 f   LIBCMT:dllcrt0.obj
 0001:0008cb77       ___DllXcptFilter           3008db77 f   LIBCMT:dllcrt0.obj
 0001:0008cb9c       __VEC_memset               3008db9c f   LIBCMT:p4_memset.obj
 0001:0008cc64       ___isa_available_init      3008dc64 f   LIBCMT:cpu_disp.obj
 0001:0008cddd       __cfltcvt                  3008dddd f   LIBCMT:cvt.obj
 0001:0008cdfe       __cfltcvt_l                3008ddfe f   LIBCMT:cvt.obj
 0001:0008ce84       __cftoa_l                  3008de84 f   LIBCMT:cvt.obj
 0001:0008d1e0       __cftoe                    3008e1e0 f   LIBCMT:cvt.obj
 0001:0008d34f       __cftoe_l                  3008e34f f   LIBCMT:cvt.obj
 0001:0008d509       __cftof_l                  3008e509 f   LIBCMT:cvt.obj
 0001:0008d5ca       __cftog_l                  3008e5ca f   LIBCMT:cvt.obj
 0001:0008d6c9       __cropzeros                3008e6c9 f   LIBCMT:cvt.obj
 0001:0008d6da       __cropzeros_l              3008e6da f   LIBCMT:cvt.obj
 0001:0008d75a       __fassign                  3008e75a f   LIBCMT:cvt.obj
 0001:0008d772       __fassign_l                3008e772 f   LIBCMT:cvt.obj
 0001:0008d7b4       __forcdecpt                3008e7b4 f   LIBCMT:cvt.obj
 0001:0008d7c5       __forcdecpt_l              3008e7c5 f   LIBCMT:cvt.obj
 0001:0008d839       __positive                 3008e839 f   LIBCMT:cvt.obj
 0001:0008d87b       __setdefaultprecision      3008e87b f   LIBCMT:fp8.obj
 0001:0008d8a2       __initp_misc_cfltcvt_tab   3008e8a2 f   LIBCMT:cmiscdat.obj
 0001:0008d8c1       __call_reportfault         3008e8c1 f   LIBCMT:invarg.obj
 0001:0008d9e6       __initp_misc_invarg        3008e9e6 f   LIBCMT:invarg.obj
 0001:0008d9f3       __invalid_parameter        3008e9f3 f   LIBCMT:invarg.obj
 0001:0008da1e       __invalid_parameter_noinfo 3008ea1e f   LIBCMT:invarg.obj
 0001:0008da2e       __invoke_watson            3008ea2e f   LIBCMT:invarg.obj
 0001:0008da59       ___doserrno                3008ea59 f   LIBCMT:dosmap.obj
 0001:0008da6c       __dosmaperr                3008ea6c f   LIBCMT:dosmap.obj
 0001:0008da8d       __errno                    3008ea8d f   LIBCMT:dosmap.obj
 0001:0008daa0       __get_errno_from_oserr     3008eaa0 f   LIBCMT:dosmap.obj
 0001:0008dae1       __fltin2                   3008eae1 f   LIBCMT:cfin.obj
 0001:0008db88       ___strgtold12_l            3008eb88 f   LIBCMT:strgtold.obj
 0001:0008e330       ___addlocaleref            3008f330 f   LIBCMT:localref.obj
 0001:0008e3c5       ___freetlocinfo            3008f3c5 f   LIBCMT:localref.obj
 0001:0008e51f       ___removelocaleref         3008f51f f   LIBCMT:localref.obj
 0001:0008e5bf       ___updatetlocinfo          3008f5bf f   LIBCMT:localref.obj
 0001:0008e63f       __updatetlocinfoEx_nolock  3008f63f f   LIBCMT:localref.obj
 0001:0008e68a       ___initmbctable            3008f68a f   LIBCMT:mbctype.obj
 0001:0008e941       ___updatetmbcinfo          3008f941 f   LIBCMT:mbctype.obj
 0001:0008e9e7       __setmbcp                  3008f9e7 f   LIBCMT:mbctype.obj
 0001:0008eb8f       __setmbcp_nolock           3008fb8f f   LIBCMT:mbctype.obj
 0001:0008ed7a       __isctype_l                3008fd7a f   LIBCMT:isctype.obj
 0001:0008ee2b       __freefls@4                3008fe2b f   LIBCMT:tidtable.obj
 0001:0008ef60       __freeptd                  3008ff60 f   LIBCMT:tidtable.obj
 0001:0008ef96       __getptd                   3008ff96 f   LIBCMT:tidtable.obj
 0001:0008efae       __getptd_noexit            3008ffae f   LIBCMT:tidtable.obj
 0001:0008f01d       __initptd                  3009001d f   LIBCMT:tidtable.obj
 0001:0008f0d0       __mtinit                   300900d0 f   LIBCMT:tidtable.obj
 0001:0008f146       __mtterm                   30090146 f   LIBCMT:tidtable.obj
 0001:0008f163       @__security_check_cookie@4 30090163 f   LIBCMT:secchk.obj
 0001:0008f180       _strlen                    30090180 f   LIBCMT:strlen.obj
 0001:0008f2ad       __input_l                  300902ad f   LIBCMT:input.obj
 0001:00090650       _strtol                    30091650 f   LIBCMT:strtol.obj
 0001:0009069c       __fFATN2                   3009169c     LIBCMT:87triga.obj
 0001:000906ec       __rtpiby2                  300916ec     LIBCMT:87triga.obj
 0001:00090730       __cintrindisp2             30091730 f   LIBCMT:87cdisp.obj
 0001:0009076e       __cintrindisp1             3009176e f   LIBCMT:87cdisp.obj
 0001:000907ab       __ctrandisp2               300917ab f   LIBCMT:87cdisp.obj
 0001:0009093a       __ctrandisp1               3009193a f   LIBCMT:87cdisp.obj
 0001:0009096d       __fload                    3009196d f   LIBCMT:87cdisp.obj
 0001:000909b0       _cos                       300919b0 f   LIBCMT:cos.obj
 0001:000909f0       __CIcos                    300919f0 f   LIBCMT:cos.obj
 0001:00090a2b       __CIcos_default            30091a2b f   LIBCMT:cos.obj
 0001:00090a3f       __cos_default              30091a3f     LIBCMT:cos.obj
 0001:00090ae0       _sin                       30091ae0 f   LIBCMT:sin.obj
 0001:00090b20       __CIsin                    30091b20 f   LIBCMT:sin.obj
 0001:00090b5b       __CIsin_default            30091b5b f   LIBCMT:sin.obj
 0001:00090b6f       __sin_default              30091b6f     LIBCMT:sin.obj
 0001:00090c09       ___libm_error_support      30091c09 f   LIBCMT:libm_error.obj
 0001:00090ef1       __sse2_mathfcns_init       30091ef1 f   LIBCMT:mathfcns.obj
 0001:00090f00       __ceil_default             30091f00 f   LIBCMT:ceil.obj
 0001:00090fd7       __floor_default            30091fd7 f   LIBCMT:floor.obj
 0001:000910b0       __CIsqrt                   300920b0 f   LIBCMT:sqrt.obj
 0001:000910c4       _sqrt                      300920c4     LIBCMT:sqrt.obj
 0001:0009116a       __locterm                  3009216a f   LIBCMT:wsetloca.obj
 0001:000911bc       __flsbuf                   300921bc f   LIBCMT:_flsbuf.obj
 0001:0009130b       __output_l                 3009230b f   LIBCMT:output.obj
 0001:00091f80       _acos                      30092f80 f   LIBCMT:acos.obj
 0001:00091fc0       __CIacos                   30092fc0 f   LIBCMT:acos.obj
 0001:00091ffb       __CIacos_default           30092ffb f   LIBCMT:acos.obj
 0001:0009200f       __acos_default             3009300f     LIBCMT:acos.obj
 0001:000920d0       _pow                       300930d0 f   LIBCMT:pow.obj
 0001:00092110       __CIpow                    30093110 f   LIBCMT:pow.obj
 0001:0009214b       __CIpow_default            3009314b f   LIBCMT:pow.obj
 0001:00092164       __pow_default              30093164     LIBCMT:pow.obj
 0001:00092360       _tan                       30093360 f   LIBCMT:tan.obj
 0001:000923a0       __CItan                    300933a0 f   LIBCMT:tan.obj
 0001:000923db       __CItan_default            300933db f   LIBCMT:tan.obj
 0001:000923ef       __tan_default              300933ef     LIBCMT:tan.obj
 0001:00092490       __trandisp1                30093490 f   LIBCMT:87disp.obj
 0001:000924f7       __trandisp2                300934f7 f   LIBCMT:87disp.obj
 0001:00092583       __rttospopde               30093583     LIBCMT:87disp.obj
 0001:00092588       __rttospop                 30093588     LIBCMT:87disp.obj
 0001:0009258a       __rtnospop                 3009358a     LIBCMT:87disp.obj
 0001:0009258c       __rttosnpop                3009358c     LIBCMT:87disp.obj
 0001:0009258d       __rtnospopde               3009358d     LIBCMT:87disp.obj
 0001:00092594       __rtzeropop                30093594     LIBCMT:87disp.obj
 0001:00092596       __rtzeronpop               30093596     LIBCMT:87disp.obj
 0001:0009259b       __rtonepop                 3009359b     LIBCMT:87disp.obj
 0001:0009259d       __rtonenpop                3009359d     LIBCMT:87disp.obj
 0001:000925a2       __tosnan1                  300935a2     LIBCMT:87disp.obj
 0001:000925cd       __nosnan2                  300935cd     LIBCMT:87disp.obj
 0001:000925cf       __tosnan2                  300935cf     LIBCMT:87disp.obj
 0001:000925f7       __nan2                     300935f7     LIBCMT:87disp.obj
 0001:00092636       __rtindfpop                30093636     LIBCMT:87disp.obj
 0001:00092638       __rtindfnpop               30093638     LIBCMT:87disp.obj
 0001:00092649       __rttosnpopde              30093649     LIBCMT:87disp.obj
 0001:00092653       __rtchsifneg               30093653     LIBCMT:87disp.obj
 0001:0009265a       __isleadbyte_l             3009365a f i LIBCMT:_wctype.obj
 0001:00092694       _isleadbyte                30093694 f i LIBCMT:_wctype.obj
 0001:000928a9       ___crtLCMapStringA         300938a9 f   LIBCMT:a_map.obj
 0001:000928ef       __freea                    300938ef f i LIBCMT:a_map.obj
 0001:0009290d       __XcptFilter               3009390d f   LIBCMT:winxfltr.obj
 0001:00092a68       ___CppXcptFilter           30093a68 f   LIBCMT:winxfltr.obj
 0001:00092a86       ___crtCorExitProcess       30093a86 f   LIBCMT:crt0dat.obj
 0001:00092aba       ___crtExitProcess          30093aba f   LIBCMT:crt0dat.obj
 0001:00092ad0       ___freeCrtMemory           30093ad0 f   LIBCMT:crt0dat.obj
 0001:00092bdd       __amsg_exit                30093bdd f   LIBCMT:crt0dat.obj
 0001:00092bf9       __cexit                    30093bf9 f   LIBCMT:crt0dat.obj
 0001:00092c08       __cinit                    30093c08 f   LIBCMT:crt0dat.obj
 0001:00092c8c       __exit                     30093c8c f   LIBCMT:crt0dat.obj
 0001:00092ca0       __init_pointers            30093ca0 f   LIBCMT:crt0dat.obj
 0001:00092d0e       __initterm_e               30093d0e f   LIBCMT:crt0dat.obj
 0001:00092d30       __lockexit                 30093d30 f   LIBCMT:crt0dat.obj
 0001:00092d39       __unlockexit               30093d39 f   LIBCMT:crt0dat.obj
 0001:00092e71       __heap_init                30093e71 f   LIBCMT:heapinit.obj
 0001:00092e86       __heap_term                30093e86 f   LIBCMT:heapinit.obj
 0001:00092e8e       __ioinit                   30093e8e f   LIBCMT:ioinit.obj
 0001:00093142       __ioterm                   30094142 f   LIBCMT:ioinit.obj
 0001:00093194       __setargv                  30094194 f   LIBCMT:stdargv.obj
 0001:000933c3       __setenvp                  300943c3 f   LIBCMT:stdenvp.obj
 0001:000934a4       _free                      300944a4 f   LIBCMT:free.obj
 0001:000934dc       ___security_init_cookie    300944dc f   LIBCMT:gs_support.obj
 0001:00093578       _DllMain@12                30094578 f   LIBCMT:dllmain.obj
 0001:0009357e       ___crtGetEnvironmentStringsA 3009457e f   LIBCMT:a_env.obj
 0001:0009360b       ___crtFlsAlloc             3009460b f   LIBCMT:winapisupp.obj
 0001:00093629       ___crtFlsFree              30094629 f   LIBCMT:winapisupp.obj
 0001:00093648       ___crtFlsGetValue          30094648 f   LIBCMT:winapisupp.obj
 0001:00093667       ___crtFlsSetValue          30094667 f   LIBCMT:winapisupp.obj
 0001:00093689       ___crtInitializeCriticalSectionEx 30094689 f   LIBCMT:winapisupp.obj
 0001:000936b7       ___crtIsPackagedApp        300946b7 f   LIBCMT:winapisupp.obj
 0001:000936f7       ___crtLoadWinApiPointers   300946f7 f   LIBCMT:winapisupp.obj
 0001:00093982       ___crtSleep                30094982 f   LIBCMT:winapisupp.obj
 0001:00093990       ___crtTerminateProcess     30094990 f   LIBCMT:winapisupp.obj
 0001:000939a5       ___crtUnhandledException   300949a5 f   LIBCMT:winapisupp.obj
 0001:000939bb       __calloc_crt               300949bb f   LIBCMT:crtheap.obj
 0001:00093a03       __malloc_crt               30094a03 f   LIBCMT:crtheap.obj
 0001:00093a4a       __realloc_crt              30094a4a f   LIBCMT:crtheap.obj
 0001:00093a94       __recalloc_crt             30094a94 f   LIBCMT:crtheap.obj
 0001:00093ae2       __RTC_Initialize           30094ae2 f   LIBCMT:initsect.obj
 0001:00093b02       __RTC_Terminate            30094b02 f   LIBCMT:initsect.obj
 0001:00093b30       __SEH_prolog4              30094b30 f   LIBCMT:sehprolg4.obj
 0001:00093b75       __SEH_epilog4              30094b75 f   LIBCMT:sehprolg4.obj
 0001:00093b90       __except_handler4          30094b90 f   LIBCMT:chandler4.obj
 0001:00093d24       _strcpy_s                  30094d24 f   LIBCMT:strcpy_s.obj
 0001:00093d79       __fptostr                  30094d79 f   LIBCMT:_fptostr.obj
 0001:00093e29       ___crt_atoflt_l            30094e29 f   LIBCMT:atodbl.obj
 0001:00093ecd       __atodbl_l                 30094ecd f   LIBCMT:atodbl.obj
 0001:00093f5b       __atoflt_l                 30094f5b f   LIBCMT:atodbl.obj
 0001:00093f73       ___dtold                   30094f73 f   LIBCMT:cfout.obj
 0001:0009403b       __fltout2                  3009503b f   LIBCMT:cfout.obj
 0001:000940d0       __alldvrm                  300950d0 f   LIBCMT:lldvrm.obj
 0001:000941b0       __aullshr                  300951b0 f   LIBCMT:ullshr.obj
 0001:000941cf       __controlfp_s              300951cf f   LIBCMT:contrlfp.obj
 0001:0009422c       __fptrap                   3009522c f   LIBCMT:crt0fp.obj
 0001:00094235       __crt_debugger_hook        30095235 f   LIBCMT:dbghook.obj
 0001:0009423d       __ld12tod                  3009523d f   LIBCMT:intrncvt.obj
 0001:000947af       __ld12tof                  300957af f   LIBCMT:intrncvt.obj
 0001:00094d21       ___mtold12                 30095d21 f   LIBCMT:mantold.obj
 0001:00094f01       __lock                     30095f01 f   LIBCMT:mlock.obj
 0001:00094f35       __mtdeletelocks            30095f35 f   LIBCMT:mlock.obj
 0001:00094f89       __mtinitlocknum            30095f89 f   LIBCMT:mlock.obj
 0001:00095032       __mtinitlocks              30096032 f   LIBCMT:mlock.obj
 0001:0009506b       __unlock                   3009606b f   LIBCMT:mlock.obj
 0001:00095080       ___free_lconv_mon          30096080 f   LIBCMT:initmon.obj
 0001:0009517c       ___free_lconv_num          3009617c f   LIBCMT:initnum.obj
 0001:000951e3       ___free_lc_time            300961e3 f   LIBCMT:inittime.obj
 0001:0009565b       ___crtGetStringTypeA       3009665b f   LIBCMT:a_str.obj
 0001:0009569b       ___raise_securityfailure   3009669b f   LIBCMT:gs_report.obj
 0001:000956d8       ___report_gsfailure        300966d8 f   LIBCMT:gs_report.obj
 0001:000957d3       __filbuf                   300967d3 f   LIBCMT:_filbuf.obj
 0001:000958f4       __fileno                   300968f4 f   LIBCMT:fileno.obj
 0001:00095918       __ungetc_nolock            30096918 f   LIBCMT:ungetc.obj
 0001:000959f8       __mbtowc_l                 300969f8 f   LIBCMT:mbtowc.obj
 0001:00095aed       _mbtowc                    30096aed f   LIBCMT:mbtowc.obj
 0001:00095b10       __allmul                   30096b10 f   LIBCMT:llmul.obj
 0001:00095b50       __aulldvrm                 30096b50 f   LIBCMT:ulldvrm.obj
 0001:00095be5       __87except                 30096be5 f   LIBCMT:87except.obj
 0001:00095cf0       __CIcos_pentium4           30096cf0 f   LIBCMT:cos_pentium4.obj
 0001:00095d08       __cos_pentium4             30096d08     LIBCMT:cos_pentium4.obj
 0001:00095eb0       __twoToTOS                 30096eb0 f   LIBCMT:common.obj
 0001:00095ec5       __load_CW                  30096ec5 f   LIBCMT:common.obj
 0001:00095edc       __convertTOStoQNaN         30096edc f   LIBCMT:common.obj
 0001:00095ef5       __fload_withFB             30096ef5 f   LIBCMT:common.obj
 0001:00095f38       __checkTOS_withFB          30096f38 f   LIBCMT:common.obj
 0001:00095f4e       __fast_exit                30096f4e f   LIBCMT:common.obj
 0001:00095f5b       __math_exit                30096f5b f   LIBCMT:common.obj
 0001:00095f85       __check_overflow_exit      30096f85 f   LIBCMT:common.obj
 0001:00095f99       __check_range_exit         30096f99 f   LIBCMT:common.obj
 0001:00096040       __startTwoArgErrorHandling 30097040 f   LIBCMT:genexcep.obj
 0001:00096057       __startOneArgErrorHandling 30097057 f   LIBCMT:genexcep.obj
 0001:000960a0       __CIsin_pentium4           300970a0 f   LIBCMT:sin_pentium4.obj
 0001:000960b8       __sin_pentium4             300970b8     LIBCMT:sin_pentium4.obj
 0001:00096268       __frnd                     30097268 f   LIBCMT:frnd.obj
 0001:0009627c       __errcode                  3009727c f   LIBCMT:fpexcept.obj
 0001:000962ae       __except1                  300972ae f   LIBCMT:fpexcept.obj
 0001:00096376       __handle_exc               30097376 f   LIBCMT:fpexcept.obj
 0001:00096554       __handle_qnan1             30097554 f   LIBCMT:fpexcept.obj
 0001:000965a4       __raise_exc                300975a4 f   LIBCMT:fpexcept.obj
 0001:000965c5       __raise_exc_ex             300975c5 f   LIBCMT:fpexcept.obj
 0001:000968aa       __set_errno_from_matherr   300978aa f   LIBCMT:fpexcept.obj
 0001:000968d7       __umatherr                 300978d7 f   LIBCMT:fpexcept.obj
 0001:00096977       __decomp                   30097977 f   LIBCMT:util.obj
 0001:00096a49       __set_exp                  30097a49 f   LIBCMT:util.obj
 0001:00096a78       __sptype                   30097a78 f   LIBCMT:util.obj
 0001:00096ad3       ___set_fpsr_sse2           30097ad3 f   LIBCMT:fpctrl.obj
 0001:00096b49       __clrfp                    30097b49 f   LIBCMT:fpctrl.obj
 0001:00096b5a       __ctrlfp                   30097b5a f   LIBCMT:fpctrl.obj
 0001:00096b85       __set_statfp               30097b85 f   LIBCMT:fpctrl.obj
 0001:00096bdd       __statfp                   30097bdd f   LIBCMT:fpctrl.obj
 0001:00096bed       _wcscat_s                  30097bed f   LIBCMT:wcscat_s.obj
 0001:00096c59       _wcscpy_s                  30097c59 f   LIBCMT:wcscpy_s.obj
 0001:00096cb5       _wcslen                    30097cb5 f   LIBCMT:wcslen.obj
 0001:00096cce       _wcsncpy_s                 30097cce f   LIBCMT:wcsncpy_s.obj
 0001:00096d8c       _GetTableIndexFromLocaleName 30097d8c f   LIBCMT:winapinls.obj
 0001:00096dda       ___crtDownlevelLocaleNameToLCID 30097dda f   LIBCMT:winapinls.obj
 0001:00096e04       ___crtLCMapStringEx        30097e04 f   LIBCMT:winapinls.obj
 0001:00096e50       ___wcsnicmp_ascii          30097e50 f   LIBCMT:winapinls.obj
 0001:00096ebe       ___initstdio               30097ebe f   LIBCMT:_file.obj
 0001:00096f31       ___endstdio                30097f31 f   LIBCMT:_file.obj
 0001:00096f58       ___iob_func                30097f58 f   LIBCMT:_file.obj
 0001:00096f5e       __lock_file                30097f5e f   LIBCMT:_file.obj
 0001:00096f9d       __lock_file2               30097f9d f   LIBCMT:_file.obj
 0001:00096fcd       __unlock_file              30097fcd f   LIBCMT:_file.obj
 0001:00097007       __unlock_file2             30098007 f   LIBCMT:_file.obj
 0001:00097034       __isatty                   30098034 f   LIBCMT:isatty.obj
 0001:00097088       __write                    30098088 f   LIBCMT:write.obj
 0001:00097177       __write_nolock             30098177 f   LIBCMT:write.obj
 0001:000979dc       __lseeki64                 300989dc f   LIBCMT:lseeki64.obj
 0001:00097ad8       __lseeki64_nolock          30098ad8 f   LIBCMT:lseeki64.obj
 0001:00097b4b       __getbuf                   30098b4b f   LIBCMT:_getbuf.obj
 0001:00097b91       __get_printf_count_output  30098b91 f   LIBCMT:printf.obj
 0001:00097ba6       __wctomb_s_l               30098ba6 f   LIBCMT:wctomb.obj
 0001:00097cca       _wctomb_s                  30098cca f   LIBCMT:wctomb.obj
 0001:00097cf0       __CIacos_pentium4          30098cf0 f   LIBCMT:acos_pentium4.obj
 0001:00097d08       __acos_pentium4            30098d08     LIBCMT:acos_pentium4.obj
 0001:00098250       __CIpow_pentium4           30099250 f   LIBCMT:pow_pentium4.obj
 0001:00098269       __pow_pentium4             30099269     LIBCMT:pow_pentium4.obj
 0001:00098dc1       __fFEXP                    30099dc1     LIBCMT:87tran.obj
 0001:00098e18       __rtinfpopse               30099e18     LIBCMT:87tran.obj
 0001:00098e1a       __rtinfnpopse              30099e1a     LIBCMT:87tran.obj
 0001:00098e2a       __fFLN                     30099e2a     LIBCMT:87tran.obj
 0001:00098edf       __rtinfpop                 30099edf     LIBCMT:87tran.obj
 0001:00098ee1       __rtinfnpop                30099ee1     LIBCMT:87tran.obj
 0001:00098efe       __ffexpm1                  30099efe     LIBCMT:87tran.obj
 0001:00098fa7       __d_inttype                30099fa7 f   LIBCMT:powhlp.obj
 0001:0009900f       __powhlp                   3009a00f f   LIBCMT:powhlp.obj
 0001:00099150       __CItan_pentium4           3009a150 f   LIBCMT:tan_pentium4.obj
 0001:00099168       __tan_pentium4             3009a168     LIBCMT:tan_pentium4.obj
 0001:000993b0       _malloc                    3009a3b0 f   LIBCMT:malloc.obj
 0001:00099450       __alloca_probe_16          3009a450 f   LIBCMT:alloca16.obj
 0001:00099466       __alloca_probe_8           3009a466     LIBCMT:alloca16.obj
 0001:0009947c       __FF_MSGBANNER             3009a47c f   LIBCMT:crt0msg.obj
 0001:000994b5       __GET_RTERRMSG             3009a4b5 f   LIBCMT:crt0msg.obj
 0001:000994d9       __NMSG_WRITE               3009a4d9 f   LIBCMT:crt0msg.obj
 0001:000996a0       __FindPESection            3009a6a0 f   LIBCMT:pesect.obj
 0001:000996f0       __IsNonwritableInCurrentImage 3009a6f0 f   LIBCMT:pesect.obj
 0001:000997b0       __ValidateImageBase        3009a7b0 f   LIBCMT:pesect.obj
 0001:000997e1       ___onexitinit              3009a7e1 f   LIBCMT:onexit.obj
 0001:00099810       __onexit                   3009a810 f   LIBCMT:onexit.obj
 0001:0009990c       _atexit                    3009a90c f   LIBCMT:onexit.obj
 0001:00099921       ?terminate@@YAXXZ          3009a921 f   LIBCMT:hooks.obj
 0001:00099955       __initp_eh_hooks           3009a955 f   LIBCMT:hooks.obj
 0001:00099966       __callnewh                 3009a966 f   LIBCMT:handler.obj
 0001:0009998c       __initp_heap_handler       3009a98c f   LIBCMT:handler.obj
 0001:00099999       __initp_misc_purevirt      3009a999 f   LIBCMT:inithelp.obj
 0001:000999a6       ___get_sigabrt             3009a9a6 f   LIBCMT:winsig.obj
 0001:000999b3       __initp_misc_winsig        3009a9b3 f   LIBCMT:winsig.obj
 0001:000999cf       _raise                     3009a9cf f   LIBCMT:winsig.obj
 0001:00099bc4       __initp_misc_rand_s        3009abc4 f   LIBCMT:rand_s.obj
 0001:00099be0       __local_unwind4            3009abe0 f   LIBCMT:exsup4.obj
 0001:00099cb6       __seh_longjmp_unwind4@4    3009acb6 f   LIBCMT:exsup4.obj
 0001:00099cd2       @_EH4_CallFilterFunc@8     3009acd2 f   LIBCMT:exsup4.obj
 0001:00099ce9       @_EH4_TransferToHandler@8  3009ace9 f   LIBCMT:exsup4.obj
 0001:00099d02       @_EH4_GlobalUnwind2@8      3009ad02 f   LIBCMT:exsup4.obj
 0001:00099d1b       @_EH4_LocalUnwind@16       3009ad1b f   LIBCMT:exsup4.obj
 0001:00099d8c       __ismbblead                3009ad8c f   LIBCMT:ismbbyte.obj
 0001:00099da2       _realloc                   3009ada2 f   LIBCMT:realloc.obj
 0001:00099e4d       __recalloc                 3009ae4d f   LIBCMT:recalloc.obj
 0001:00099eb6       __calloc_impl              3009aeb6 f   LIBCMT:calloc_impl.obj
 0001:00099f30       _$I10_OUTPUT               3009af30 f   LIBCMT:x10fout.obj
 0001:0009a9ad       __control87                3009b9ad f i LIBCMT:ieee87.obj
 0001:0009ad46       __read                     3009bd46 f   LIBCMT:read.obj
 0001:0009ae5a       __read_nolock              3009be5a f   LIBCMT:read.obj
 0001:0009b5eb       __fcloseall                3009c5eb f   LIBCMT:closeall.obj
 0001:0009b688       __fflush_nolock            3009c688 f   LIBCMT:fflush.obj
 0001:0009b6ce       __flush                    3009c6ce f   LIBCMT:fflush.obj
 0001:0009b732       __flushall                 3009c732 f   LIBCMT:fflush.obj
 0001:0009b81f       ___lock_fhandle            3009c81f f   LIBCMT:osfinfo.obj
 0001:0009b8ad       __free_osfhnd              3009c8ad f   LIBCMT:osfinfo.obj
 0001:0009b933       __get_osfhandle            3009c933 f   LIBCMT:osfinfo.obj
 0001:0009b99a       __unlock_fhandle           3009c99a f   LIBCMT:osfinfo.obj
 0001:0009b9c0       __putwch_nolock            3009c9c0 f   LIBCMT:putwch.obj
 0001:0009ba03       __fpclass                  3009ca03 f   LIBCMT:ieeemisc.obj
 0001:0009ba9f       __set_error_mode           3009ca9f f   LIBCMT:errmode.obj
 0001:0009badf       ___crtMessageBoxW          3009cadf f   LIBCMT:crtmboxw.obj
 0001:0009bcc5       __msize                    3009ccc5 f   LIBCMT:msize.obj
 0001:0009bcf6       _abort                     3009ccf6 f   LIBCMT:abort.obj
 0001:0009bd40       __global_unwind2           3009cd40 f   LIBCMT:exsup.obj
 0001:0009bda5       __local_unwind2            3009cda5 f   LIBCMT:exsup.obj
 0001:0009be29       __abnormal_termination     3009ce29 f   LIBCMT:exsup.obj
 0001:0009be4c       __NLG_Notify1              3009ce4c f   LIBCMT:exsup.obj
 0001:0009be55       __NLG_Notify               3009ce55 f   LIBCMT:exsup.obj
 0001:0009be6c       __NLG_Dispatch             3009ce6c     LIBCMT:exsup.obj
 0001:0009be6c       __NLG_Dispatch2            3009ce6c     LIBCMT:exsup.obj
 0001:0009be74       __NLG_Call                 3009ce74 f   LIBCMT:exsup.obj
 0001:0009be76       __NLG_Return2              3009ce76     LIBCMT:exsup.obj
 0001:0009be77       __fclose_nolock            3009ce77 f   LIBCMT:fclose.obj
 0001:0009bee3       _fclose                    3009cee3 f   LIBCMT:fclose.obj
 0001:0009bf5a       __commit                   3009cf5a f   LIBCMT:commit.obj
 0001:0009c043       ___termconout              3009d043 f   LIBCMT:initcon.obj
 0001:0009c05a       ___initconout              3009d05a f   LIBCMT:initcon.obj
 0001:0009c079       __close                    3009d079 f   LIBCMT:close.obj
 0001:0009c154       __close_nolock             3009d154 f   LIBCMT:close.obj
 0001:0009c1ee       __freebuf                  3009d1ee f   LIBCMT:_freebuf.obj
 0001:0009c21e       _IsProcessorFeaturePresent@4 3009d21e f   kernel32:KERNEL32.dll
 0001:0009c224       _RtlUnwind@16              3009d224 f   kernel32:KERNEL32.dll
 0001:0009c22a       ___ascii_stricmp           3009d22a f   LIBCMT:stricmp.obj
 0001:0009c263       __stricmp                  3009d263 f   LIBCMT:stricmp.obj
 0001:0009c263       _stricmp                   3009d263 f   LIBCMT:stricmp.obj
 0001:0009c2aa       __stricmp_l                3009d2aa f   LIBCMT:stricmp.obj
 0002:00000000       __imp__GetCommandLineA@0   3009e000     kernel32:KERNEL32.dll
 0002:00000004       __imp__GetCurrentThreadId@0 3009e004     kernel32:KERNEL32.dll
 0002:00000008       __imp__IsProcessorFeaturePresent@4 3009e008     kernel32:KERNEL32.dll
 0002:0000000c       __imp__EncodePointer@4     3009e00c     kernel32:KERNEL32.dll
 0002:00000010       __imp__IsDebuggerPresent@0 3009e010     kernel32:KERNEL32.dll
 0002:00000014       __imp__DecodePointer@4     3009e014     kernel32:KERNEL32.dll
 0002:00000018       __imp__IsValidCodePage@4   3009e018     kernel32:KERNEL32.dll
 0002:0000001c       __imp__GetACP@0            3009e01c     kernel32:KERNEL32.dll
 0002:00000020       __imp__GetOEMCP@0          3009e020     kernel32:KERNEL32.dll
 0002:00000024       __imp__GetCPInfo@8         3009e024     kernel32:KERNEL32.dll
 0002:00000028       __imp__GetLastError@0      3009e028     kernel32:KERNEL32.dll
 0002:0000002c       __imp__SetLastError@4      3009e02c     kernel32:KERNEL32.dll
 0002:00000030       __imp__MultiByteToWideChar@24 3009e030     kernel32:KERNEL32.dll
 0002:00000034       __imp__WideCharToMultiByte@32 3009e034     kernel32:KERNEL32.dll
 0002:00000038       __imp__ExitProcess@4       3009e038     kernel32:KERNEL32.dll
 0002:0000003c       __imp__GetModuleHandleExW@12 3009e03c     kernel32:KERNEL32.dll
 0002:00000040       __imp__GetProcAddress@8    3009e040     kernel32:KERNEL32.dll
 0002:00000044       __imp__GetProcessHeap@0    3009e044     kernel32:KERNEL32.dll
 0002:00000048       __imp__GetStdHandle@4      3009e048     kernel32:KERNEL32.dll
 0002:0000004c       __imp__GetFileType@4       3009e04c     kernel32:KERNEL32.dll
 0002:00000050       __imp__DeleteCriticalSection@4 3009e050     kernel32:KERNEL32.dll
 0002:00000054       __imp__GetStartupInfoW@4   3009e054     kernel32:KERNEL32.dll
 0002:00000058       __imp__GetModuleFileNameA@12 3009e058     kernel32:KERNEL32.dll
 0002:0000005c       __imp__HeapFree@12         3009e05c     kernel32:KERNEL32.dll
 0002:00000060       __imp__QueryPerformanceCounter@4 3009e060     kernel32:KERNEL32.dll
 0002:00000064       __imp__GetCurrentProcessId@0 3009e064     kernel32:KERNEL32.dll
 0002:00000068       __imp__GetSystemTimeAsFileTime@4 3009e068     kernel32:KERNEL32.dll
 0002:0000006c       __imp__GetEnvironmentStringsW@0 3009e06c     kernel32:KERNEL32.dll
 0002:00000070       __imp__FreeEnvironmentStringsW@4 3009e070     kernel32:KERNEL32.dll
 0002:00000074       __imp__UnhandledExceptionFilter@4 3009e074     kernel32:KERNEL32.dll
 0002:00000078       __imp__SetUnhandledExceptionFilter@4 3009e078     kernel32:KERNEL32.dll
 0002:0000007c       __imp__InitializeCriticalSectionAndSpinCount@8 3009e07c     kernel32:KERNEL32.dll
 0002:00000080       __imp__Sleep@4             3009e080     kernel32:KERNEL32.dll
 0002:00000084       __imp__GetCurrentProcess@0 3009e084     kernel32:KERNEL32.dll
 0002:00000088       __imp__TerminateProcess@8  3009e088     kernel32:KERNEL32.dll
 0002:0000008c       __imp__TlsAlloc@0          3009e08c     kernel32:KERNEL32.dll
 0002:00000090       __imp__TlsGetValue@4       3009e090     kernel32:KERNEL32.dll
 0002:00000094       __imp__TlsSetValue@8       3009e094     kernel32:KERNEL32.dll
 0002:00000098       __imp__TlsFree@4           3009e098     kernel32:KERNEL32.dll
 0002:0000009c       __imp__GetModuleHandleW@4  3009e09c     kernel32:KERNEL32.dll
 0002:000000a0       __imp__EnterCriticalSection@4 3009e0a0     kernel32:KERNEL32.dll
 0002:000000a4       __imp__LeaveCriticalSection@4 3009e0a4     kernel32:KERNEL32.dll
 0002:000000a8       __imp__GetStringTypeW@16   3009e0a8     kernel32:KERNEL32.dll
 0002:000000ac       __imp__RaiseException@16   3009e0ac     kernel32:KERNEL32.dll
 0002:000000b0       __imp__LCMapStringW@24     3009e0b0     kernel32:KERNEL32.dll
 0002:000000b4       __imp__WriteFile@20        3009e0b4     kernel32:KERNEL32.dll
 0002:000000b8       __imp__GetConsoleCP@0      3009e0b8     kernel32:KERNEL32.dll
 0002:000000bc       __imp__GetConsoleMode@8    3009e0bc     kernel32:KERNEL32.dll
 0002:000000c0       __imp__SetFilePointerEx@20 3009e0c0     kernel32:KERNEL32.dll
 0002:000000c4       __imp__HeapAlloc@12        3009e0c4     kernel32:KERNEL32.dll
 0002:000000c8       __imp__GetModuleFileNameW@12 3009e0c8     kernel32:KERNEL32.dll
 0002:000000cc       __imp__LoadLibraryExW@12   3009e0cc     kernel32:KERNEL32.dll
 0002:000000d0       __imp__RtlUnwind@16        3009e0d0     kernel32:KERNEL32.dll
 0002:000000d4       __imp__HeapReAlloc@16      3009e0d4     kernel32:KERNEL32.dll
 0002:000000d8       __imp__ReadFile@20         3009e0d8     kernel32:KERNEL32.dll
 0002:000000dc       __imp__ReadConsoleW@20     3009e0dc     kernel32:KERNEL32.dll
 0002:000000e0       __imp__SetStdHandle@8      3009e0e0     kernel32:KERNEL32.dll
 0002:000000e4       __imp__WriteConsoleW@20    3009e0e4     kernel32:KERNEL32.dll
 0002:000000e8       __imp__OutputDebugStringW@4 3009e0e8     kernel32:KERNEL32.dll
 0002:000000ec       __imp__HeapSize@12         3009e0ec     kernel32:KERNEL32.dll
 0002:000000f0       __imp__FlushFileBuffers@4  3009e0f0     kernel32:KERNEL32.dll
 0002:000000f4       __imp__CreateFileW@28      3009e0f4     kernel32:KERNEL32.dll
 0002:000000f8       __imp__CloseHandle@4       3009e0f8     kernel32:KERNEL32.dll
 0002:000000fc       \177KERNEL32_NULL_THUNK_DATA 3009e0fc     kernel32:KERNEL32.dll
 0002:00000100       ___xc_a                    3009e100     LIBCMT:crt0init.obj
 0002:00000104       ___xc_z                    3009e104     LIBCMT:crt0init.obj
 0002:00000108       ___xi_a                    3009e108     LIBCMT:crt0init.obj
 0002:00000120       ___xi_z                    3009e120     LIBCMT:crt0init.obj
 0002:00000124       ___xp_a                    3009e124     LIBCMT:crt0init.obj
 0002:00000134       ___xp_z                    3009e134     LIBCMT:crt0init.obj
 0002:00000138       ___xt_a                    3009e138     LIBCMT:crt0init.obj
 0002:0000013c       ___xt_z                    3009e13c     LIBCMT:crt0init.obj
 0002:00000140       __real@3e4ccccd            3009e140     AnimalNPC.obj
 0002:00000144       __real@3e8ccccd            3009e144     AnimalNPC.obj
 0002:00000148       __real@40800000            3009e148     AnimalNPC.obj
 0002:00000150       __xmm@80000000800000008000000080000000 3009e150     AnimalNPC.obj
 0002:00000160       ??_C@_08MCJJKOHJ@jaw_bone?$AA@ 3009e160     bg_g2_utils.obj
 0002:0000016c       ??_C@_07BNEEMBEL@?$CKr_hand?$AA@ 3009e16c     bg_g2_utils.obj
 0002:00000174       ??_C@_04DJCABLIL@?$CFs?$CFc?$AA@ 3009e174     bg_g2_utils.obj
 0002:0000017c       ??_C@_0BG@PFBKDHHG@gfx?1hud?1i_icon_medkit?$AA@ 3009e17c     bg_misc.obj
 0002:00000194       ??_C@_0M@CJHMIAK@item_seeker?$AA@ 3009e194     bg_misc.obj
 0002:000001a0       ??_C@_0BJ@IBMECGJM@sound?1weapons?1w_pkup?4wav?$AA@ 3009e1a0     bg_misc.obj
 0002:000001bc       ??_C@_0BI@PEKMFNBP@models?1items?1remote?4md3?$AA@ 3009e1bc     bg_misc.obj
 0002:000001d4       ??_C@_0BG@KANLKHLH@gfx?1hud?1i_icon_seeker?$AA@ 3009e1d4     bg_misc.obj
 0002:000001ec       ??_C@_0BP@JJMOPAPI@?$EAMENUS_AN_ATTACK_DRONE_SIMILAR?$AA@ 3009e1ec     bg_misc.obj
 0002:0000020c       ??_C@_0M@IIGPMPLO@item_shield?$AA@ 3009e20c     bg_misc.obj
 0002:00000218       ??_C@_0CB@EAKHAPIK@models?1map_objects?1mp?1shield?4md3@ 3009e218     bg_misc.obj
 0002:0000023c       ??_C@_0BK@OODCPGGP@gfx?1hud?1i_icon_shieldwall?$AA@ 3009e23c     bg_misc.obj
 0002:00000258       ??_C@_0KM@PHBHELNF@sound?1weapons?1detpack?1stick?4wav?5@ 3009e258     bg_misc.obj
 0002:00000304       ??_C@_0BO@HHEDFEHB@?$EAMENUS_THIS_STATIONARY_ENERGY?$AA@ 3009e304     bg_misc.obj
 0002:00000324       ??_C@_0M@NLNOFNHL@item_medpac?$AA@ 3009e324     bg_misc.obj
 0002:00000330       ??_C@_0CA@COCFAODK@models?1map_objects?1mp?1bacta?4md3?$AA@ 3009e330     bg_misc.obj
 0002:00000350       ??_C@_0BF@EDJNGJL@gfx?1hud?1i_icon_bacta?$AA@ 3009e350     bg_misc.obj
 0002:00000368       ??_C@_0BG@BFJBNBGL@?$EASP_INGAME_BACTA_DESC?$AA@ 3009e368     bg_misc.obj
 0002:00000380       ??_C@_0BA@JADGBDOO@item_medpac_big?$AA@ 3009e380     bg_misc.obj
 0002:00000390       ??_C@_0BL@HEJMELJJ@models?1items?1big_bacta?4md3?$AA@ 3009e390     bg_misc.obj
 0002:000003ac       ??_C@_0BJ@DMMPEJNE@gfx?1hud?1i_icon_big_bacta?$AA@ 3009e3ac     bg_misc.obj
 0002:000003c8       ??_C@_0BA@KBLOKIGM@item_binoculars?$AA@ 3009e3c8     bg_misc.obj
 0002:000003d8       ??_C@_0BM@HNHCIOH@models?1items?1binoculars?4md3?$AA@ 3009e3d8     bg_misc.obj
 0002:000003f4       ??_C@_0BE@PKBACEEE@gfx?1hud?1i_icon_zoom?$AA@ 3009e3f4     bg_misc.obj
 0002:00000408       ??_C@_0BL@PADDACKM@?$EASP_INGAME_LA_GOGGLES_DESC?$AA@ 3009e408     bg_misc.obj
 0002:00000424       ??_C@_0BA@HKIJMOIG@item_sentry_gun?$AA@ 3009e424     bg_misc.obj
 0002:00000434       ??_C@_0BH@PFALJFOC@models?1items?1psgun?4glm?$AA@ 3009e434     bg_misc.obj
 0002:0000044c       ??_C@_0BJ@JKBMBJCM@gfx?1hud?1i_icon_sentrygun?$AA@ 3009e44c     bg_misc.obj
 0002:00000468       ??_C@_0BN@MFHKBDDJ@?$EAMENUS_THIS_DEADLY_WEAPON_IS?$AA@ 3009e468     bg_misc.obj
 0002:00000488       ??_C@_0N@EIBGMPAH@item_jetpack?$AA@ 3009e488     bg_misc.obj
 0002:00000498       ??_C@_0BH@PNGEEMFJ@gfx?1hud?1i_icon_jetpack?$AA@ 3009e498     bg_misc.obj
 0002:000004b0       ??_C@_0BF@CHFBNMLA@effects?1boba?1jet?4efx?$AA@ 3009e4b0     bg_misc.obj
 0002:000004c8       ??_C@_0FD@EDGCAKBF@sound?1chars?1boba?1JETON?4wav?5sound@ 3009e4c8     bg_misc.obj
 0002:0000051c       ??_C@_0BE@JOMGFMAF@?$EAMENUS_JETPACK_DESC?$AA@ 3009e51c     bg_misc.obj
 0002:00000530       ??_C@_0BA@MKABDBIL@item_healthdisp?$AA@ 3009e530     bg_misc.obj
 0002:00000540       ??_C@_0BK@CIGOJBM@gfx?1hud?1i_icon_healthdisp?$AA@ 3009e540     bg_misc.obj
 0002:0000055c       ??_C@_0O@FFANILHN@item_ammodisp?$AA@ 3009e55c     bg_misc.obj
 0002:0000056c       ??_C@_0BI@NJGLIFAN@gfx?1hud?1i_icon_ammodisp?$AA@ 3009e56c     bg_misc.obj
 0002:00000584       ??_C@_0BD@FNDPGFNF@item_eweb_holdable?$AA@ 3009e584     bg_misc.obj
 0002:00000598       ??_C@_0CA@PCDIFNM@sound?1interface?1shieldcon_empty?$AA@ 3009e598     bg_misc.obj
 0002:000005b8       ??_C@_0CH@FJBCGPDI@models?1map_objects?1hoth?1eweb_mod@ 3009e5b8     bg_misc.obj
 0002:000005e0       ??_C@_0BE@HACMCHO@gfx?1hud?1i_icon_eweb?$AA@ 3009e5e0     bg_misc.obj
 0002:000005f4       ??_C@_0BB@BOLMLFOH@?$EAMENUS_EWEB_DESC?$AA@ 3009e5f4     bg_misc.obj
 0002:00000608       ??_C@_0L@LGDPDIAF@item_cloak?$AA@ 3009e608     bg_misc.obj
 0002:00000614       ??_C@_0BF@JNCBPHCG@gfx?1hud?1i_icon_cloak?$AA@ 3009e614     bg_misc.obj
 0002:0000062c       ??_C@_0BC@GHMKCCIP@?$EAMENUS_CLOAK_DESC?$AA@ 3009e62c     bg_misc.obj
 0002:00000640       ??_C@_0BC@FEOIGMFL@item_flamethrower?$AA@ 3009e640     bg_misc.obj
 0002:00000654       ??_C@_0N@LDKIPHF@Flamethrower?$AA@ 3009e654     bg_misc.obj
 0002:00000664       ??_C@_0BL@MINBJMDE@item_force_enlighten_light?$AA@ 3009e664     bg_misc.obj
 0002:00000680       ??_C@_0BP@GFNNPIJO@sound?1player?1enlightenment?4wav?$AA@ 3009e680     bg_misc.obj
 0002:000006a0       ??_C@_0CN@DIMKCGKC@models?1map_objects?1mp?1jedi_enlig@ 3009e6a0     bg_misc.obj
 0002:000006d0       ??_C@_0BD@MPGMMGMB@gfx?1hud?1mpi_jlight?$AA@ 3009e6d0     bg_misc.obj
 0002:000006e4       ??_C@_0BK@JFKBFAGB@item_force_enlighten_dark?$AA@ 3009e6e4     bg_misc.obj
 0002:00000700       ??_C@_0CL@IJLGBCPL@models?1map_objects?1mp?1dk_enlight@ 3009e700     bg_misc.obj
 0002:0000072c       ??_C@_0BE@NFHAGLDO@gfx?1hud?1mpi_dklight?$AA@ 3009e72c     bg_misc.obj
 0002:00000740       ??_C@_0BA@HALIIJIE@item_force_boon?$AA@ 3009e740     bg_misc.obj
 0002:00000750       ??_C@_0BG@GFIPDGIH@sound?1player?1boon?4wav?$AA@ 3009e750     bg_misc.obj
 0002:00000768       ??_C@_0CF@JPDLAKMB@models?1map_objects?1mp?1force_boon@ 3009e768     bg_misc.obj
 0002:00000790       ??_C@_0BC@DEOLDKOL@gfx?1hud?1mpi_fboon?$AA@ 3009e790     bg_misc.obj
 0002:000007a4       ??_C@_0P@BMGIHJKN@item_ysalimari?$AA@ 3009e7a4     bg_misc.obj
 0002:000007b4       ??_C@_0BL@LEFKKCEP@sound?1player?1ysalimari?4wav?$AA@ 3009e7b4     bg_misc.obj
 0002:000007d0       ??_C@_0CE@KCIGBHIN@models?1map_objects?1mp?1ysalimari?4@ 3009e7d0     bg_misc.obj
 0002:000007f4       ??_C@_0BE@OEFHDNBF@gfx?1hud?1mpi_ysamari?$AA@ 3009e7f4     bg_misc.obj
 0002:00000808       ??_C@_0BC@EJEDEKOE@weapon_stun_baton?$AA@ 3009e808     bg_misc.obj
 0002:0000081c       ??_C@_0CH@BLMKNANE@models?1weapons2?1stun_baton?1baton@ 3009e81c     bg_misc.obj
 0002:00000844       ??_C@_0CF@INEBKGM@models?1weapons2?1stun_baton?1baton@ 3009e844     bg_misc.obj
 0002:0000086c       ??_C@_0BJ@JFPGMAAH@gfx?1hud?1w_icon_stunbaton?$AA@ 3009e86c     bg_misc.obj
 0002:00000888       ??_C@_0N@LBBGELFA@weapon_melee?$AA@ 3009e888     bg_misc.obj
 0002:00000898       ??_C@_0BF@GPOFHEPB@gfx?1hud?1w_icon_melee?$AA@ 3009e898     bg_misc.obj
 0002:000008b0       ??_C@_0BC@CEFBGLCB@?$EAMENUS_MELEE_DESC?$AA@ 3009e8b0     bg_misc.obj
 0002:000008c4       ??_C@_0N@JIBGHNNO@weapon_saber?$AA@ 3009e8c4     bg_misc.obj
 0002:000008d4       ??_C@_0CC@PBCBCODB@models?1weapons2?1saber?1saber_w?4gl@ 3009e8d4     bg_misc.obj
 0002:000008f8       ??_C@_0CC@LELHOPDH@models?1weapons2?1saber?1saber_w?4md@ 3009e8f8     bg_misc.obj
 0002:0000091c       ??_C@_0BK@DENAAEJI@gfx?1hud?1w_icon_lightsaber?$AA@ 3009e91c     bg_misc.obj
 0002:00000938       ??_C@_0BN@GPMHMMHO@?$EAMENUS_AN_ELEGANT_WEAPON_FOR?$AA@ 3009e938     bg_misc.obj
 0002:00000958       ??_C@_0BG@JEHALHIL@weapon_blaster_pistol?$AA@ 3009e958     bg_misc.obj
 0002:00000970       ??_C@_0DE@EHAMJOHG@models?1weapons2?1blaster_pistol?1b@ 3009e970     bg_misc.obj
 0002:000009a4       ??_C@_0DC@EGNBDNKO@models?1weapons2?1blaster_pistol?1b@ 3009e9a4     bg_misc.obj
 0002:000009d8       ??_C@_0BO@EGOADNOO@gfx?1hud?1w_icon_blaster_pistol?$AA@ 3009e9d8     bg_misc.obj
 0002:000009f8       ??_C@_0BL@EJPJHBLO@?$EAMENUS_BLASTER_PISTOL_DESC?$AA@ 3009e9f8     bg_misc.obj
 0002:00000a14       ??_C@_0BI@JFLEEDJH@weapon_concussion_rifle?$AA@ 3009ea14     bg_misc.obj
 0002:00000a2c       ??_C@_0CJ@OKJJMKPH@models?1weapons2?1concussion?1c_rif@ 3009ea2c     bg_misc.obj
 0002:00000a58       ??_C@_0CH@PIBGBJPN@models?1weapons2?1concussion?1c_rif@ 3009ea58     bg_misc.obj
 0002:00000a80       ??_C@_0BH@PEIIGOLA@gfx?1hud?1w_icon_c_rifle?$AA@ 3009ea80     bg_misc.obj
 0002:00000a98       ??_C@_0BH@OEFKMKID@?$EAMENUS_CONC_RIFLE_DESC?$AA@ 3009ea98     bg_misc.obj
 0002:00000ab0       ??_C@_0BE@NCEGAEHJ@weapon_bryar_pistol?$AA@ 3009eab0     bg_misc.obj
 0002:00000ac4       ??_C@_0DA@DCLFBBNM@models?1weapons2?1briar_pistol?1bri@ 3009eac4     bg_misc.obj
 0002:00000af4       ??_C@_0CO@LMBDAEMJ@models?1weapons2?1briar_pistol?1bri@ 3009eaf4     bg_misc.obj
 0002:00000b24       ??_C@_0BF@HJCHFBMO@gfx?1hud?1w_icon_briar?$AA@ 3009eb24     bg_misc.obj
 0002:00000b3c       ??_C@_0BK@JHPMONHL@?$EASP_INGAME_BLASTER_PISTOL?$AA@ 3009eb3c     bg_misc.obj
 0002:00000b58       ??_C@_0P@PPIDHAJM@weapon_blaster?$AA@ 3009eb58     bg_misc.obj
 0002:00000b68       ??_C@_0CI@FHMEJMJP@models?1weapons2?1blaster_r?1blaste@ 3009eb68     bg_misc.obj
 0002:00000b90       ??_C@_0CG@IJILPHPH@models?1weapons2?1blaster_r?1blaste@ 3009eb90     bg_misc.obj
 0002:00000bb8       ??_C@_0BH@POPJAOPK@gfx?1hud?1w_icon_blaster?$AA@ 3009ebb8     bg_misc.obj
 0002:00000bd0       ??_C@_0BN@KLDCJACF@?$EAMENUS_THE_PRIMARY_WEAPON_OF?$AA@ 3009ebd0     bg_misc.obj
 0002:00000bf0       ??_C@_0BB@EKCEEAKB@weapon_disruptor?$AA@ 3009ebf0     bg_misc.obj
 0002:00000c04       ??_C@_0CK@LDOPBIMF@models?1weapons2?1disruptor?1disrup@ 3009ec04     bg_misc.obj
 0002:00000c30       ??_C@_0CI@KNAINLEF@models?1weapons2?1disruptor?1disrup@ 3009ec30     bg_misc.obj
 0002:00000c58       ??_C@_0BJ@MODONBMB@gfx?1hud?1w_icon_disruptor?$AA@ 3009ec58     bg_misc.obj
 0002:00000c74       ??_C@_0BN@PDALGMFE@?$EAMENUS_THIS_NEFARIOUS_WEAPON?$AA@ 3009ec74     bg_misc.obj
 0002:00000c94       ??_C@_0BB@KDLDGPGH@weapon_bowcaster?$AA@ 3009ec94     bg_misc.obj
 0002:00000ca8       ??_C@_0CK@OFDEGMIN@models?1weapons2?1bowcaster?1bowcas@ 3009eca8     bg_misc.obj
 0002:00000cd4       ??_C@_0CI@MANABGJH@models?1weapons2?1bowcaster?1bowcas@ 3009ecd4     bg_misc.obj
 0002:00000cfc       ??_C@_0BJ@CHKJPOAH@gfx?1hud?1w_icon_bowcaster?$AA@ 3009ecfc     bg_misc.obj
 0002:00000d18       ??_C@_0BM@MHHBLDA@?$EAMENUS_THIS_ARCHAIC_LOOKING?$AA@ 3009ed18     bg_misc.obj
 0002:00000d34       ??_C@_0BA@BKCKPFDA@weapon_repeater?$AA@ 3009ed34     bg_misc.obj
 0002:00000d44       ??_C@_0DE@LBIFBLHF@models?1weapons2?1heavy_repeater?1h@ 3009ed44     bg_misc.obj
 0002:00000d78       ??_C@_0DC@FAHGABEB@models?1weapons2?1heavy_repeater?1h@ 3009ed78     bg_misc.obj
 0002:00000dac       ??_C@_0BI@LOPKELCD@gfx?1hud?1w_icon_repeater?$AA@ 3009edac     bg_misc.obj
 0002:00000dc4       ??_C@_0CD@FCKGGFFG@?$EAMENUS_THIS_DESTRUCTIVE_PROJECTI@ 3009edc4     bg_misc.obj
 0002:00000de8       ??_C@_0N@MBLCNHPF@weapon_demp2?$AA@ 3009ede8     bg_misc.obj
 0002:00000df8       ??_C@_0CC@DIKAHCC@models?1weapons2?1demp2?1demp2_w?4gl@ 3009edf8     bg_misc.obj
 0002:00000e1c       ??_C@_0CA@PKACJAPI@models?1weapons2?1demp2?1demp2?4md3?$AA@ 3009ee1c     bg_misc.obj
 0002:00000e3c       ??_C@_0BF@BPEBOIFE@gfx?1hud?1w_icon_demp2?$AA@ 3009ee3c     bg_misc.obj
 0002:00000e54       ??_C@_0BM@BCDPDFEB@?$EAMENUS_COMMONLY_REFERRED_TO?$AA@ 3009ee54     bg_misc.obj
 0002:00000e70       ??_C@_0BB@HNIDLLLF@weapon_flechette?$AA@ 3009ee70     bg_misc.obj
 0002:00000e84       ??_C@_0CM@GDMOBBJ@models?1weapons2?1golan_arms?1golan@ 3009ee84     bg_misc.obj
 0002:00000eb0       ??_C@_0CK@CNAHGKMH@models?1weapons2?1golan_arms?1golan@ 3009eeb0     bg_misc.obj
 0002:00000edc       ??_C@_0BJ@PJJJCKNF@gfx?1hud?1w_icon_flechette?$AA@ 3009eedc     bg_misc.obj
 0002:00000ef8       ??_C@_0CE@HHDMNMLP@?$EAMENUS_WIDELY_USED_BY_THE_CORPOR@ 3009eef8     bg_misc.obj
 0002:00000f1c       ??_C@_0BH@CFPMIEJH@weapon_rocket_launcher?$AA@ 3009ef1c     bg_misc.obj
 0002:00000f34       ??_C@_0CK@IJJCBMNO@models?1weapons2?1merr_sonn?1merr_s@ 3009ef34     bg_misc.obj
 0002:00000f60       ??_C@_0CI@CPIMDKHH@models?1weapons2?1merr_sonn?1merr_s@ 3009ef60     bg_misc.obj
 0002:00000f88       ??_C@_0BI@DDNFEDEJ@gfx?1hud?1w_icon_merrsonn?$AA@ 3009ef88     bg_misc.obj
 0002:00000fa0       ??_C@_0CC@EJOKBHDJ@?$EAMENUS_THE_PLX_2M_IS_AN_EXTREMEL@ 3009efa0     bg_misc.obj
 0002:00000fc4       ??_C@_0N@IBCNMHOJ@ammo_thermal?$AA@ 3009efc4     bg_misc.obj
 0002:00000fd4       ??_C@_0CH@BBPIBDBM@models?1weapons2?1thermal?1thermal_@ 3009efd4     bg_misc.obj
 0002:00000ffc       ??_C@_0CG@CCBCCJGG@models?1weapons2?1thermal?1thermal_@ 3009effc     bg_misc.obj
 0002:00001024       ??_C@_0CE@PJGNCPEG@models?1weapons2?1thermal?1thermal?4@ 3009f024     bg_misc.obj
 0002:00001048       ??_C@_0BH@OIMKPGPF@gfx?1hud?1w_icon_thermal?$AA@ 3009f048     bg_misc.obj
 0002:00001060       ??_C@_0BN@FMFLLCGL@?$EAMENUS_THE_THERMAL_DETONATOR?$AA@ 3009f060     bg_misc.obj
 0002:00001080       ??_C@_0O@GAPOPCOE@ammo_tripmine?$AA@ 3009f080     bg_misc.obj
 0002:00001090       ??_C@_0CN@JOEHJLGB@models?1weapons2?1laser_trap?1laser@ 3009f090     bg_misc.obj
 0002:000010c0       ??_C@_0CM@PIAEKLLK@models?1weapons2?1laser_trap?1laser@ 3009f0c0     bg_misc.obj
 0002:000010ec       ??_C@_0CK@BPCANEAG@models?1weapons2?1laser_trap?1laser@ 3009f0ec     bg_misc.obj
 0002:00001118       ??_C@_0BI@HEJGEJJK@gfx?1hud?1w_icon_tripmine?$AA@ 3009f118     bg_misc.obj
 0002:00001130       ??_C@_0BN@CMMDBNGF@?$EAMENUS_TRIP_MINES_CONSIST_OF?$AA@ 3009f130     bg_misc.obj
 0002:00001150       ??_C@_0N@CIBIOIEN@ammo_detpack?$AA@ 3009f150     bg_misc.obj
 0002:00001160       ??_C@_0CI@CBJMGLP@models?1weapons2?1detpack?1det_pack@ 3009f160     bg_misc.obj
 0002:00001188       ??_C@_0CK@CDFEGPDE@models?1weapons2?1detpack?1det_pack@ 3009f188     bg_misc.obj
 0002:000011b4       ??_C@_0CH@KPFPNMHO@models?1weapons2?1detpack?1det_pack@ 3009f1b4     bg_misc.obj
 0002:000011dc       ??_C@_0CF@NONMEFGL@models?1weapons2?1detpack?1det_pack@ 3009f1dc     bg_misc.obj
 0002:00001204       ??_C@_0BH@EBPPNJFB@gfx?1hud?1w_icon_detpack?$AA@ 3009f204     bg_misc.obj
 0002:0000121c       ??_C@_0BM@MOLHJNKH@?$EAMENUS_A_DETONATION_PACK_IS?$AA@ 3009f21c     bg_misc.obj
 0002:00001238       ??_C@_0P@OJLAIIJD@weapon_thermal?$AA@ 3009f238     bg_misc.obj
 0002:00001248       ??_C@_0BB@KBIODFKP@weapon_trip_mine?$AA@ 3009f248     bg_misc.obj
 0002:0000125c       ??_C@_0BA@DBJEACCG@weapon_det_pack?$AA@ 3009f25c     bg_misc.obj
 0002:0000126c       ??_C@_0BA@PHDHEKAE@weapon_emplaced?$AA@ 3009f26c     bg_misc.obj
 0002:0000127c       ??_C@_0BA@EENDCNMH@weapon_turretwp?$AA@ 3009f27c     bg_misc.obj
 0002:0000128c       ??_C@_0L@GKDELMG@ammo_force?$AA@ 3009f28c     bg_misc.obj
 0002:00001298       ??_C@_0BO@EBHMDMMM@sound?1player?1pickupenergy?4wav?$AA@ 3009f298     bg_misc.obj
 0002:000012b8       ??_C@_0BN@BKBHFNLE@models?1items?1energy_cell?4md3?$AA@ 3009f2b8     bg_misc.obj
 0002:000012d8       ??_C@_0N@JHBODPOG@ammo_blaster?$AA@ 3009f2d8     bg_misc.obj
 0002:000012e8       ??_C@_0BH@MFDMPLPM@gfx?1hud?1i_icon_battery?$AA@ 3009f2e8     bg_misc.obj
 0002:00001300       ??_C@_0P@GBMHNHF@ammo_powercell?$AA@ 3009f300     bg_misc.obj
 0002:00001310       ??_C@_0BM@GDMBBHDI@models?1items?1power_cell?4md3?$AA@ 3009f310     bg_misc.obj
 0002:0000132c       ??_C@_0BH@KBMOAFPH@gfx?1mp?1ammo_power_cell?$AA@ 3009f32c     bg_misc.obj
 0002:00001344       ??_C@_0BE@OMMGIMPN@ammo_metallic_bolts?$AA@ 3009f344     bg_misc.obj
 0002:00001358       ??_C@_0CA@POKDMLNN@models?1items?1metallic_bolts?4md3?$AA@ 3009f358     bg_misc.obj
 0002:00001378       ??_C@_0BL@IPLJCMOM@gfx?1mp?1ammo_metallic_bolts?$AA@ 3009f378     bg_misc.obj
 0002:00001394       ??_C@_0N@CLEPKBOE@ammo_rockets?$AA@ 3009f394     bg_misc.obj
 0002:000013a4       ??_C@_0BJ@BCBNBFGD@models?1items?1rockets?4md3?$AA@ 3009f3a4     bg_misc.obj
 0002:000013c0       ??_C@_0BE@IIEBFJHN@gfx?1mp?1ammo_rockets?$AA@ 3009f3c0     bg_misc.obj
 0002:000013d4       ??_C@_08LLJPIFOF@ammo_all?$AA@ 3009f3d4     bg_misc.obj
 0002:000013e0       ??_C@_0BJ@DIDDNCPE@models?1items?1battery?4md3?$AA@ 3009f3e0     bg_misc.obj
 0002:000013fc       ??_C@_0BB@JNMMCIHG@team_CTF_redflag?$AA@ 3009f3fc     bg_misc.obj
 0002:00001410       ??_C@_0BI@PEHEOJEO@models?1flags?1r_flag?4md3?$AA@ 3009f410     bg_misc.obj
 0002:00001428       ??_C@_0BN@DGDBEGIO@models?1flags?1r_flag_ysal?4md3?$AA@ 3009f428     bg_misc.obj
 0002:00001448       ??_C@_0BC@JAMFOFAL@gfx?1hud?1mpi_rflag?$AA@ 3009f448     bg_misc.obj
 0002:0000145c       ??_C@_0BC@NLKCOFAB@team_CTF_blueflag?$AA@ 3009f45c     bg_misc.obj
 0002:00001470       ??_C@_0BI@FKICCNIF@models?1flags?1b_flag?4md3?$AA@ 3009f470     bg_misc.obj
 0002:00001488       ??_C@_0BN@NABGHIBA@models?1flags?1b_flag_ysal?4md3?$AA@ 3009f488     bg_misc.obj
 0002:000014a8       ??_C@_0BC@JDBDOHJA@gfx?1hud?1mpi_bflag?$AA@ 3009f4a8     bg_misc.obj
 0002:000014bc       ??_C@_0BF@NFGOPKAE@team_CTF_neutralflag?$AA@ 3009f4bc     bg_misc.obj
 0002:000014d4       ??_C@_0BI@FAJILPEC@models?1flags?1n_flag?4md3?$AA@ 3009f4d4     bg_misc.obj
 0002:000014ec       ??_C@_0BF@OGGGKBMJ@icons?1iconf_neutral1?$AA@ 3009f4ec     bg_misc.obj
 0002:00001504       ??_C@_0N@IDOEINCB@item_redcube?$AA@ 3009f504     bg_misc.obj
 0002:00001514       ??_C@_0BO@LDKNFLC@models?1powerups?1orb?1r_orb?4md3?$AA@ 3009f514     bg_misc.obj
 0002:00001534       ??_C@_0BB@PKDLFOID@icons?1iconh_rorb?$AA@ 3009f534     bg_misc.obj
 0002:00001548       ??_C@_0O@NHDOFNIN@item_bluecube?$AA@ 3009f548     bg_misc.obj
 0002:00001558       ??_C@_0BO@CMJEFEFK@models?1powerups?1orb?1b_orb?4md3?$AA@ 3009f558     bg_misc.obj
 0002:00001578       ??_C@_0BB@JKNLMJAB@icons?1iconh_borb?$AA@ 3009f578     bg_misc.obj
 0002:0000158c       ??_C@_07JFMDDPHJ@EV_NONE?$AA@ 3009f58c     bg_misc.obj
 0002:00001594       ??_C@_0O@JHBAELOC@EV_CLIENTJOIN?$AA@ 3009f594     bg_misc.obj
 0002:000015a4       ??_C@_0M@HLKBOJPO@EV_FOOTSTEP?$AA@ 3009f5a4     bg_misc.obj
 0002:000015b0       ??_C@_0BC@DIJMAMMI@EV_FOOTSTEP_METAL?$AA@ 3009f5b0     bg_misc.obj
 0002:000015c4       ??_C@_0O@HLJHKIDH@EV_FOOTSPLASH?$AA@ 3009f5c4     bg_misc.obj
 0002:000015d4       ??_C@_0M@NPJBGELA@EV_FOOTWADE?$AA@ 3009f5d4     bg_misc.obj
 0002:000015e0       ??_C@_07FFIIIPLH@EV_SWIM?$AA@ 3009f5e0     bg_misc.obj
 0002:000015e8       ??_C@_09OLFOHJNB@EV_STEP_4?$AA@ 3009f5e8     bg_misc.obj
 0002:000015f4       ??_C@_09EHOLDGNN@EV_STEP_8?$AA@ 3009f5f4     bg_misc.obj
 0002:00001600       ??_C@_0L@BKIECKKB@EV_STEP_12?$AA@ 3009f600     bg_misc.obj
 0002:0000160c       ??_C@_0L@HOOIOPKF@EV_STEP_16?$AA@ 3009f60c     bg_misc.obj
 0002:00001618       ??_C@_07JHCKGMKM@EV_FALL?$AA@ 3009f618     bg_misc.obj
 0002:00001620       ??_C@_0N@PAALAJAC@EV_SABERLOCK?$AA@ 3009f620     bg_misc.obj
 0002:00001630       ??_C@_0P@BMAPLDAL@EV_GHOUL2_MARK?$AA@ 3009f630     bg_misc.obj
 0002:00001640       ??_C@_0P@MHGGNABN@EV_GLOBAL_DUEL?$AA@ 3009f640     bg_misc.obj
 0002:00001650       ??_C@_0BA@NCAJLGNF@EV_PRIVATE_DUEL?$AA@ 3009f650     bg_misc.obj
 0002:00001660       ??_C@_07GKBEHGAP@EV_JUMP?$AA@ 3009f660     bg_misc.obj
 0002:00001668       ??_C@_07OCJFCKNN@EV_ROLL?$AA@ 3009f668     bg_misc.obj
 0002:00001670       ??_C@_0P@GCDBKPMP@EV_WATER_TOUCH?$AA@ 3009f670     bg_misc.obj
 0002:00001680       ??_C@_0P@LHDMOIIG@EV_WATER_LEAVE?$AA@ 3009f680     bg_misc.obj
 0002:00001690       ??_C@_0P@MIAIODEJ@EV_WATER_UNDER?$AA@ 3009f690     bg_misc.obj
 0002:000016a0       ??_C@_0P@NIPCJOBG@EV_WATER_CLEAR?$AA@ 3009f6a0     bg_misc.obj
 0002:000016b0       ??_C@_0P@BGIOEPCB@EV_ITEM_PICKUP?$AA@ 3009f6b0     bg_misc.obj
 0002:000016c0       ??_C@_0BG@KFILGAMN@EV_GLOBAL_ITEM_PICKUP?$AA@ 3009f6c0     bg_misc.obj
 0002:000016d8       ??_C@_0M@MNGOLNFL@EV_VEH_FIRE?$AA@ 3009f6d8     bg_misc.obj
 0002:000016e4       ??_C@_09NMIICG@EV_NOAMMO?$AA@ 3009f6e4     bg_misc.obj
 0002:000016f0       ??_C@_0BB@ENKPHJLP@EV_CHANGE_WEAPON?$AA@ 3009f6f0     bg_misc.obj
 0002:00001704       ??_C@_0P@PFJPAFGH@EV_FIRE_WEAPON?$AA@ 3009f704     bg_misc.obj
 0002:00001714       ??_C@_0M@LKPOHPHC@EV_ALT_FIRE?$AA@ 3009f714     bg_misc.obj
 0002:00001720       ??_C@_0BA@FJAFFDLF@EV_SABER_ATTACK?$AA@ 3009f720     bg_misc.obj
 0002:00001730       ??_C@_0N@IKFBFHKB@EV_SABER_HIT?$AA@ 3009f730     bg_misc.obj
 0002:00001740       ??_C@_0P@MNCBBKHB@EV_SABER_BLOCK?$AA@ 3009f740     bg_misc.obj
 0002:00001750       ??_C@_0BE@HNEOPGEL@EV_SABER_CLASHFLARE?$AA@ 3009f750     bg_misc.obj
 0002:00001764       ??_C@_0BD@FFJMPGGA@EV_SABER_UNHOLSTER?$AA@ 3009f764     bg_misc.obj
 0002:00001778       ??_C@_0BF@MBILLJJH@EV_BECOME_JEDIMASTER?$AA@ 3009f778     bg_misc.obj
 0002:00001790       ??_C@_0BH@KDGLLAMO@EV_DISRUPTOR_MAIN_SHOT?$AA@ 3009f790     bg_misc.obj
 0002:000017a8       ??_C@_0BJ@MDNKGNJN@EV_DISRUPTOR_SNIPER_SHOT?$AA@ 3009f7a8     bg_misc.obj
 0002:000017c4       ??_C@_0BJ@POMLOPMI@EV_DISRUPTOR_SNIPER_MISS?$AA@ 3009f7c4     bg_misc.obj
 0002:000017e0       ??_C@_0BB@JNGCFFFI@EV_DISRUPTOR_HIT?$AA@ 3009f7e0     bg_misc.obj
 0002:000017f4       ??_C@_0BH@GCPNKPAL@EV_DISRUPTOR_ZOOMSOUND?$AA@ 3009f7f4     bg_misc.obj
 0002:0000180c       ??_C@_0P@MDPKBHNH@EV_PREDEFSOUND?$AA@ 3009f80c     bg_misc.obj
 0002:0000181c       ??_C@_0O@GMONIJJI@EV_TEAM_POWER?$AA@ 3009f81c     bg_misc.obj
 0002:0000182c       ??_C@_0P@EIHBPBOL@EV_SCREENSHAKE?$AA@ 3009f82c     bg_misc.obj
 0002:0000183c       ??_C@_0O@GLOAIHAI@EV_LOCALTIMER?$AA@ 3009f83c     bg_misc.obj
 0002:0000184c       ??_C@_06LBDBNJG@EV_USE?$AA@ 3009f84c     bg_misc.obj
 0002:00001854       ??_C@_0N@CGCBJKGD@EV_USE_ITEM0?$AA@ 3009f854     bg_misc.obj
 0002:00001864       ??_C@_0N@DPDKKLCC@EV_USE_ITEM1?$AA@ 3009f864     bg_misc.obj
 0002:00001874       ??_C@_0N@BEBHPIOB@EV_USE_ITEM2?$AA@ 3009f874     bg_misc.obj
 0002:00001884       ??_C@_0N@NAMMJKA@EV_USE_ITEM3?$AA@ 3009f884     bg_misc.obj
 0002:00001894       ??_C@_0N@ECENFPGH@EV_USE_ITEM4?$AA@ 3009f894     bg_misc.obj
 0002:000018a4       ??_C@_0N@FLFGGOCG@EV_USE_ITEM5?$AA@ 3009f8a4     bg_misc.obj
 0002:000018b4       ??_C@_0N@HAHLDNOF@EV_USE_ITEM6?$AA@ 3009f8b4     bg_misc.obj
 0002:000018c4       ??_C@_0N@GJGAAMKE@EV_USE_ITEM7?$AA@ 3009f8c4     bg_misc.obj
 0002:000018d4       ??_C@_0N@OOPIBAGL@EV_USE_ITEM8?$AA@ 3009f8d4     bg_misc.obj
 0002:000018e4       ??_C@_0N@PHODCBCK@EV_USE_ITEM9?$AA@ 3009f8e4     bg_misc.obj
 0002:000018f4       ??_C@_0O@KBJENLM@EV_USE_ITEM10?$AA@ 3009f8f4     bg_misc.obj
 0002:00001904       ??_C@_0O@BDACHMPN@EV_USE_ITEM11?$AA@ 3009f904     bg_misc.obj
 0002:00001914       ??_C@_0O@DICPCPDO@EV_USE_ITEM12?$AA@ 3009f914     bg_misc.obj
 0002:00001924       ??_C@_0O@CBDEBOHP@EV_USE_ITEM13?$AA@ 3009f924     bg_misc.obj
 0002:00001934       ??_C@_0O@GOHFIILI@EV_USE_ITEM14?$AA@ 3009f934     bg_misc.obj
 0002:00001944       ??_C@_0O@HHGOLJPJ@EV_USE_ITEM15?$AA@ 3009f944     bg_misc.obj
 0002:00001954       ??_C@_0P@JFHCOBFC@EV_ITEMUSEFAIL?$AA@ 3009f954     bg_misc.obj
 0002:00001964       ??_C@_0BA@GJNCODNG@EV_ITEM_RESPAWN?$AA@ 3009f964     bg_misc.obj
 0002:00001974       ??_C@_0M@ECGFPIMP@EV_ITEM_POP?$AA@ 3009f974     bg_misc.obj
 0002:00001980       ??_C@_0BG@HBBJKNDP@EV_PLAYER_TELEPORT_IN?$AA@ 3009f980     bg_misc.obj
 0002:00001998       ??_C@_0BH@FNNILPIN@EV_PLAYER_TELEPORT_OUT?$AA@ 3009f998     bg_misc.obj
 0002:000019b0       ??_C@_0BC@ECIIAFLJ@EV_GRENADE_BOUNCE?$AA@ 3009f9b0     bg_misc.obj
 0002:000019c4       ??_C@_0BB@JGOOAGDJ@EV_MISSILE_STICK?$AA@ 3009f9c4     bg_misc.obj
 0002:000019d8       ??_C@_0P@PLIFONPM@EV_PLAY_EFFECT?$AA@ 3009f9d8     bg_misc.obj
 0002:000019e8       ??_C@_0BC@LCOMFDPL@EV_PLAY_EFFECT_ID?$AA@ 3009f9e8     bg_misc.obj
 0002:000019fc       ??_C@_0BJ@CGDHKBCK@EV_PLAY_PORTAL_EFFECT_ID?$AA@ 3009f9fc     bg_misc.obj
 0002:00001a18       ??_C@_0BB@OGNONJKP@EV_PLAYDOORSOUND?$AA@ 3009fa18     bg_misc.obj
 0002:00001a2c       ??_C@_0BF@BLAPJAMF@EV_PLAYDOORLOOPSOUND?$AA@ 3009fa2c     bg_misc.obj
 0002:00001a44       ??_C@_0BA@EGLCGAMO@EV_BMODEL_SOUND?$AA@ 3009fa44     bg_misc.obj
 0002:00001a54       ??_C@_0O@JHBKAOKG@EV_MUTE_SOUND?$AA@ 3009fa54     bg_misc.obj
 0002:00001a64       ??_C@_0BC@GMNGJAOD@EV_VOICECMD_SOUND?$AA@ 3009fa64     bg_misc.obj
 0002:00001a78       ??_C@_0BB@LJGGMAII@EV_GENERAL_SOUND?$AA@ 3009fa78     bg_misc.obj
 0002:00001a8c       ??_C@_0BA@JAMKLOPJ@EV_GLOBAL_SOUND?$AA@ 3009fa8c     bg_misc.obj
 0002:00001a9c       ??_C@_0BF@DDOIKLHD@EV_GLOBAL_TEAM_SOUND?$AA@ 3009fa9c     bg_misc.obj
 0002:00001ab4       ??_C@_0BA@LLJGBFCE@EV_ENTITY_SOUND?$AA@ 3009fab4     bg_misc.obj
 0002:00001ac4       ??_C@_0N@BEKJCCJE@EV_PLAY_ROFF?$AA@ 3009fac4     bg_misc.obj
 0002:00001ad4       ??_C@_0BB@HHFJBAND@EV_GLASS_SHATTER?$AA@ 3009fad4     bg_misc.obj
 0002:00001ae8       ??_C@_09KLJDDMJG@EV_DEBRIS?$AA@ 3009fae8     bg_misc.obj
 0002:00001af4       ??_C@_0BC@MLGOBNCG@EV_MISC_MODEL_EXP?$AA@ 3009faf4     bg_misc.obj
 0002:00001b08       ??_C@_0BD@PIOAMKHB@EV_CONC_ALT_IMPACT?$AA@ 3009fb08     bg_misc.obj
 0002:00001b1c       ??_C@_0P@JFMFNBMO@EV_MISSILE_HIT?$AA@ 3009fb1c     bg_misc.obj
 0002:00001b2c       ??_C@_0BA@CAHALNAE@EV_MISSILE_MISS?$AA@ 3009fb2c     bg_misc.obj
 0002:00001b3c       ??_C@_0BG@LPAHEABB@EV_MISSILE_MISS_METAL?$AA@ 3009fb3c     bg_misc.obj
 0002:00001b54       ??_C@_09ICDIPKFJ@EV_BULLET?$AA@ 3009fb54     bg_misc.obj
 0002:00001b60       ??_C@_07EMHHKOOH@EV_PAIN?$AA@ 3009fb60     bg_misc.obj
 0002:00001b68       ??_C@_09JPFBHKII@EV_DEATH1?$AA@ 3009fb68     bg_misc.obj
 0002:00001b74       ??_C@_09LEHMCJEL@EV_DEATH2?$AA@ 3009fb74     bg_misc.obj
 0002:00001b80       ??_C@_09KNGHBIAK@EV_DEATH3?$AA@ 3009fb80     bg_misc.obj
 0002:00001b8c       ??_C@_0M@PPLCDPP@EV_OBITUARY?$AA@ 3009fb8c     bg_misc.obj
 0002:00001b98       ??_C@_0BA@HLHGHIIE@EV_POWERUP_QUAD?$AA@ 3009fb98     bg_misc.obj
 0002:00001ba8       ??_C@_0BG@CHAMNADK@EV_POWERUP_BATTLESUIT?$AA@ 3009fba8     bg_misc.obj
 0002:00001bc0       ??_C@_0BB@KGMADNKO@EV_FORCE_DRAINED?$AA@ 3009fbc0     bg_misc.obj
 0002:00001bd4       ??_C@_0O@JLGFLKBE@EV_GIB_PLAYER?$AA@ 3009fbd4     bg_misc.obj
 0002:00001be4       ??_C@_0N@GAJBP@EV_SCOREPLUM?$AA@ 3009fbe4     bg_misc.obj
 0002:00001bf4       ??_C@_0O@NEHCEMNJ@EV_CTFMESSAGE?$AA@ 3009fbf4     bg_misc.obj
 0002:00001c04       ??_C@_0M@GBGEMMKK@EV_BODYFADE?$AA@ 3009fc04     bg_misc.obj
 0002:00001c10       ??_C@_0BD@LACADBAO@EV_SIEGE_ROUNDOVER?$AA@ 3009fc10     bg_misc.obj
 0002:00001c24       ??_C@_0BL@CGBBFEIE@EV_SIEGE_OBJECTIVECOMPLETE?$AA@ 3009fc24     bg_misc.obj
 0002:00001c40       ??_C@_0BL@DNICLAEN@EV_DESTROY_GHOUL2_INSTANCE?$AA@ 3009fc40     bg_misc.obj
 0002:00001c5c       ??_C@_0BI@CEGPCIEH@EV_DESTROY_WEAPON_MODEL?$AA@ 3009fc5c     bg_misc.obj
 0002:00001c74       ??_C@_0BB@JIHOLMBD@EV_GIVE_NEW_RANK?$AA@ 3009fc74     bg_misc.obj
 0002:00001c88       ??_C@_0BC@DDJADHAK@EV_SET_FREE_SABER?$AA@ 3009fc88     bg_misc.obj
 0002:00001c9c       ??_C@_0BF@KFICFFCM@EV_SET_FORCE_DISABLE?$AA@ 3009fc9c     bg_misc.obj
 0002:00001cb4       ??_C@_0BB@HAHOHAKJ@EV_WEAPON_CHARGE?$AA@ 3009fcb4     bg_misc.obj
 0002:00001cc8       ??_C@_0BF@LLJHJACN@EV_WEAPON_CHARGE_ALT?$AA@ 3009fcc8     bg_misc.obj
 0002:00001ce0       ??_C@_0O@CBLOOGHB@EV_SHIELD_HIT?$AA@ 3009fce0     bg_misc.obj
 0002:00001cf0       ??_C@_0O@PBPAKHP@EV_DEBUG_LINE?$AA@ 3009fcf0     bg_misc.obj
 0002:00001d00       ??_C@_0M@LDAKOPJP@EV_TESTLINE?$AA@ 3009fd00     bg_misc.obj
 0002:00001d0c       ??_C@_0BE@OHJHDFJH@EV_STOPLOOPINGSOUND?$AA@ 3009fd0c     bg_misc.obj
 0002:00001d20       ??_C@_0BF@EAHNFOOG@EV_STARTLOOPINGSOUND?$AA@ 3009fd20     bg_misc.obj
 0002:00001d38       ??_C@_08GBKLDCBE@EV_TAUNT?$AA@ 3009fd38     bg_misc.obj
 0002:00001d44       ??_C@_0BG@LLNBCDKB@EV_PLAY_EFFECT_BOLTED?$AA@ 3009fd44     bg_misc.obj
 0002:00001d5c       ??_C@_09EPBMGDBP@l_arm_key?$AA@ 3009fd5c     bg_misc.obj
 0002:00001d68       ??_C@_0BA@FKJGEIF@torso_canister1?$AA@ 3009fd68     bg_misc.obj
 0002:00001d78       ??_C@_0BA@COIEDHEG@torso_canister2?$AA@ 3009fd78     bg_misc.obj
 0002:00001d88       ??_C@_0BA@DHJPAGAH@torso_canister3?$AA@ 3009fd88     bg_misc.obj
 0002:00001d98       ??_C@_0M@DPGBHBIA@torso_tube1?$AA@ 3009fd98     bg_misc.obj
 0002:00001da8       _bgToggleableSurfaceDebris 3009fda8     bg_misc.obj
 0002:00001e24       ??_C@_0M@BEEMCCED@torso_tube2?$AA@ 3009fe24     bg_misc.obj
 0002:00001e30       ??_C@_0M@NFHBDAC@torso_tube3?$AA@ 3009fe30     bg_misc.obj
 0002:00001e3c       ??_C@_0M@ECBGIFMF@torso_tube4?$AA@ 3009fe3c     bg_misc.obj
 0002:00001e48       ??_C@_0M@FLANLEIE@torso_tube5?$AA@ 3009fe48     bg_misc.obj
 0002:00001e54       ??_C@_0M@HACAOHEH@torso_tube6?$AA@ 3009fe54     bg_misc.obj
 0002:00001e60       ??_C@_05LGCIJDDO@r_arm?$AA@ 3009fe60     bg_misc.obj
 0002:00001e68       ??_C@_05IPPEPANF@l_arm?$AA@ 3009fe68     bg_misc.obj
 0002:00001e70       ??_C@_0N@IFENOPML@torso_shield?$AA@ 3009fe70     bg_misc.obj
 0002:00001e80       ??_C@_0BB@FPOHHKLE@torso_galaktorso?$AA@ 3009fe80     bg_misc.obj
 0002:00001e94       ??_C@_0N@FODOKFMD@torso_collar?$AA@ 3009fe94     bg_misc.obj
 0002:00001ea4       ??_C@_07HDAMFNEH@r_wing1?$AA@ 3009fea4     bg_misc.obj
 0002:00001eac       ??_C@_07FICBAOIE@r_wing2?$AA@ 3009feac     bg_misc.obj
 0002:00001eb4       ??_C@_07BKDNHOFO@l_wing1?$AA@ 3009feb4     bg_misc.obj
 0002:00001ebc       ??_C@_07DBBACNJN@l_wing2?$AA@ 3009febc     bg_misc.obj
 0002:00001ec4       ??_C@_06JHEKENKO@r_gear?$AA@ 3009fec4     bg_misc.obj
 0002:00001ecc       ??_C@_06KAKLKKDN@l_gear?$AA@ 3009fecc     bg_misc.obj
 0002:00001ed4       ??_C@_04DCKHGPHA@nose?$AA@ 3009fed4     bg_misc.obj
 0002:00001edc       ??_C@_05CJLHJDEI@blah4?$AA@ 3009fedc     bg_misc.obj
 0002:00001ee4       ??_C@_05DAKMKCAJ@blah5?$AA@ 3009fee4     bg_misc.obj
 0002:00001eec       ??_C@_06LKFNFIFB@l_hand?$AA@ 3009feec     bg_misc.obj
 0002:00001ef4       ??_C@_06INLMLPMC@r_hand?$AA@ 3009fef4     bg_misc.obj
 0002:00001efc       ??_C@_06BCDCLMEB@helmet?$AA@ 3009fefc     bg_misc.obj
 0002:00001f04       ??_C@_04NEODDMOL@head?$AA@ 3009ff04     bg_misc.obj
 0002:00001f0c       ??_C@_0BI@FPANAMDK@head_concussion_charger?$AA@ 3009ff0c     bg_misc.obj
 0002:00001f24       ??_C@_0BI@KPCBHBOL@head_light_blaster_cann?$AA@ 3009ff24     bg_misc.obj
 0002:00001f3c       ??_C@_0N@ODJGPHCM@force_shield?$AA@ 3009ff3c     bg_misc.obj
 0002:00001f4c       ??_C@_0M@MHLPAMFK@?$CKatt_attack?$AA@ 3009ff4c     bg_misc.obj
 0002:00001f58       ??_C@_0N@GFADGNOG@?$CKatt_primary?$AA@ 3009ff58     bg_misc.obj
 0002:00001f68       ??_C@_0M@ECCLODLO@?$CKatt_second?$AA@ 3009ff68     bg_misc.obj
 0002:00001f74       ??_C@_09PJJIIOPG@?$CKdef_guns?$AA@ 3009ff74     bg_misc.obj
 0002:00001f80       ??_C@_0O@EGEINPEB@?$CKdef_position?$AA@ 3009ff80     bg_misc.obj
 0002:00001f90       ??_C@_0N@LBIDFACI@?$CKdef_primary?$AA@ 3009ff90     bg_misc.obj
 0002:00001fa0       ??_C@_0M@HJCGMPNN@?$CKdef_second?$AA@ 3009ffa0     bg_misc.obj
 0002:00001fac       ??_C@_0O@LCDECPIN@?$CKreply_coming?$AA@ 3009ffac     bg_misc.obj
 0002:00001fbc       ??_C@_09FJFLGJJB@?$CKreply_go?$AA@ 3009ffbc     bg_misc.obj
 0002:00001fc8       ??_C@_09FGIKFCBO@?$CKreply_no?$AA@ 3009ffc8     bg_misc.obj
 0002:00001fd4       ??_C@_0M@PJKELJII@?$CKreply_stay?$AA@ 3009ffd4     bg_misc.obj
 0002:00001fe0       ??_C@_0L@DOBCHHPE@?$CKreply_yes?$AA@ 3009ffe0     bg_misc.obj
 0002:00001fec       ??_C@_0M@MJLNGIKA@?$CKreq_assist?$AA@ 3009ffec     bg_misc.obj
 0002:00001ff8       ??_C@_09HHLDNJAG@?$CKreq_demo?$AA@ 3009fff8     bg_misc.obj
 0002:00002004       ??_C@_08BDPMJJAM@?$CKreq_hvy?$AA@ 300a0004     bg_misc.obj
 0002:00002010       ??_C@_0L@PJEOEMHI@?$CKreq_medic?$AA@ 300a0010     bg_misc.obj
 0002:0000201c       ??_C@_08EHGAEMIC@?$CKreq_sup?$AA@ 300a001c     bg_misc.obj
 0002:00002028       ??_C@_09FCIMPFEJ@?$CKreq_tech?$AA@ 300a0028     bg_misc.obj
 0002:00002034       ??_C@_09KPOPDKGM@?$CKspot_air?$AA@ 300a0034     bg_misc.obj
 0002:00002040       ??_C@_0P@ILGDCGKG@?$CKspot_defenses?$AA@ 300a0040     bg_misc.obj
 0002:00002050       ??_C@_0P@LLDGJFLE@?$CKspot_emplaced?$AA@ 300a0050     bg_misc.obj
 0002:00002060       ??_C@_0N@JGIPLKJE@?$CKspot_sniper?$AA@ 300a0060     bg_misc.obj
 0002:00002070       ??_C@_0N@KDPAKEEJ@?$CKspot_troops?$AA@ 300a0070     bg_misc.obj
 0002:00002080       ??_C@_0L@EHELGHNE@?$CKtac_cover?$AA@ 300a0080     bg_misc.obj
 0002:0000208c       ??_C@_0O@NFGMPNBH@?$CKtac_fallback?$AA@ 300a008c     bg_misc.obj
 0002:0000209c       ??_C@_0M@PABJGNLG@?$CKtac_follow?$AA@ 300a009c     bg_misc.obj
 0002:000020a8       ??_C@_09DINJJNAI@?$CKtac_hold?$AA@ 300a00a8     bg_misc.obj
 0002:000020b4       ??_C@_0L@MGMJIMAF@?$CKtac_split?$AA@ 300a00b4     bg_misc.obj
 0002:000020c0       ??_C@_0O@GKPNHIOC@?$CKtac_together?$AA@ 300a00c0     bg_misc.obj
 0002:000020d0       ??_C@_08BLACEHGF@MASTERY0?$AA@ 300a00d0     bg_misc.obj
 0002:000020dc       ??_C@_08CBJHGCE@MASTERY1?$AA@ 300a00dc     bg_misc.obj
 0002:000020e8       ??_C@_08CJDECFOH@MASTERY2?$AA@ 300a00e8     bg_misc.obj
 0002:000020f4       ??_C@_08DACPBEKG@MASTERY3?$AA@ 300a00f4     bg_misc.obj
 0002:00002100       ??_C@_08HPGOICGB@MASTERY4?$AA@ 300a0100     bg_misc.obj
 0002:0000210c       ??_C@_08GGHFLDCA@MASTERY5?$AA@ 300a010c     bg_misc.obj
 0002:00002118       ??_C@_08ENFIOAOD@MASTERY6?$AA@ 300a0118     bg_misc.obj
 0002:00002124       ??_C@_08FEEDNBKC@MASTERY7?$AA@ 300a0124     bg_misc.obj
 0002:0000212d       ??_C@_00CNPNBAHC@?$AA@     300a012d     bg_misc.obj
 0002:00002130       ??_C@_0BH@DINJFPKN@item_shield_sm_instant?$AA@ 300a0130     bg_misc.obj
 0002:00002148       ??_C@_0BO@CHCEMMJK@sound?1player?1pickupshield?4wav?$AA@ 300a0148     bg_misc.obj
 0002:00002168       ??_C@_0CB@FFNAAGJJ@models?1map_objects?1mp?1psd_sm?4md3@ 300a0168     bg_misc.obj
 0002:0000218c       ??_C@_0BE@GPDHMLPP@gfx?1mp?1small_shield?$AA@ 300a018c     bg_misc.obj
 0002:000021a0       ??_C@_0BI@HGJKGJEB@item_shield_lrg_instant?$AA@ 300a01a0     bg_misc.obj
 0002:000021b8       ??_C@_0BO@JPJCNECL@models?1map_objects?1mp?1psd?4md3?$AA@ 300a01b8     bg_misc.obj
 0002:000021d8       ??_C@_0BE@JKBNBKPH@gfx?1mp?1large_shield?$AA@ 300a01d8     bg_misc.obj
 0002:000021ec       ??_C@_0BE@MEFMIHAD@item_medpak_instant?$AA@ 300a01ec     bg_misc.obj
 0002:00002200       ??_C@_0BO@NIGJKPEE@sound?1player?1pickuphealth?4wav?$AA@ 300a0200     bg_misc.obj
 0002:00002220       ??_C@_0CB@PABPOCJH@models?1map_objects?1mp?1medpac?4md3@ 300a0220     bg_misc.obj
 0002:00002244       ??_C@_08OEKJENGB@?$CFf?5?$CFf?5?$CFf?$AA@ 300a0244     bg_misc.obj
 0002:00002250       ??_C@_0CI@GINMDDBF@5?91?90000000000000000000000000000@ 300a0250     bg_misc.obj
 0002:00002278       ??_C@_02IKAHHCAI@?$CFi?$AA@ 300a0278     bg_misc.obj
 0002:0000227c       ??_C@_0BH@MFGKJDLM@HoldableItem?5not?5found?$AA@ 300a027c     bg_misc.obj
 0002:00002294       ??_C@_0CB@DEACFJO@Couldn?8t?5find?5item?5for?5weapon?5?$CFi@ 300a0294     bg_misc.obj
 0002:000022b8       ??_C@_0CI@MFONMA@BG_CanItemBeGrabbed?3?5index?5out?5o@ 300a02b8     bg_misc.obj
 0002:000022e0       ??_C@_0BM@NECGLAIF@BG_CanItemBeGrabbed?3?5IT_BAD?$AA@ 300a02e0     bg_misc.obj
 0002:000022fc       ??_C@_0DM@PPIGHFEL@BG_EvaluateTrajectory?3?5?$FLCLIENTGA@ 300a02fc     bg_misc.obj
 0002:00002338       ??_C@_0CP@MCFPOIMF@BG_EvaluateTrajectoryDelta?3?5unkn@ 300a0338     bg_misc.obj
 0002:00002368       ??_C@_04EEIGNHLG@menu?$AA@ 300a0368     bg_misc.obj
 0002:00002370       ??_C@_04JIEPAMAO@kyle?$AA@ 300a0370     bg_misc.obj
 0002:00002378       ??_C@_04BEPDCOC@fpls?$AA@  300a0378     bg_misc.obj
 0002:00002380       ??_C@_05KDHFJIBH@fpls2?$AA@ 300a0380     bg_misc.obj
 0002:00002388       ??_C@_05LKGOKJFG@fpls3?$AA@ 300a0388     bg_misc.obj
 0002:00002390       ??_C@_05HIOBFLDN@jedi_?$AA@ 300a0390     bg_misc.obj
 0002:00002398       ??_C@_03FAAAOPJM@red?$AA@  300a0398     bg_misc.obj
 0002:0000239c       ??_C@_04OBGPFBCN@blue?$AA@ 300a039c     bg_misc.obj
 0002:000023a4       ??_C@_07DLHCIBDH@default?$AA@ 300a03a4     bg_misc.obj
 0002:000023ac       ??_C@_04NCFJPIH@_red?$AA@  300a03ac     bg_misc.obj
 0002:000023b4       ??_C@_0CA@ODGGEHPP@models?1players?1?$CFs?1model_?$CFs?4skin?$AA@ 300a03b4     bg_misc.obj
 0002:000023d4       ??_C@_05GLFHLNLB@_blue?$AA@ 300a03d4     bg_misc.obj
 0002:000023dc       ??_C@_0CJ@BDGLLNGN@BG_Alloc?3?5buffer?5exceeded?5tail?5?$CI@ 300a03dc     bg_misc.obj
 0002:00002408       ??_C@_0CN@JLGNNLBK@BG_TempAlloc?3?5buffer?5exceeded?5he@ 300a0408     bg_misc.obj
 0002:00002438       ??_C@_0CO@IIHBNEDD@BG_TempFree?3?5tail?5greater?5than?5s@ 300a0438     bg_misc.obj
 0002:00002468       __real@3a83126f            300a0468     bg_misc.obj
 0002:00002470       __real@3f50624dd2f1a9fc    300a0470     bg_misc.obj
 0002:00002478       __real@3f800000            300a0478     bg_misc.obj
 0002:00002480       __real@3fe0000000000000    300a0480     bg_misc.obj
 0002:00002488       __real@40000000            300a0488     bg_misc.obj
 0002:00002490       __real@400921fb60000000    300a0490     bg_misc.obj
 0002:00002498       __real@40490fdb            300a0498     bg_misc.obj
 0002:000024a0       __real@4066800000000000    300a04a0     bg_misc.obj
 0002:000024a8       __real@4079000000000000    300a04a8     bg_misc.obj
 0002:000024b0       __real@42100000            300a04b0     bg_misc.obj
 0002:000024b4       __real@42300000            300a04b4     bg_misc.obj
 0002:000024b8       __real@42b40000            300a04b8     bg_misc.obj
 0002:000024bc       __real@43340000            300a04bc     bg_misc.obj
 0002:000024c0       __real@43b40000            300a04c0     bg_misc.obj
 0002:000024c4       __real@44480000            300a04c4     bg_misc.obj
 0002:000024c8       __real@bf800000            300a04c8     bg_misc.obj
 0002:000024cc       __real@c2100000            300a04cc     bg_misc.obj
 0002:000024d0       __real@c2480000            300a04d0     bg_misc.obj
 0002:000024d4       ??_C@_0O@HGGPNBCH@BOTH_V1_BL_S1?$AA@ 300a04d4     bg_panimate.obj
 0002:000024e4       ??_C@_0O@FBCPDMHF@BOTH_V1_B__S1?$AA@ 300a04e4     bg_panimate.obj
 0002:000024f4       ??_C@_0O@CFJEONCI@BOTH_H1_S1_T_?$AA@ 300a04f4     bg_panimate.obj
 0002:00002504       ??_C@_0O@JADKJDGF@BOTH_H1_S1_TR?$AA@ 300a0504     bg_panimate.obj
 0002:00002514       ??_C@_0O@EEHLKMLK@BOTH_H1_S1_TL?$AA@ 300a0514     bg_panimate.obj
 0002:00002524       ??_C@_0O@FMNAHDHI@BOTH_H1_S1_BL?$AA@ 300a0524     bg_panimate.obj
 0002:00002534       ??_C@_0O@DNDPDCOK@BOTH_H1_S1_B_?$AA@ 300a0534     bg_panimate.obj
 0002:00002544       ??_C@_0O@IIJBEMKH@BOTH_H1_S1_BR?$AA@ 300a0544     bg_panimate.obj
 0002:00002554       ??_C@_0O@IKGJNIEI@BOTH_P6_S6_T_?$AA@ 300a0554     bg_panimate.obj
 0002:00002564       ??_C@_0O@DPMHKGAF@BOTH_P6_S6_TR?$AA@ 300a0564     bg_panimate.obj
 0002:00002574       ??_C@_0O@OLIGJJNK@BOTH_P6_S6_TL?$AA@ 300a0574     bg_panimate.obj
 0002:00002584       ??_C@_0O@PDCNEGBI@BOTH_P6_S6_BL?$AA@ 300a0584     bg_panimate.obj
 0002:00002594       ??_C@_0O@CHGMHJMH@BOTH_P6_S6_BR?$AA@ 300a0594     bg_panimate.obj
 0002:000025a4       ??_C@_0O@KEPMAEOE@BOTH_K6_S6_T_?$AA@ 300a05a4     bg_panimate.obj
 0002:000025b4       ??_C@_0O@BBFCHKKJ@BOTH_K6_S6_TR?$AA@ 300a05b4     bg_panimate.obj
 0002:000025c4       ??_C@_0O@MFBDEFHG@BOTH_K6_S6_TL?$AA@ 300a05c4     bg_panimate.obj
 0002:000025d4       ??_C@_0O@NNLIJKLE@BOTH_K6_S6_BL?$AA@ 300a05d4     bg_panimate.obj
 0002:000025e4       ??_C@_0O@LMFHNLCG@BOTH_K6_S6_B_?$AA@ 300a05e4     bg_panimate.obj
 0002:000025f4       ??_C@_0O@JPJKFGL@BOTH_K6_S6_BR?$AA@ 300a05f4     bg_panimate.obj
 0002:00002604       ??_C@_0O@OMDLGHBK@BOTH_V6_BR_S6?$AA@ 300a0604     bg_panimate.obj
 0002:00002614       ??_C@_0O@FDHDHGFP@BOTH_V6__R_S6?$AA@ 300a0614     bg_panimate.obj
 0002:00002624       ??_C@_0O@DJLEIGJM@BOTH_V6_TR_S6?$AA@ 300a0624     bg_panimate.obj
 0002:00002634       ??_C@_0O@MBCEECCN@BOTH_V6_T__S6?$AA@ 300a0634     bg_panimate.obj
 0002:00002644       ??_C@_0O@OGGEKPHP@BOTH_V6_TL_S6?$AA@ 300a0644     bg_panimate.obj
 0002:00002654       ??_C@_0O@IMKDFPLM@BOTH_V6__L_S6?$AA@ 300a0654     bg_panimate.obj
 0002:00002664       ??_C@_0O@DDOLEOPJ@BOTH_V6_BL_S6?$AA@ 300a0664     bg_panimate.obj
 0002:00002674       ??_C@_0O@BEKLKDKL@BOTH_V6_B__S6?$AA@ 300a0674     bg_panimate.obj
 0002:00002684       ??_C@_0O@JNHBDICB@BOTH_H6_S6_T_?$AA@ 300a0684     bg_panimate.obj
 0002:00002694       ??_C@_0O@CINPEGGM@BOTH_H6_S6_TR?$AA@ 300a0694     bg_panimate.obj
 0002:000026a4       ??_C@_0O@PMJOHJLD@BOTH_H6_S6_TL?$AA@ 300a06a4     bg_panimate.obj
 0002:000026b4       ??_C@_0O@OEDFKGHB@BOTH_H6_S6_BL?$AA@ 300a06b4     bg_panimate.obj
 0002:000026c4       ??_C@_0O@IFNKOHOD@BOTH_H6_S6_B_?$AA@ 300a06c4     bg_panimate.obj
 0002:000026d4       ??_C@_0O@DAHEJJKO@BOTH_H6_S6_BR?$AA@ 300a06d4     bg_panimate.obj
 0002:000026e4       ??_C@_0O@HLKDPBGG@BOTH_P7_S7_T_?$AA@ 300a06e4     bg_panimate.obj
 0002:000026f4       ??_C@_0O@MOANIPCL@BOTH_P7_S7_TR?$AA@ 300a06f4     bg_panimate.obj
 0002:00002704       ??_C@_0O@BKEMLAPE@BOTH_P7_S7_TL?$AA@ 300a0704     bg_panimate.obj
 0002:00002714       ??_C@_0O@COHGPDG@BOTH_P7_S7_BL?$AA@ 300a0714     bg_panimate.obj
 0002:00002724       ??_C@_0O@NGKGFAOJ@BOTH_P7_S7_BR?$AA@ 300a0724     bg_panimate.obj
 0002:00002734       ??_C@_0O@FFDGCNMK@BOTH_K7_S7_T_?$AA@ 300a0734     bg_panimate.obj
 0002:00002744       ??_C@_0O@OAJIFDIH@BOTH_K7_S7_TR?$AA@ 300a0744     bg_panimate.obj
 0002:00002754       ??_C@_0O@DENJGMFI@BOTH_K7_S7_TL?$AA@ 300a0754     bg_panimate.obj
 0002:00002764       ??_C@_0O@CMHCLDJK@BOTH_K7_S7_BL?$AA@ 300a0764     bg_panimate.obj
 0002:00002774       ??_C@_0O@ENJNPCAI@BOTH_K7_S7_B_?$AA@ 300a0774     bg_panimate.obj
 0002:00002784       ??_C@_0O@PIDDIMEF@BOTH_K7_S7_BR?$AA@ 300a0784     bg_panimate.obj
 0002:00002794       ??_C@_0O@DJIKFGMF@BOTH_V7_BR_S7?$AA@ 300a0794     bg_panimate.obj
 0002:000027a4       ??_C@_0O@IGMCEHIA@BOTH_V7__R_S7?$AA@ 300a07a4     bg_panimate.obj
 0002:000027b4       ??_C@_0O@OMAFLHED@BOTH_V7_TR_S7?$AA@ 300a07b4     bg_panimate.obj
 0002:000027c4       ??_C@_0O@BEJFHDPC@BOTH_V7_T__S7?$AA@ 300a07c4     bg_panimate.obj
 0002:000027d4       ??_C@_0O@DDNFJOKA@BOTH_V7_TL_S7?$AA@ 300a07d4     bg_panimate.obj
 0002:000027e4       ??_C@_0O@FJBCGOGD@BOTH_V7__L_S7?$AA@ 300a07e4     bg_panimate.obj
 0002:000027f4       ??_C@_0O@OGFKHPCG@BOTH_V7_BL_S7?$AA@ 300a07f4     bg_panimate.obj
 0002:00002804       ??_C@_0O@MBBKJCHE@BOTH_V7_B__S7?$AA@ 300a0804     bg_panimate.obj
 0002:00002814       ??_C@_0O@GMLLBBAP@BOTH_H7_S7_T_?$AA@ 300a0814     bg_panimate.obj
 0002:00002824       ??_C@_0O@NJBFGPEC@BOTH_H7_S7_TR?$AA@ 300a0824     bg_panimate.obj
 0002:00002834       ??_C@_0O@NFEFAJN@BOTH_H7_S7_TL?$AA@ 300a0834     bg_panimate.obj
 0002:00002844       ??_C@_0O@BFPPIPFP@BOTH_H7_S7_BL?$AA@ 300a0844     bg_panimate.obj
 0002:00002854       ??_C@_0O@HEBAMOMN@BOTH_H7_S7_B_?$AA@ 300a0854     bg_panimate.obj
 0002:00002864       ??_C@_0O@MBLOLAIA@BOTH_H7_S7_BR?$AA@ 300a0864     bg_panimate.obj
 0002:00002874       ??_C@_0BF@KNBBBPIF@BOTH_LK_S_DL_S_B_1_L?$AA@ 300a0874     bg_panimate.obj
 0002:0000288c       ??_C@_0BF@ECHNEBP@BOTH_LK_S_DL_S_B_1_W?$AA@ 300a088c     bg_panimate.obj
 0002:000028a4       ??_C@_0BD@FAIJMBFK@BOTH_LK_S_DL_S_L_1?$AA@ 300a08a4     bg_panimate.obj
 0002:000028b8       ??_C@_0BG@FMMJLELD@BOTH_LK_S_DL_S_SB_1_L?$AA@ 300a08b8     bg_panimate.obj
 0002:000028d0       ??_C@_0BG@PFPPHPCJ@BOTH_LK_S_DL_S_SB_1_W?$AA@ 300a08d0     bg_panimate.obj
 0002:000028e8       ??_C@_0BF@KHNEBGJM@BOTH_LK_S_DL_T_B_1_L?$AA@ 300a08e8     bg_panimate.obj
 0002:00002900       ??_C@_0BF@OOCNNAG@BOTH_LK_S_DL_T_B_1_W?$AA@ 300a0900     bg_panimate.obj
 0002:00002918       ??_C@_0BD@ENIMPBOC@BOTH_LK_S_DL_T_L_1?$AA@ 300a0918     bg_panimate.obj
 0002:0000292c       ??_C@_0BG@DIKINJHK@BOTH_LK_S_DL_T_SB_1_L?$AA@ 300a092c     bg_panimate.obj
 0002:00002944       ??_C@_0BG@JBJOBCOA@BOTH_LK_S_DL_T_SB_1_W?$AA@ 300a0944     bg_panimate.obj
 0002:0000295c       ??_C@_0BF@BOKFAPNB@BOTH_LK_S_ST_S_B_1_L?$AA@ 300a095c     bg_panimate.obj
 0002:00002974       ??_C@_0BF@LHJDMEEL@BOTH_LK_S_ST_S_B_1_W?$AA@ 300a0974     bg_panimate.obj
 0002:0000298c       ??_C@_0BD@DHHGMEHM@BOTH_LK_S_ST_S_L_1?$AA@ 300a098c     bg_panimate.obj
 0002:000029a0       ??_C@_0BG@DAHMJFEO@BOTH_LK_S_ST_S_SB_1_L?$AA@ 300a09a0     bg_panimate.obj
 0002:000029b8       ??_C@_0BG@JJEKFONE@BOTH_LK_S_ST_S_SB_1_W?$AA@ 300a09b8     bg_panimate.obj
 0002:000029d0       ??_C@_0BF@BEGAAGMI@BOTH_LK_S_ST_T_B_1_L?$AA@ 300a09d0     bg_panimate.obj
 0002:000029e8       ??_C@_0BF@LNFGMNFC@BOTH_LK_S_ST_T_B_1_W?$AA@ 300a09e8     bg_panimate.obj
 0002:00002a00       ??_C@_0BD@CKHDPEME@BOTH_LK_S_ST_T_L_1?$AA@ 300a0a00     bg_panimate.obj
 0002:00002a14       ??_C@_0BG@FEBNPIIH@BOTH_LK_S_ST_T_SB_1_L?$AA@ 300a0a14     bg_panimate.obj
 0002:00002a2c       ??_C@_0BG@PNCLDDBN@BOTH_LK_S_ST_T_SB_1_W?$AA@ 300a0a2c     bg_panimate.obj
 0002:00002a44       ??_C@_0BE@BGKKDADB@BOTH_LK_S_S_S_B_1_L?$AA@ 300a0a44     bg_panimate.obj
 0002:00002a58       ??_C@_0BE@LPJMPLKL@BOTH_LK_S_S_S_B_1_W?$AA@ 300a0a58     bg_panimate.obj
 0002:00002a6c       ??_C@_0BC@OIKGFGCA@BOTH_LK_S_S_S_L_1?$AA@ 300a0a6c     bg_panimate.obj
 0002:00002a80       ??_C@_0BF@JAHOHIAJ@BOTH_LK_S_S_S_SB_1_L?$AA@ 300a0a80     bg_panimate.obj
 0002:00002a98       ??_C@_0BF@DJEILDJD@BOTH_LK_S_S_S_SB_1_W?$AA@ 300a0a98     bg_panimate.obj
 0002:00002ab0       ??_C@_0BE@BMGPDJCI@BOTH_LK_S_S_T_B_1_L?$AA@ 300a0ab0     bg_panimate.obj
 0002:00002ac4       ??_C@_0BE@LFFJPCLC@BOTH_LK_S_S_T_B_1_W?$AA@ 300a0ac4     bg_panimate.obj
 0002:00002ad8       ??_C@_0BC@PFKDGGJI@BOTH_LK_S_S_T_L_1?$AA@ 300a0ad8     bg_panimate.obj
 0002:00002aec       ??_C@_0BF@PEBPBFMA@BOTH_LK_S_S_T_SB_1_L?$AA@ 300a0aec     bg_panimate.obj
 0002:00002b04       ??_C@_0BF@FNCJNOFK@BOTH_LK_S_S_T_SB_1_W?$AA@ 300a0b04     bg_panimate.obj
 0002:00002b1c       ??_C@_0BG@CLJAPGHI@BOTH_LK_DL_DL_S_B_1_L?$AA@ 300a0b1c     bg_panimate.obj
 0002:00002b34       ??_C@_0BG@ICKGDNOC@BOTH_LK_DL_DL_S_B_1_W?$AA@ 300a0b34     bg_panimate.obj
 0002:00002b4c       ??_C@_0BE@DECCHOJ@BOTH_LK_DL_DL_S_L_1?$AA@ 300a0b4c     bg_panimate.obj
 0002:00002b60       ??_C@_0BH@JPEDLLPL@BOTH_LK_DL_DL_S_SB_1_L?$AA@ 300a0b60     bg_panimate.obj
 0002:00002b78       ??_C@_0BH@DGHFHAGB@BOTH_LK_DL_DL_S_SB_1_W?$AA@ 300a0b78     bg_panimate.obj
 0002:00002b90       ??_C@_0BG@CBFFPPGB@BOTH_LK_DL_DL_T_B_1_L?$AA@ 300a0b90     bg_panimate.obj
 0002:00002ba8       ??_C@_0BG@IIGDDEPL@BOTH_LK_DL_DL_T_B_1_W?$AA@ 300a0ba8     bg_panimate.obj
 0002:00002bc0       ??_C@_0BE@BOEHBHFB@BOTH_LK_DL_DL_T_L_1?$AA@ 300a0bc0     bg_panimate.obj
 0002:00002bd4       ??_C@_0BH@PLCCNGDC@BOTH_LK_DL_DL_T_SB_1_L?$AA@ 300a0bd4     bg_panimate.obj
 0002:00002bec       ??_C@_0BH@FCBEBNKI@BOTH_LK_DL_DL_T_SB_1_W?$AA@ 300a0bec     bg_panimate.obj
 0002:00002c04       ??_C@_0BG@JICEOGCM@BOTH_LK_DL_ST_S_B_1_L?$AA@ 300a0c04     bg_panimate.obj
 0002:00002c1c       ??_C@_0BG@DBBCCNLG@BOTH_LK_DL_ST_S_B_1_W?$AA@ 300a0c1c     bg_panimate.obj
 0002:00002c34       ??_C@_0BE@GELNCCMP@BOTH_LK_DL_ST_S_L_1?$AA@ 300a0c34     bg_panimate.obj
 0002:00002c48       ??_C@_0BH@PDPGJKAG@BOTH_LK_DL_ST_S_SB_1_L?$AA@ 300a0c48     bg_panimate.obj
 0002:00002c60       ??_C@_0BH@FKMAFBJM@BOTH_LK_DL_ST_S_SB_1_W?$AA@ 300a0c60     bg_panimate.obj
 0002:00002c78       ??_C@_0BG@JCOBOPDF@BOTH_LK_DL_ST_T_B_1_L?$AA@ 300a0c78     bg_panimate.obj
 0002:00002c90       ??_C@_0BG@DLNHCEKP@BOTH_LK_DL_ST_T_B_1_W?$AA@ 300a0c90     bg_panimate.obj
 0002:00002ca8       ??_C@_0BE@HJLIBCHH@BOTH_LK_DL_ST_T_L_1?$AA@ 300a0ca8     bg_panimate.obj
 0002:00002cbc       ??_C@_0BH@JHJHPHMP@BOTH_LK_DL_ST_T_SB_1_L?$AA@ 300a0cbc     bg_panimate.obj
 0002:00002cd4       ??_C@_0BH@DOKBDMFF@BOTH_LK_DL_ST_T_SB_1_W?$AA@ 300a0cd4     bg_panimate.obj
 0002:00002cec       ??_C@_0BF@EEJBBJOB@BOTH_LK_DL_S_S_B_1_L?$AA@ 300a0cec     bg_panimate.obj
 0002:00002d04       ??_C@_0BF@ONKHNCHL@BOTH_LK_DL_S_S_B_1_W?$AA@ 300a0d04     bg_panimate.obj
 0002:00002d1c       ??_C@_0BD@JANDNFNC@BOTH_LK_DL_S_S_L_1?$AA@ 300a0d1c     bg_panimate.obj
 0002:00002d30       ??_C@_0BG@BGPPJBPE@BOTH_LK_DL_S_S_SB_1_L?$AA@ 300a0d30     bg_panimate.obj
 0002:00002d48       ??_C@_0BG@LPMJFKGO@BOTH_LK_DL_S_S_SB_1_W?$AA@ 300a0d48     bg_panimate.obj
 0002:00002d60       ??_C@_0BF@EOFEBAPI@BOTH_LK_DL_S_T_B_1_L?$AA@ 300a0d60     bg_panimate.obj
 0002:00002d78       ??_C@_0BF@OHGCNLGC@BOTH_LK_DL_S_T_B_1_W?$AA@ 300a0d78     bg_panimate.obj
 0002:00002d90       ??_C@_0BD@INNGOFGK@BOTH_LK_DL_S_T_L_1?$AA@ 300a0d90     bg_panimate.obj
 0002:00002da4       ??_C@_0BG@HCJOPMDN@BOTH_LK_DL_S_T_SB_1_L?$AA@ 300a0da4     bg_panimate.obj
 0002:00002dbc       ??_C@_0BG@NLKIDHKH@BOTH_LK_DL_S_T_SB_1_W?$AA@ 300a0dbc     bg_panimate.obj
 0002:00002dd4       ??_C@_0BG@MGOLBFGD@BOTH_LK_ST_DL_S_B_1_L?$AA@ 300a0dd4     bg_panimate.obj
 0002:00002dec       ??_C@_0BG@GPNNNOPJ@BOTH_LK_ST_DL_S_B_1_W?$AA@ 300a0dec     bg_panimate.obj
 0002:00002e04       ??_C@_0BE@GPPHAGBE@BOTH_LK_ST_DL_S_L_1?$AA@ 300a0e04     bg_panimate.obj
 0002:00002e18       ??_C@_0BH@BFMLAJPE@BOTH_LK_ST_DL_S_SB_1_L?$AA@ 300a0e18     bg_panimate.obj
 0002:00002e30       ??_C@_0BH@LMPNMCGO@BOTH_LK_ST_DL_S_SB_1_W?$AA@ 300a0e30     bg_panimate.obj
 0002:00002e48       ??_C@_0BG@MMCOBMHK@BOTH_LK_ST_DL_T_B_1_L?$AA@ 300a0e48     bg_panimate.obj
 0002:00002e60       ??_C@_0BG@GFBINHOA@BOTH_LK_ST_DL_T_B_1_W?$AA@ 300a0e60     bg_panimate.obj
 0002:00002e78       ??_C@_0BE@HCPCDGKM@BOTH_LK_ST_DL_T_L_1?$AA@ 300a0e78     bg_panimate.obj
 0002:00002e8c       ??_C@_0BH@HBKKGEDN@BOTH_LK_ST_DL_T_SB_1_L?$AA@ 300a0e8c     bg_panimate.obj
 0002:00002ea4       ??_C@_0BH@NIJMKPKH@BOTH_LK_ST_DL_T_SB_1_W?$AA@ 300a0ea4     bg_panimate.obj
 0002:00002ebc       ??_C@_0BG@HFFPAFDH@BOTH_LK_ST_ST_S_B_1_L?$AA@ 300a0ebc     bg_panimate.obj
 0002:00002ed4       ??_C@_0BG@NMGJMOKN@BOTH_LK_ST_ST_S_B_1_W?$AA@ 300a0ed4     bg_panimate.obj
 0002:00002eec       ??_C@_0BE@IAIADDC@BOTH_LK_ST_ST_S_L_1?$AA@ 300a0eec     bg_panimate.obj
 0002:00002f00       ??_C@_0BH@HJHOCIAJ@BOTH_LK_ST_ST_S_SB_1_L?$AA@ 300a0f00     bg_panimate.obj
 0002:00002f18       ??_C@_0BH@NAEIODJD@BOTH_LK_ST_ST_S_SB_1_W?$AA@ 300a0f18     bg_panimate.obj
 0002:00002f30       ??_C@_0BG@HPJKAMCO@BOTH_LK_ST_ST_T_B_1_L?$AA@ 300a0f30     bg_panimate.obj
 0002:00002f48       ??_C@_0BG@NGKMMHLE@BOTH_LK_ST_ST_T_B_1_W?$AA@ 300a0f48     bg_panimate.obj
 0002:00002f60       ??_C@_0BE@BFANDDIK@BOTH_LK_ST_ST_T_L_1?$AA@ 300a0f60     bg_panimate.obj
 0002:00002f74       ??_C@_0BH@BNBPEFMA@BOTH_LK_ST_ST_T_SB_1_L?$AA@ 300a0f74     bg_panimate.obj
 0002:00002f8c       ??_C@_0BH@LECJIOFK@BOTH_LK_ST_ST_T_SB_1_W?$AA@ 300a0f8c     bg_panimate.obj
 0002:00002fa4       ??_C@_0BF@IHPBCCGB@BOTH_LK_ST_S_S_B_1_L?$AA@ 300a0fa4     bg_panimate.obj
 0002:00002fbc       ??_C@_0BF@COMHOJPL@BOTH_LK_ST_S_S_B_1_W?$AA@ 300a0fbc     bg_panimate.obj
 0002:00002fd4       ??_C@_0BD@CDGHMFIG@BOTH_LK_ST_S_S_L_1?$AA@ 300a0fd4     bg_panimate.obj
 0002:00002fe8       ??_C@_0BG@PLIEHCOP@BOTH_LK_ST_S_S_SB_1_L?$AA@ 300a0fe8     bg_panimate.obj
 0002:00003000       ??_C@_0BG@FCLCLJHF@BOTH_LK_ST_S_S_SB_1_W?$AA@ 300a1000     bg_panimate.obj
 0002:00003018       ??_C@_0BF@INDECLHI@BOTH_LK_ST_S_T_B_1_L?$AA@ 300a1018     bg_panimate.obj
 0002:00003030       ??_C@_0BF@CEACOAOC@BOTH_LK_ST_S_T_B_1_W?$AA@ 300a1030     bg_panimate.obj
 0002:00003048       ??_C@_0BD@DOGCPFDO@BOTH_LK_ST_S_T_L_1?$AA@ 300a1048     bg_panimate.obj
 0002:0000305c       ??_C@_0BG@JPOFBPCG@BOTH_LK_ST_S_T_SB_1_L?$AA@ 300a105c     bg_panimate.obj
 0002:00003074       ??_C@_0BG@DGNDNELM@BOTH_LK_ST_S_T_SB_1_W?$AA@ 300a1074     bg_panimate.obj
 0002:0000308c       ??_C@_0BC@MDILAFOD@BOTH_LK_S_S_S_L_2?$AA@ 300a108c     bg_panimate.obj
 0002:000030a0       ??_C@_0BC@NOIODFFL@BOTH_LK_S_S_T_L_2?$AA@ 300a10a0     bg_panimate.obj
 0002:000030b4       ??_C@_0BE@CIGPHECK@BOTH_LK_DL_DL_S_L_2?$AA@ 300a10b4     bg_panimate.obj
 0002:000030c8       ??_C@_0BE@DFGKEEJC@BOTH_LK_DL_DL_T_L_2?$AA@ 300a10c8     bg_panimate.obj
 0002:000030dc       ??_C@_0BE@CDCFFAPB@BOTH_LK_ST_ST_S_L_2?$AA@ 300a10dc     bg_panimate.obj
 0002:000030f0       ??_C@_0BE@DOCAGAEJ@BOTH_LK_ST_ST_T_L_2?$AA@ 300a10f0     bg_panimate.obj
 0002:00003104       ??_C@_0P@GCBEFEGH@BOTH_BF2RETURN?$AA@ 300a1104     bg_panimate.obj
 0002:00003114       ??_C@_0O@OBLBAPIM@BOTH_BF2BREAK?$AA@ 300a1114     bg_panimate.obj
 0002:00003124       ??_C@_0N@LNLIKJEI@BOTH_BF2LOCK?$AA@ 300a1124     bg_panimate.obj
 0002:00003134       ??_C@_0P@OMJLFDIE@BOTH_BF1RETURN?$AA@ 300a1134     bg_panimate.obj
 0002:00003144       ??_C@_0O@NAFJBFBB@BOTH_BF1BREAK?$AA@ 300a1144     bg_panimate.obj
 0002:00003154       ??_C@_0N@DLCMNLOG@BOTH_BF1LOCK?$AA@ 300a1154     bg_panimate.obj
 0002:00003164       ??_C@_0BH@DMDECPBF@BOTH_CWCIRCLE_R2__R_S1?$AA@ 300a1164     bg_panimate.obj
 0002:0000317c       ??_C@_0BI@PBNOCOLC@BOTH_CCWCIRCLE_R2__L_S1?$AA@ 300a117c     bg_panimate.obj
 0002:00003194       ??_C@_0BH@DBGDLJEC@BOTH_CWCIRCLE_A2__L__R?$AA@ 300a1194     bg_panimate.obj
 0002:000031ac       ??_C@_0BI@CIMIIHDK@BOTH_CCWCIRCLE_A2__R__L?$AA@ 300a11ac     bg_panimate.obj
 0002:000031c4       ??_C@_0BD@LBKADGEF@BOTH_CWCIRCLEBREAK?$AA@ 300a11c4     bg_panimate.obj
 0002:000031d8       ??_C@_0BE@OHBEAMBI@BOTH_CCWCIRCLEBREAK?$AA@ 300a11d8     bg_panimate.obj
 0002:000031ec       ??_C@_0BC@KJPAFMDI@BOTH_CWCIRCLELOCK?$AA@ 300a11ec     bg_panimate.obj
 0002:00003200       ??_C@_0BD@KOAOCCAN@BOTH_CCWCIRCLELOCK?$AA@ 300a1200     bg_panimate.obj
 0002:00003214       ??_C@_0BG@LMJGJJPN@BOTH_SABERFAST_STANCE?$AA@ 300a1214     bg_panimate.obj
 0002:0000322c       ??_C@_0BG@OHKGBDLF@BOTH_SABERSLOW_STANCE?$AA@ 300a122c     bg_panimate.obj
 0002:00003244       ??_C@_0BG@HKMBABJH@BOTH_SABERDUAL_STANCE?$AA@ 300a1244     bg_panimate.obj
 0002:0000325c       ??_C@_0BH@BDCLHPPP@BOTH_SABERSTAFF_STANCE?$AA@ 300a125c     bg_panimate.obj
 0002:00003274       ??_C@_0BC@PILNDLJJ@BOTH_A2_STABBACK1?$AA@ 300a1274     bg_panimate.obj
 0002:00003288       ??_C@_0BB@CBLKELKF@BOTH_ATTACK_BACK?$AA@ 300a1288     bg_panimate.obj
 0002:0000329c       ??_C@_0BI@HBGICLGG@BOTH_JUMPFLIPSLASHDOWN1?$AA@ 300a129c     bg_panimate.obj
 0002:000032b4       ??_C@_0BG@BFMBDODP@BOTH_JUMPFLIPSTABDOWN?$AA@ 300a12b4     bg_panimate.obj
 0002:000032cc       ??_C@_0BG@CELCKDAN@BOTH_FORCELEAP2_T__B_?$AA@ 300a12cc     bg_panimate.obj
 0002:000032e4       ??_C@_0BC@BEBALKBG@BOTH_LUNGE2_B__T_?$AA@ 300a12e4     bg_panimate.obj
 0002:000032f8       ??_C@_0BH@INLIBEMO@BOTH_CROUCHATTACKBACK1?$AA@ 300a12f8     bg_panimate.obj
 0002:00003310       ??_C@_0BB@DBPJDDLK@BOTH_JUMPATTACK6?$AA@ 300a1310     bg_panimate.obj
 0002:00003324       ??_C@_0BB@CIOCACPL@BOTH_JUMPATTACK7?$AA@ 300a1324     bg_panimate.obj
 0002:00003338       ??_C@_0BB@LMPGHBAM@BOTH_SPINATTACK6?$AA@ 300a1338     bg_panimate.obj
 0002:0000334c       ??_C@_0BB@KFONEAEN@BOTH_SPINATTACK7?$AA@ 300a134c     bg_panimate.obj
 0002:00003360       ??_C@_0L@BHGFBHGL@BOTH_S1_S6?$AA@ 300a1360     bg_panimate.obj
 0002:0000336c       ??_C@_0L@OKAEFNLM@BOTH_S6_S1?$AA@ 300a136c     bg_panimate.obj
 0002:00003378       ??_C@_0L@OHOCGCK@BOTH_S1_S7?$AA@ 300a1378     bg_panimate.obj
 0002:00003384       ??_C@_0L@NHGEHEAM@BOTH_S7_S1?$AA@ 300a1384     bg_panimate.obj
 0002:00003390       ??_C@_0BJ@KLOIGFJP@BOTH_FORCELONGLEAP_START?$AA@ 300a1390     bg_panimate.obj
 0002:000033ac       ??_C@_0BK@HABCCIOP@BOTH_FORCELONGLEAP_ATTACK?$AA@ 300a13ac     bg_panimate.obj
 0002:000033c8       ??_C@_0BI@MHONAGNG@BOTH_FORCELONGLEAP_LAND?$AA@ 300a13c8     bg_panimate.obj
 0002:000033e0       ??_C@_0BM@LJCOJFGC@BOTH_FORCEWALLRUNFLIP_START?$AA@ 300a13e0     bg_panimate.obj
 0002:000033fc       ??_C@_0BK@GPIMNHIL@BOTH_FORCEWALLRUNFLIP_END?$AA@ 300a13fc     bg_panimate.obj
 0002:00003418       ??_C@_0BK@KJKIIGOD@BOTH_FORCEWALLRUNFLIP_ALT?$AA@ 300a1418     bg_panimate.obj
 0002:00003434       ??_C@_0BO@CIKJOPHK@BOTH_FORCEWALLREBOUND_FORWARD?$AA@ 300a1434     bg_panimate.obj
 0002:00003454       ??_C@_0BL@BOGHGOCO@BOTH_FORCEWALLREBOUND_LEFT?$AA@ 300a1454     bg_panimate.obj
 0002:00003470       ??_C@_0BL@OFKEILGN@BOTH_FORCEWALLREBOUND_BACK?$AA@ 300a1470     bg_panimate.obj
 0002:0000348c       ??_C@_0BM@FDLDEBGK@BOTH_FORCEWALLREBOUND_RIGHT?$AA@ 300a148c     bg_panimate.obj
 0002:000034a8       ??_C@_0BL@OBHDGIHE@BOTH_FORCEWALLHOLD_FORWARD?$AA@ 300a14a8     bg_panimate.obj
 0002:000034c4       ??_C@_0BI@IEHJEHGK@BOTH_FORCEWALLHOLD_LEFT?$AA@ 300a14c4     bg_panimate.obj
 0002:000034dc       ??_C@_0BI@HPLKKCCJ@BOTH_FORCEWALLHOLD_BACK?$AA@ 300a14dc     bg_panimate.obj
 0002:000034f4       ??_C@_0BJ@CCJINKMK@BOTH_FORCEWALLHOLD_RIGHT?$AA@ 300a14f4     bg_panimate.obj
 0002:00003510       ??_C@_0BO@FMNDOIKN@BOTH_FORCEWALLRELEASE_FORWARD?$AA@ 300a1510     bg_panimate.obj
 0002:00003530       ??_C@_0BL@OLNGOJNC@BOTH_FORCEWALLRELEASE_LEFT?$AA@ 300a1530     bg_panimate.obj
 0002:0000354c       ??_C@_0BL@BABFAMJB@BOTH_FORCEWALLRELEASE_BACK?$AA@ 300a154c     bg_panimate.obj
 0002:00003568       ??_C@_0BM@OHENEONK@BOTH_FORCEWALLRELEASE_RIGHT?$AA@ 300a1568     bg_panimate.obj
 0002:00003584       ??_C@_0P@CJGOGJL@BOTH_A7_KICK_F?$AA@ 300a1584     bg_panimate.obj
 0002:00003594       ??_C@_0P@GGPKCDJP@BOTH_A7_KICK_B?$AA@ 300a1594     bg_panimate.obj
 0002:000035a4       ??_C@_0P@CMDIDBMO@BOTH_A7_KICK_R?$AA@ 300a15a4     bg_panimate.obj
 0002:000035b4       ??_C@_0P@PIHJAOBB@BOTH_A7_KICK_L?$AA@ 300a15b4     bg_panimate.obj
 0002:000035c4       ??_C@_0P@DFCDAAIP@BOTH_A7_KICK_S?$AA@ 300a15c4     bg_panimate.obj
 0002:000035d4       ??_C@_0BA@MGPFJMHF@BOTH_A7_KICK_BF?$AA@ 300a15d4     bg_panimate.obj
 0002:000035e4       ??_C@_0BF@OPHCPADF@BOTH_A7_KICK_BF_STOP?$AA@ 300a15e4     bg_panimate.obj
 0002:000035fc       ??_C@_0BA@CADMNHIP@BOTH_A7_KICK_RL?$AA@ 300a15fc     bg_panimate.obj
 0002:0000360c       ??_C@_0BD@GABGGINM@BOTH_A7_KICK_F_AIR?$AA@ 300a160c     bg_panimate.obj
 0002:00003620       ??_C@_0BD@PLIHCKMK@BOTH_A7_KICK_B_AIR?$AA@ 300a1620     bg_panimate.obj
 0002:00003634       ??_C@_0BD@PIFBCIFB@BOTH_A7_KICK_R_AIR?$AA@ 300a1634     bg_panimate.obj
 0002:00003648       ??_C@_0BD@MBINELLK@BOTH_A7_KICK_L_AIR?$AA@ 300a1648     bg_panimate.obj
 0002:0000365c       ??_C@_0BC@OAEPKLIJ@BOTH_FLIP_ATTACK7?$AA@ 300a165c     bg_panimate.obj
 0002:00003670       ??_C@_0BA@PECANCJM@BOTH_FLIP_HOLD7?$AA@ 300a1670     bg_panimate.obj
 0002:00003680       ??_C@_0P@FKABGNIE@BOTH_FLIP_LAND?$AA@ 300a1680     bg_panimate.obj
 0002:00003690       ??_C@_0BG@FJEBNIOP@BOTH_PULL_IMPALE_STAB?$AA@ 300a1690     bg_panimate.obj
 0002:000036a8       ??_C@_0BH@ENKMMKI@BOTH_PULL_IMPALE_SWING?$AA@ 300a16a8     bg_panimate.obj
 0002:000036c0       ??_C@_0BE@LGIIAOEH@BOTH_PULLED_INAIR_B?$AA@ 300a16c0     bg_panimate.obj
 0002:000036d4       ??_C@_0BE@NCOEMLED@BOTH_PULLED_INAIR_F?$AA@ 300a16d4     bg_panimate.obj
 0002:000036e8       ??_C@_0O@FMNFAMJP@BOTH_STABDOWN?$AA@ 300a16e8     bg_panimate.obj
 0002:000036f8       ??_C@_0BE@DOGEHLEN@BOTH_STABDOWN_STAFF?$AA@ 300a16f8     bg_panimate.obj
 0002:0000370c       ??_C@_0BD@FCALGDP@BOTH_STABDOWN_DUAL?$AA@ 300a170c     bg_panimate.obj
 0002:00003720       ??_C@_0BF@JKDHMCK@BOTH_A6_SABERPROTECT?$AA@ 300a1720     bg_panimate.obj
 0002:00003738       ??_C@_0BA@IPLCAALD@BOTH_A7_SOULCAL?$AA@ 300a1738     bg_panimate.obj
 0002:00003748       ??_C@_0BA@PNABOJPN@BOTH_A1_SPECIAL?$AA@ 300a1748     bg_panimate.obj
 0002:00003758       ??_C@_0BA@BGDGFCPO@BOTH_A2_SPECIAL?$AA@ 300a1758     bg_panimate.obj
 0002:00003768       ??_C@_0BA@PJPEDJMA@BOTH_A3_SPECIAL?$AA@ 300a1768     bg_panimate.obj
 0002:00003778       ??_C@_0P@HNCGMPEI@BOTH_ROLL_STAB?$AA@ 300a1778     bg_panimate.obj
 0002:00003788       ??_C@_0M@GOMFFOAD@BOTH_STAND1?$AA@ 300a1788     bg_panimate.obj
 0002:00003794       ??_C@_0BB@OEICBKPC@BOTH_STAND1IDLE1?$AA@ 300a1794     bg_panimate.obj
 0002:000037a8       ??_C@_0M@EFOIANMA@BOTH_STAND2?$AA@ 300a17a8     bg_panimate.obj
 0002:000037b4       ??_C@_0BB@NFGKAAGP@BOTH_STAND2IDLE1?$AA@ 300a17b4     bg_panimate.obj
 0002:000037c8       ??_C@_0BB@POEHFDKM@BOTH_STAND2IDLE2?$AA@ 300a17c8     bg_panimate.obj
 0002:000037dc       ??_C@_0M@FMPDDMIB@BOTH_STAND3?$AA@ 300a17dc     bg_panimate.obj
 0002:000037e8       ??_C@_0BB@HDBNALNL@BOTH_STAND3IDLE1?$AA@ 300a17e8     bg_panimate.obj
 0002:000037fc       ??_C@_0M@BDLCKKEG@BOTH_STAND4?$AA@ 300a17fc     bg_panimate.obj
 0002:00003808       ??_C@_0M@KKJJLAH@BOTH_STAND5?$AA@ 300a1808     bg_panimate.obj
 0002:00003814       ??_C@_0BB@BAMNDOOB@BOTH_STAND5IDLE1?$AA@ 300a1814     bg_panimate.obj
 0002:00003828       ??_C@_0M@CBIEMIME@BOTH_STAND6?$AA@ 300a1828     bg_panimate.obj
 0002:00003834       ??_C@_0M@LPAHOFEK@BOTH_STAND8?$AA@ 300a1834     bg_panimate.obj
 0002:00003840       ??_C@_0P@BPKJPOKL@BOTH_STAND1TO2?$AA@ 300a1840     bg_panimate.obj
 0002:00003850       ??_C@_0P@HDCENHLI@BOTH_STAND2TO1?$AA@ 300a1850     bg_panimate.obj
 0002:00003860       ??_C@_0P@OFDCDPN@BOTH_STAND2TO4?$AA@ 300a1860     bg_panimate.obj
 0002:00003870       ??_C@_0P@NHEJHBNL@BOTH_STAND4TO2?$AA@ 300a1870     bg_panimate.obj
 0002:00003880       ??_C@_0BF@MNEGLANN@BOTH_STAND4TOATTACK2?$AA@ 300a1880     bg_panimate.obj
 0002:00003898       ??_C@_0O@JCHGFLGA@BOTH_STANDUP2?$AA@ 300a1898     bg_panimate.obj
 0002:000038a8       ??_C@_0BC@KJMCMBAN@BOTH_STAND5TOSIT3?$AA@ 300a18a8     bg_panimate.obj
 0002:000038bc       ??_C@_0BE@LJJBDIP@BOTH_STAND1TOSTAND5?$AA@ 300a18bc     bg_panimate.obj
 0002:000038d0       ??_C@_0BE@GGBOHGPB@BOTH_STAND5TOSTAND1?$AA@ 300a18d0     bg_panimate.obj
 0002:000038e4       ??_C@_0BB@KAKPAJPG@BOTH_STAND5TOAIM?$AA@ 300a18e4     bg_panimate.obj
 0002:000038f8       ??_C@_0BM@LKMKNIB@BOTH_STAND5STARTLEDLOOKLEFT?$AA@ 300a18f8     bg_panimate.obj
 0002:00003914       ??_C@_0BO@JCPBABCF@BOTH_STARTLEDLOOKLEFTTOSTAND5?$AA@ 300a1914     bg_panimate.obj
 0002:00003934       ??_C@_0BE@LHNMMNLI@BOTH_STAND5TOSTAND8?$AA@ 300a1934     bg_panimate.obj
 0002:00003948       ??_C@_0BE@LDCJBNIF@BOTH_STAND7TOSTAND8?$AA@ 300a1948     bg_panimate.obj
 0002:0000395c       ??_C@_0BE@PHIMDIEF@BOTH_STAND8TOSTAND5?$AA@ 300a195c     bg_panimate.obj
 0002:00003970       ??_C@_0M@KGBMNEAL@BOTH_STAND9?$AA@ 300a1970     bg_panimate.obj
 0002:0000397c       ??_C@_0BB@NHGNFEJF@BOTH_STAND9IDLE1?$AA@ 300a197c     bg_panimate.obj
 0002:00003990       ??_C@_0BH@LKALMHBN@BOTH_STAND5SHIFTWEIGHT?$AA@ 300a1990     bg_panimate.obj
 0002:000039a8       ??_C@_0BM@LEFLGCNL@BOTH_STAND5SHIFTWEIGHTSTART?$AA@ 300a19a8     bg_panimate.obj
 0002:000039c4       ??_C@_0BL@EHCDGJJ@BOTH_STAND5SHIFTWEIGHTSTOP?$AA@ 300a19c4     bg_panimate.obj
 0002:000039e0       ??_C@_0BJ@HOHFOLPM@BOTH_STAND5TURNLEFTSTART?$AA@ 300a19e0     bg_panimate.obj
 0002:000039fc       ??_C@_0BI@JADJJLGI@BOTH_STAND5TURNLEFTSTOP?$AA@ 300a19fc     bg_panimate.obj
 0002:00003a14       ??_C@_0BK@IGPCPOOP@BOTH_STAND5TURNRIGHTSTART?$AA@ 300a1a14     bg_panimate.obj
 0002:00003a30       ??_C@_0BJ@HFICOBLF@BOTH_STAND5TURNRIGHTSTOP?$AA@ 300a1a30     bg_panimate.obj
 0002:00003a4c       ??_C@_0BM@BGELABNK@BOTH_STAND5LOOK180LEFTSTART?$AA@ 300a1a4c     bg_panimate.obj
 0002:00003a68       ??_C@_0BL@HDGAEFLK@BOTH_STAND5LOOK180LEFTSTOP?$AA@ 300a1a68     bg_panimate.obj
 0002:00003a84       ??_C@_0BD@JMEBFELH@BOTH_CONSOLE1START?$AA@ 300a1a84     bg_panimate.obj
 0002:00003a98       ??_C@_0O@DNGGEOJM@BOTH_CONSOLE1?$AA@ 300a1a98     bg_panimate.obj
 0002:00003aa8       ??_C@_0BC@BMPMMEKB@BOTH_CONSOLE1STOP?$AA@ 300a1aa8     bg_panimate.obj
 0002:00003abc       ??_C@_0BD@KNKJEOCK@BOTH_CONSOLE2START?$AA@ 300a1abc     bg_panimate.obj
 0002:00003ad0       ??_C@_0O@BGELBNFP@BOTH_CONSOLE2?$AA@ 300a1ad0     bg_panimate.obj
 0002:00003ae0       ??_C@_0BC@JKGILGAP@BOTH_CONSOLE2STOP?$AA@ 300a1ae0     bg_panimate.obj
 0002:00003af4       ??_C@_0BK@JLMHHIBG@BOTH_CONSOLE2HOLDCOMSTART?$AA@ 300a1af4     bg_panimate.obj
 0002:00003b10       ??_C@_0BJ@PHBEHMKF@BOTH_CONSOLE2HOLDCOMSTOP?$AA@ 300a1b10     bg_panimate.obj
 0002:00003b2c       ??_C@_0BH@IIALJNIM@BOTH_GUARD_LOOKAROUND1?$AA@ 300a1b2c     bg_panimate.obj
 0002:00003b44       ??_C@_0BB@LLGPJFGM@BOTH_GUARD_IDLE1?$AA@ 300a1b44     bg_panimate.obj
 0002:00003b58       ??_C@_0O@HANAGBGB@BOTH_GESTURE1?$AA@ 300a1b58     bg_panimate.obj
 0002:00003b68       ??_C@_0O@FLPNDCKC@BOTH_GESTURE2?$AA@ 300a1b68     bg_panimate.obj
 0002:00003b78       ??_C@_0BE@OAMCANFF@BOTH_WALK1TALKCOMM1?$AA@ 300a1b78     bg_panimate.obj
 0002:00003b8c       ??_C@_0L@OMGKFLGC@BOTH_TALK1?$AA@ 300a1b8c     bg_panimate.obj
 0002:00003b98       ??_C@_0L@MHEHAIKB@BOTH_TALK2?$AA@ 300a1b98     bg_panimate.obj
 0002:00003ba4       ??_C@_0BE@LLPJOKPB@BOTH_TALKCOMM1START?$AA@ 300a1ba4     bg_panimate.obj
 0002:00003bb8       ??_C@_0P@IMEACJDE@BOTH_TALKCOMM1?$AA@ 300a1bb8     bg_panimate.obj
 0002:00003bc8       ??_C@_0BD@KGADCINA@BOTH_TALKCOMM1STOP?$AA@ 300a1bc8     bg_panimate.obj
 0002:00003bdc       ??_C@_0BC@HDFGDEIC@BOTH_TALKGESTURE1?$AA@ 300a1bdc     bg_panimate.obj
 0002:00003bf0       ??_C@_0BE@OFJJICOJ@BOTH_HEADTILTLSTART?$AA@ 300a1bf0     bg_panimate.obj
 0002:00003c04       ??_C@_0BD@BIJCDOKI@BOTH_HEADTILTLSTOP?$AA@ 300a1c04     bg_panimate.obj
 0002:00003c18       ??_C@_0BE@NCHIGFHK@BOTH_HEADTILTRSTART?$AA@ 300a1c18     bg_panimate.obj
 0002:00003c2c       ??_C@_0BD@CBEOFNED@BOTH_HEADTILTRSTOP?$AA@ 300a1c2c     bg_panimate.obj
 0002:00003c40       ??_C@_0N@JGGIBJHN@BOTH_HEADNOD?$AA@ 300a1c40     bg_panimate.obj
 0002:00003c50       ??_C@_0P@DFINNNBF@BOTH_HEADSHAKE?$AA@ 300a1c50     bg_panimate.obj
 0002:00003c60       ??_C@_0BI@OBPNLCKD@BOTH_SIT2HEADTILTLSTART?$AA@ 300a1c60     bg_panimate.obj
 0002:00003c78       ??_C@_0BH@KHIEGBCO@BOTH_SIT2HEADTILTLSTOP?$AA@ 300a1c78     bg_panimate.obj
 0002:00003c90       ??_C@_0BB@IHJLPLDL@BOTH_REACH1START?$AA@ 300a1c90     bg_panimate.obj
 0002:00003ca4       ??_C@_0BA@MHPGDDPE@BOTH_REACH1STOP?$AA@ 300a1ca4     bg_panimate.obj
 0002:00003cb4       ??_C@_0O@KHABGCAK@BOTH_COME_ON1?$AA@ 300a1cb4     bg_panimate.obj
 0002:00003cc4       ??_C@_0BB@BHOCMBMP@BOTH_STEADYSELF1?$AA@ 300a1cc4     bg_panimate.obj
 0002:00003cd8       ??_C@_0BE@EEMNDGPF@BOTH_STEADYSELF1END?$AA@ 300a1cd8     bg_panimate.obj
 0002:00003cec       ??_C@_0BF@HGBIDKLM@BOTH_SILENCEGESTURE1?$AA@ 300a1cec     bg_panimate.obj
 0002:00003d04       ??_C@_0BE@LPKJJENM@BOTH_REACHFORSABER1?$AA@ 300a1d04     bg_panimate.obj
 0002:00003d18       ??_C@_0BC@CEDLFADF@BOTH_SABERKILLER1?$AA@ 300a1d18     bg_panimate.obj
 0002:00003d2c       ??_C@_0BC@DNFCOFMA@BOTH_SABERKILLEE1?$AA@ 300a1d2c     bg_panimate.obj
 0002:00003d40       ??_C@_0N@PBPICGOP@BOTH_HUGGER1?$AA@ 300a1d40     bg_panimate.obj
 0002:00003d50       ??_C@_0BB@EFDKGEDA@BOTH_HUGGERSTOP1?$AA@ 300a1d50     bg_panimate.obj
 0002:00003d64       ??_C@_0N@OIJBJDBK@BOTH_HUGGEE1?$AA@ 300a1d64     bg_panimate.obj
 0002:00003d74       ??_C@_0BB@OHEDMGHA@BOTH_HUGGEESTOP1?$AA@ 300a1d74     bg_panimate.obj
 0002:00003d88       ??_C@_0BG@IKDIPHLL@BOTH_SABERTHROW1START?$AA@ 300a1d88     bg_panimate.obj
 0002:00003da0       ??_C@_0BF@JJAINHO@BOTH_SABERTHROW1STOP?$AA@ 300a1da0     bg_panimate.obj
 0002:00003db8       ??_C@_0BG@LLNAONCG@BOTH_SABERTHROW2START?$AA@ 300a1db8     bg_panimate.obj
 0002:00003dd0       ??_C@_0BF@IPAEPPNA@BOTH_SABERTHROW2STOP?$AA@ 300a1dd0     bg_panimate.obj
 0002:00003de8       ??_C@_09OIAGNDLA@BOTH_SIT1?$AA@ 300a1de8     bg_panimate.obj
 0002:00003df4       ??_C@_09MDCLIAHD@BOTH_SIT2?$AA@ 300a1df4     bg_panimate.obj
 0002:00003e00       ??_C@_09NKDALBDC@BOTH_SIT3?$AA@ 300a1e00     bg_panimate.obj
 0002:00003e0c       ??_C@_0BC@PIMMNLNC@BOTH_SIT2TOSTAND5?$AA@ 300a1e0c     bg_panimate.obj
 0002:00003e20       ??_C@_0BC@LANJPAEM@BOTH_STAND5TOSIT2?$AA@ 300a1e20     bg_panimate.obj
 0002:00003e34       ??_C@_0BA@LICOGNPB@BOTH_SIT2TOSIT4?$AA@ 300a1e34     bg_panimate.obj
 0002:00003e44       ??_C@_0BC@BHAOLAOM@BOTH_SIT3TOSTAND5?$AA@ 300a1e44     bg_panimate.obj
 0002:00003e58       ??_C@_0N@KLJMDLMC@BOTH_CROUCH1?$AA@ 300a1e58     bg_panimate.obj
 0002:00003e68       ??_C@_0BB@NNJBKJDM@BOTH_CROUCH1IDLE?$AA@ 300a1e68     bg_panimate.obj
 0002:00003e7c       ??_C@_0BB@KLBMFNGD@BOTH_CROUCH1WALK?$AA@ 300a1e7c     bg_panimate.obj
 0002:00003e90       ??_C@_0BF@IKEOFDBF@BOTH_CROUCH1WALKBACK?$AA@ 300a1e90     bg_panimate.obj
 0002:00003ea8       ??_C@_0P@CMNLLMOK@BOTH_UNCROUCH1?$AA@ 300a1ea8     bg_panimate.obj
 0002:00003eb8       ??_C@_0BF@OBDEHHPH@BOTH_CROUCH2TOSTAND1?$AA@ 300a1eb8     bg_panimate.obj
 0002:00003ed0       ??_C@_0N@JJKKFJEA@BOTH_CROUCH3?$AA@ 300a1ed0     bg_panimate.obj
 0002:00003ee0       ??_C@_0P@BOONNOGI@BOTH_UNCROUCH3?$AA@ 300a1ee0     bg_panimate.obj
 0002:00003ef0       ??_C@_0N@NGOLMPIH@BOTH_CROUCH4?$AA@ 300a1ef0     bg_panimate.obj
 0002:00003f00       ??_C@_0P@FBKMEIKP@BOTH_UNCROUCH4?$AA@ 300a1f00     bg_panimate.obj
 0002:00003f10       ??_C@_0N@NEOMJHMD@BOTH_GUNSIT1?$AA@ 300a1f10     bg_panimate.obj
 0002:00003f20       ??_C@_0BA@BIPEOENE@BOTH_VS_MOUNT_L?$AA@ 300a1f20     bg_panimate.obj
 0002:00003f30       ??_C@_0BD@EAEFOEPB@BOTH_VS_DISMOUNT_L?$AA@ 300a1f30     bg_panimate.obj
 0002:00003f44       ??_C@_0BA@MMLFNLAL@BOTH_VS_MOUNT_R?$AA@ 300a1f44     bg_panimate.obj
 0002:00003f54       ??_C@_0BD@JEAENLCO@BOTH_VS_DISMOUNT_R?$AA@ 300a1f54     bg_panimate.obj
 0002:00003f68       ??_C@_0BE@CFBMPALJ@BOTH_VS_MOUNTJUMP_L?$AA@ 300a1f68     bg_panimate.obj
 0002:00003f7c       ??_C@_0BD@HKDNANFN@BOTH_VS_MOUNTTHROW?$AA@ 300a1f7c     bg_panimate.obj
 0002:00003f90       ??_C@_0BF@EKIIEMBN@BOTH_VS_MOUNTTHROW_L?$AA@ 300a1f90     bg_panimate.obj
 0002:00003fa8       ??_C@_0BF@JOMJHDMC@BOTH_VS_MOUNTTHROW_R?$AA@ 300a1fa8     bg_panimate.obj
 0002:00003fc0       ??_C@_0BF@IKPLNBPC@BOTH_VS_MOUNTTHROWEE?$AA@ 300a1fc0     bg_panimate.obj
 0002:00003fd8       ??_C@_0BB@LJMKNCGH@BOTH_VS_LOOKLEFT?$AA@ 300a1fd8     bg_panimate.obj
 0002:00003fec       ??_C@_0L@IMFBDHL@FACE_TALK0?$AA@ 300a1fec     bg_panimate.obj
 0002:00003ff8       ??_C@_0BC@FMBEBFOC@BOTH_VS_LOOKRIGHT?$AA@ 300a1ff8     bg_panimate.obj
 0002:0000400c       ??_C@_0L@BBNOCCDK@FACE_TALK1?$AA@ 300a200c     bg_panimate.obj
 0002:00004018       ??_C@_0O@COMCHHG@BOTH_VS_TURBO?$AA@ 300a2018     bg_panimate.obj
 0002:00004028       ??_C@_0L@DKPDHBPJ@FACE_TALK2?$AA@ 300a2028     bg_panimate.obj
 0002:00004034       ??_C@_0M@MPJJBHIP@BOTH_VS_REV?$AA@ 300a2034     bg_panimate.obj
 0002:00004040       ??_C@_0L@CDOIEALI@FACE_TALK3?$AA@ 300a2040     bg_panimate.obj
 0002:0000404c       ??_C@_0M@OAEDNDJO@BOTH_VS_AIR?$AA@ 300a204c     bg_panimate.obj
 0002:00004058       ??_C@_0L@GMKJNGHP@FACE_TALK4?$AA@ 300a2058     bg_panimate.obj
 0002:00004064       ??_C@_0O@CIMAHEPG@BOTH_VS_AIR_G?$AA@ 300a2064     bg_panimate.obj
 0002:00004074       ??_C@_0L@MMCADNDE@FACE_ALERT?$AA@ 300a2074     bg_panimate.obj
 0002:00004080       ??_C@_0P@BDBFJMPI@BOTH_VS_AIR_SL?$AA@ 300a2080     bg_panimate.obj
 0002:00004090       ??_C@_0L@LAOJKFMG@FACE_SMILE?$AA@ 300a2090     bg_panimate.obj
 0002:0000409c       ??_C@_0P@MHFEKDCH@BOTH_VS_AIR_SR?$AA@ 300a209c     bg_panimate.obj
 0002:000040ac       ??_C@_0L@NHKOPMDL@FACE_FROWN?$AA@ 300a20ac     bg_panimate.obj
 0002:000040b8       ??_C@_0N@KLFKMBNL@BOTH_VS_LAND?$AA@ 300a20b8     bg_panimate.obj
 0002:000040c8       ??_C@_09OODFOJKI@FACE_DEAD?$AA@ 300a20c8     bg_panimate.obj
 0002:000040d4       ??_C@_0P@FGHHPFOH@BOTH_VS_LAND_G?$AA@ 300a20d4     bg_panimate.obj
 0002:000040e4       ??_C@_0M@DCIIGDOC@BOTH_DEATH1?$AA@ 300a20e4     bg_panimate.obj
 0002:000040f0       ??_C@_0BA@HJNLALIL@BOTH_VS_LAND_SL?$AA@ 300a20f0     bg_panimate.obj
 0002:00004100       ??_C@_0M@BJKFDACB@BOTH_DEATH2?$AA@ 300a2100     bg_panimate.obj
 0002:0000410c       ??_C@_0BA@KNJKDEFE@BOTH_VS_LAND_SR?$AA@ 300a210c     bg_panimate.obj
 0002:0000411c       ??_C@_0M@LOABGA@BOTH_DEATH3?$AA@ 300a211c     bg_panimate.obj
 0002:00004128       ??_C@_0N@EOPLFLLG@BOTH_VS_IDLE?$AA@ 300a2128     bg_panimate.obj
 0002:00004138       ??_C@_0M@EPPPJHKH@BOTH_DEATH4?$AA@ 300a2138     bg_panimate.obj
 0002:00004144       ??_C@_0P@JGPOHPPG@BOTH_VS_IDLE_G?$AA@ 300a2144     bg_panimate.obj
 0002:00004154       ??_C@_0M@FGOEKGOG@BOTH_DEATH5?$AA@ 300a2154     bg_panimate.obj
 0002:00004160       ??_C@_0BA@BDKLKCPD@BOTH_VS_IDLE_SL?$AA@ 300a2160     bg_panimate.obj
 0002:00004170       ??_C@_0M@HNMJPFCF@BOTH_DEATH6?$AA@ 300a2170     bg_panimate.obj
 0002:0000417c       ??_C@_0BA@MHOKJNCM@BOTH_VS_IDLE_SR?$AA@ 300a217c     bg_panimate.obj
 0002:0000418c       ??_C@_0M@GENCMEGE@BOTH_DEATH7?$AA@ 300a218c     bg_panimate.obj
 0002:00004198       ??_C@_0O@ONBCGCNE@BOTH_VS_LEANL?$AA@ 300a2198     bg_panimate.obj
 0002:000041a8       ??_C@_0M@ODEKNIKL@BOTH_DEATH8?$AA@ 300a21a8     bg_panimate.obj
 0002:000041b4       ??_C@_0BA@JODAFNDC@BOTH_VS_LEANL_G?$AA@ 300a21b4     bg_panimate.obj
 0002:000041c4       ??_C@_0M@PKFBOJOK@BOTH_DEATH9?$AA@ 300a21c4     bg_panimate.obj
 0002:000041d0       ??_C@_0BB@IPKKGKHI@BOTH_VS_LEANL_SL?$AA@ 300a21d0     bg_panimate.obj
 0002:000041e4       ??_C@_0N@JBHADNME@BOTH_DEATH10?$AA@ 300a21e4     bg_panimate.obj
 0002:000041f4       ??_C@_0BB@FLOLFFKH@BOTH_VS_LEANL_SR?$AA@ 300a21f4     bg_panimate.obj
 0002:00004208       ??_C@_0N@IIGLAMIF@BOTH_DEATH11?$AA@ 300a2208     bg_panimate.obj
 0002:00004218       ??_C@_0O@DJFDFNAL@BOTH_VS_LEANR?$AA@ 300a2218     bg_panimate.obj
 0002:00004228       ??_C@_0N@KDEGFPEG@BOTH_DEATH12?$AA@ 300a2228     bg_panimate.obj
 0002:00004238       ??_C@_0BA@COPGHNJO@BOTH_VS_LEANR_G?$AA@ 300a2238     bg_panimate.obj
 0002:00004248       ??_C@_0N@LKFNGOAH@BOTH_DEATH13?$AA@ 300a2248     bg_panimate.obj
 0002:00004258       ??_C@_0BB@FAHKEDJL@BOTH_VS_LEANR_SL?$AA@ 300a2258     bg_panimate.obj
 0002:0000426c       ??_C@_0N@PFBMPIMA@BOTH_DEATH14?$AA@ 300a226c     bg_panimate.obj
 0002:0000427c       ??_C@_0BB@IEDLHMEE@BOTH_VS_LEANR_SR?$AA@ 300a227c     bg_panimate.obj
 0002:00004290       ??_C@_0N@OMAHMJIB@BOTH_DEATH15?$AA@ 300a2290     bg_panimate.obj
 0002:000042a0       ??_C@_0O@CONINADM@BOTH_VS_ATL_S?$AA@ 300a22a0     bg_panimate.obj
 0002:000042b0       ??_C@_0N@MHCKJKEC@BOTH_DEATH16?$AA@ 300a22b0     bg_panimate.obj
 0002:000042c0       ??_C@_0O@JOBOPAJA@BOTH_VS_ATR_S?$AA@ 300a22c0     bg_panimate.obj
 0002:000042d0       ??_C@_0N@NODBKLAD@BOTH_DEATH17?$AA@ 300a22d0     bg_panimate.obj
 0002:000042e0       ??_C@_0BD@IEEEGOL@BOTH_VS_ATR_TO_L_S?$AA@ 300a22e0     bg_panimate.obj
 0002:000042f4       ??_C@_0N@FJKJLHMM@BOTH_DEATH18?$AA@ 300a22f4     bg_panimate.obj
 0002:00004304       ??_C@_0BD@NMIAPPKE@BOTH_VS_ATL_TO_R_S?$AA@ 300a2304     bg_panimate.obj
 0002:00004318       ??_C@_0N@EALCIGIN@BOTH_DEATH19?$AA@ 300a2318     bg_panimate.obj
 0002:00004328       ??_C@_0O@LALACHMF@BOTH_VS_ATR_G?$AA@ 300a2328     bg_panimate.obj
 0002:00004338       ??_C@_0N@JDDGIDJN@BOTH_DEATH20?$AA@ 300a2338     bg_panimate.obj
 0002:00004348       ??_C@_0O@HGAHGJ@BOTH_VS_ATL_G?$AA@ 300a2348     bg_panimate.obj
 0002:00004358       ??_C@_0N@IKCNLCNM@BOTH_DEATH21?$AA@ 300a2358     bg_panimate.obj
 0002:00004368       ??_C@_0O@GPMLOHAN@BOTH_VS_ATF_G?$AA@ 300a2368     bg_panimate.obj
 0002:00004378       ??_C@_0N@KBAAOBBP@BOTH_DEATH22?$AA@ 300a2378     bg_panimate.obj
 0002:00004388       ??_C@_0O@DDKDCJKA@BOTH_VS_PAIN1?$AA@ 300a2388     bg_panimate.obj
 0002:00004398       ??_C@_0N@LIBLNAFO@BOTH_DEATH23?$AA@ 300a2398     bg_panimate.obj
 0002:000043a8       ??_C@_0BA@PKCIPPKN@BOTH_VT_MOUNT_L?$AA@ 300a23a8     bg_panimate.obj
 0002:000043b8       ??_C@_0N@PHFKEGJJ@BOTH_DEATH24?$AA@ 300a23b8     bg_panimate.obj
 0002:000043c8       ??_C@_0BA@COGJMAHC@BOTH_VT_MOUNT_R?$AA@ 300a23c8     bg_panimate.obj
 0002:000043d8       ??_C@_0N@OOEBHHNI@BOTH_DEATH25?$AA@ 300a23d8     bg_panimate.obj
 0002:000043e8       ??_C@_0BA@GEKLNCCD@BOTH_VT_MOUNT_B?$AA@ 300a23e8     bg_panimate.obj
 0002:000043f8       ??_C@_0BD@LFAMCLEB@BOTH_DEATHFORWARD1?$AA@ 300a23f8     bg_panimate.obj
 0002:0000440c       ??_C@_0BB@ICMLAFCL@BOTH_VT_DISMOUNT?$AA@ 300a240c     bg_panimate.obj
 0002:00004420       ??_C@_0BD@JOCBHIIC@BOTH_DEATHFORWARD2?$AA@ 300a2420     bg_panimate.obj
 0002:00004434       ??_C@_0BD@DNDGOCKJ@BOTH_VT_DISMOUNT_L?$AA@ 300a2434     bg_panimate.obj
 0002:00004448       ??_C@_0BD@IHDKEJMD@BOTH_DEATHFORWARD3?$AA@ 300a2448     bg_panimate.obj
 0002:0000445c       ??_C@_0BD@OJHHNNHG@BOTH_VT_DISMOUNT_R?$AA@ 300a245c     bg_panimate.obj
 0002:00004470       ??_C@_0BE@MDPCGIFE@BOTH_DEATHBACKWARD1?$AA@ 300a2470     bg_panimate.obj
 0002:00004484       ??_C@_0BB@PINFIKEN@BOTH_VT_WALK_FWD?$AA@ 300a2484     bg_panimate.obj
 0002:00004498       ??_C@_0BE@OINPDLJH@BOTH_DEATHBACKWARD2?$AA@ 300a2498     bg_panimate.obj
 0002:000044ac       ??_C@_0BB@EAPIENEI@BOTH_VT_WALK_REV?$AA@ 300a24ac     bg_panimate.obj
 0002:000044c0       ??_C@_0BA@LIHBIFLP@BOTH_DEATH1IDLE?$AA@ 300a24c0     bg_panimate.obj
 0002:000044d0       ??_C@_0BD@HDJGMKCH@BOTH_VT_WALK_FWD_L?$AA@ 300a24d0     bg_panimate.obj
 0002:000044e4       ??_C@_0BB@FAMFDOML@BOTH_LYINGDEATH1?$AA@ 300a24e4     bg_panimate.obj
 0002:000044f8       ??_C@_0BD@KHNHPFPI@BOTH_VT_WALK_FWD_R?$AA@ 300a24f8     bg_panimate.obj
 0002:0000450c       ??_C@_0BD@HAOKEEDM@BOTH_STUMBLEDEATH1?$AA@ 300a250c     bg_panimate.obj
 0002:00004520       ??_C@_0BA@JEFGBHGE@BOTH_VT_RUN_FWD?$AA@ 300a2520     bg_panimate.obj
 0002:00004530       ??_C@_0BA@MMMHHMBO@BOTH_FALLDEATH1?$AA@ 300a2530     bg_panimate.obj
 0002:00004540       ??_C@_0BA@CMHLNAGB@BOTH_VT_RUN_REV?$AA@ 300a2540     bg_panimate.obj
 0002:00004550       ??_C@_0BF@BGGMCFAN@BOTH_FALLDEATH1INAIR?$AA@ 300a2550     bg_panimate.obj
 0002:00004568       ??_C@_0BC@LJGONGLG@BOTH_VT_RUN_FWD_L?$AA@ 300a2568     bg_panimate.obj
 0002:0000457c       ??_C@_0BE@KLPONOFB@BOTH_FALLDEATH1LAND?$AA@ 300a257c     bg_panimate.obj
 0002:00004590       ??_C@_0BC@GNCPOJGJ@BOTH_VT_RUN_FWD_R?$AA@ 300a2590     bg_panimate.obj
 0002:000045a4       ??_C@_0BA@JLHMHBEO@BOTH_DEATH_ROLL?$AA@ 300a25a4     bg_panimate.obj
 0002:000045b4       ??_C@_0P@KFJEKMCA@BOTH_VT_SLIDEF?$AA@ 300a25b4     bg_panimate.obj
 0002:000045c4       ??_C@_0BA@PMBFHAFE@BOTH_DEATH_FLIP?$AA@ 300a25c4     bg_panimate.obj
 0002:000045d4       ??_C@_0M@PNEGODCG@BOTH_VT_AIR?$AA@ 300a25d4     bg_panimate.obj
 0002:000045e0       ??_C@_0BF@PGHFNEMI@BOTH_DEATH_SPIN_90_R?$AA@ 300a25e0     bg_panimate.obj
 0002:000045f8       ??_C@_0M@KDHKMBFE@BOTH_VT_ATB?$AA@ 300a25f8     bg_panimate.obj
 0002:00004604       ??_C@_0BF@CCDEOLBH@BOTH_DEATH_SPIN_90_L?$AA@ 300a2604     bg_panimate.obj
 0002:0000461c       ??_C@_0O@DJGGCALJ@BOTH_VT_PAIN1?$AA@ 300a261c     bg_panimate.obj
 0002:0000462c       ??_C@_0BE@GAFFKNDC@BOTH_DEATH_SPIN_180?$AA@ 300a262c     bg_panimate.obj
 0002:00004640       ??_C@_0P@CICNDPJE@BOTH_VT_DEATH1?$AA@ 300a2640     bg_panimate.obj
 0002:00004650       ??_C@_0BE@KCPIFEBO@BOTH_DEATH_LYING_UP?$AA@ 300a2650     bg_panimate.obj
 0002:00004664       ??_C@_0O@IAAOOPLJ@BOTH_VT_STAND?$AA@ 300a2664     bg_panimate.obj
 0002:00004674       ??_C@_0BE@GLFNKCIG@BOTH_DEATH_LYING_DN?$AA@ 300a2674     bg_panimate.obj
 0002:00004688       ??_C@_0N@IBPGAOGA@BOTH_VT_BUCK?$AA@ 300a2688     bg_panimate.obj
 0002:00004698       ??_C@_0BG@KFLMOKCA@BOTH_DEATH_FALLING_DN?$AA@ 300a2698     bg_panimate.obj
 0002:000046b0       ??_C@_0N@GOPNPPFF@BOTH_VT_LAND?$AA@ 300a26b0     bg_panimate.obj
 0002:000046c0       ??_C@_0BG@GMBJBMLI@BOTH_DEATH_FALLING_UP?$AA@ 300a26c0     bg_panimate.obj
 0002:000046d8       ??_C@_0O@ICJCOGP@BOTH_VT_TURBO?$AA@ 300a26d8     bg_panimate.obj
 0002:000046e8       ??_C@_0BE@CACMPNDI@BOTH_DEATH_CROUCHED?$AA@ 300a26e8     bg_panimate.obj
 0002:000046fc       ??_C@_0BA@PBHHLJIK@BOTH_VT_IDLE_SL?$AA@ 300a26fc     bg_panimate.obj
 0002:0000470c       ??_C@_0L@ODAKGANJ@BOTH_DEAD1?$AA@ 300a270c     bg_panimate.obj
 0002:00004718       ??_C@_0BA@CFDGIGFF@BOTH_VT_IDLE_SR?$AA@ 300a2718     bg_panimate.obj
 0002:00004728       ??_C@_0L@MICHDDBK@BOTH_DEAD2?$AA@ 300a2728     bg_panimate.obj
 0002:00004734       ??_C@_0N@ILFMGFDI@BOTH_VT_IDLE?$AA@ 300a2734     bg_panimate.obj
 0002:00004744       ??_C@_0L@NBDMACFL@BOTH_DEAD3?$AA@ 300a2744     bg_panimate.obj
 0002:00004750       ??_C@_0O@OONEODEJ@BOTH_VT_IDLE1?$AA@ 300a2750     bg_panimate.obj
 0002:00004760       ??_C@_0L@JOHNJEJM@BOTH_DEAD4?$AA@ 300a2760     bg_panimate.obj
 0002:0000476c       ??_C@_0P@NMDBMFGK@BOTH_VT_IDLE_S?$AA@ 300a276c     bg_panimate.obj
 0002:0000477c       ??_C@_0L@IHGGKFNN@BOTH_DEAD5?$AA@ 300a277c     bg_panimate.obj
 0002:00004788       ??_C@_0P@PCJPBCDP@BOTH_VT_IDLE_G?$AA@ 300a2788     bg_panimate.obj
 0002:00004798       ??_C@_0L@KMELPGBO@BOTH_DEAD6?$AA@ 300a2798     bg_panimate.obj
 0002:000047a4       ??_C@_0P@JDHAFDKN@BOTH_VT_IDLE_T?$AA@ 300a27a4     bg_panimate.obj
 0002:000047b4       ??_C@_0L@LFFAMHFP@BOTH_DEAD7?$AA@ 300a27b4     bg_panimate.obj
 0002:000047c0       ??_C@_0O@CEBNNJCF@BOTH_VT_ATL_S?$AA@ 300a27c0     bg_panimate.obj
 0002:000047d0       ??_C@_0L@DCMINLJA@BOTH_DEAD8?$AA@ 300a27d0     bg_panimate.obj
 0002:000047dc       ??_C@_0O@JENLPJIJ@BOTH_VT_ATR_S?$AA@ 300a27dc     bg_panimate.obj
 0002:000047ec       ??_C@_0L@CLNDOKNB@BOTH_DEAD9?$AA@ 300a27ec     bg_panimate.obj
 0002:000047f8       ??_C@_0BD@HFDHEALD@BOTH_VT_ATR_TO_L_S?$AA@ 300a27f8     bg_panimate.obj
 0002:0000480c       ??_C@_0M@CAKKFGOD@BOTH_DEAD10?$AA@ 300a280c     bg_panimate.obj
 0002:00004818       ??_C@_0BD@KBPDPJPM@BOTH_VT_ATL_TO_R_S?$AA@ 300a2818     bg_panimate.obj
 0002:0000482c       ??_C@_0M@DJLBGHKC@BOTH_DEAD11?$AA@ 300a282c     bg_panimate.obj
 0002:00004838       ??_C@_0O@LKHFCONM@BOTH_VT_ATR_G?$AA@ 300a2838     bg_panimate.obj
 0002:00004848       ??_C@_0M@BCJMDEGB@BOTH_DEAD12?$AA@ 300a2848     bg_panimate.obj
 0002:00004854       ??_C@_0O@KLDAOHA@BOTH_VT_ATL_G?$AA@ 300a2854     bg_panimate.obj
 0002:00004864       ??_C@_0M@LIHAFCA@BOTH_DEAD13?$AA@ 300a2864     bg_panimate.obj
 0002:00004870       ??_C@_0O@GFAOOOBE@BOTH_VT_ATF_G?$AA@ 300a2870     bg_panimate.obj
 0002:00004880       ??_C@_0M@EEMGJDOH@BOTH_DEAD14?$AA@ 300a2880     bg_panimate.obj
 0002:0000488c       ??_C@_0BA@MMFJLAL@BOTH_GEARS_OPEN?$AA@ 300a288c     bg_panimate.obj
 0002:0000489c       ??_C@_0M@FNNNKCKG@BOTH_DEAD15?$AA@ 300a289c     bg_panimate.obj
 0002:000048a8       ??_C@_0BB@LDEBMNOM@BOTH_GEARS_CLOSE?$AA@ 300a28a8     bg_panimate.obj
 0002:000048bc       ??_C@_0M@HGPAPBGF@BOTH_DEAD16?$AA@ 300a28bc     bg_panimate.obj
 0002:000048c8       ??_C@_0BA@FDONEPNA@BOTH_WINGS_OPEN?$AA@ 300a28c8     bg_panimate.obj
 0002:000048d8       ??_C@_0M@GPOLMACE@BOTH_DEAD17?$AA@ 300a28d8     bg_panimate.obj
 0002:000048e4       ??_C@_0BB@KCBPOOGE@BOTH_WINGS_CLOSE?$AA@ 300a28e4     bg_panimate.obj
 0002:000048f8       ??_C@_0M@OIHDNMOL@BOTH_DEAD18?$AA@ 300a28f8     bg_panimate.obj
 0002:00004904       ??_C@_0BE@KHOKHMOE@BOTH_DEATH14_UNGRIP?$AA@ 300a2904     bg_panimate.obj
 0002:00004918       ??_C@_0M@PBGIONKK@BOTH_DEAD19?$AA@ 300a2918     bg_panimate.obj
 0002:00004924       ??_C@_0BD@FOKLKMPB@BOTH_DEATH14_SITUP?$AA@ 300a2924     bg_panimate.obj
 0002:00004938       ??_C@_0M@CCOMOILK@BOTH_DEAD20?$AA@ 300a2938     bg_panimate.obj
 0002:00004944       ??_C@_0M@KDFBDJGD@BOTH_KNEES1?$AA@ 300a2944     bg_panimate.obj
 0002:00004950       ??_C@_0M@DLPHNJPL@BOTH_DEAD21?$AA@ 300a2950     bg_panimate.obj
 0002:0000495c       ??_C@_0M@IIHMGKKA@BOTH_KNEES2?$AA@ 300a295c     bg_panimate.obj
 0002:00004968       ??_C@_0M@BANKIKDI@BOTH_DEAD22?$AA@ 300a2968     bg_panimate.obj
 0002:00004974       ??_C@_0P@OGCNLGGI@BOTH_KNEES2TO1?$AA@ 300a2974     bg_panimate.obj
 0002:00004984       ??_C@_0M@JMBLLHJ@BOTH_DEAD23?$AA@ 300a2984     bg_panimate.obj
 0002:00004990       ??_C@_0L@GKPOCJMM@BOTH_WALK1?$AA@ 300a2990     bg_panimate.obj
 0002:0000499c       ??_C@_0M@EGIACNLO@BOTH_DEAD24?$AA@ 300a299c     bg_panimate.obj
 0002:000049a8       ??_C@_0L@EBNDHKAP@BOTH_WALK2?$AA@ 300a29a8     bg_panimate.obj
 0002:000049b4       ??_C@_0M@FPJLBMPP@BOTH_DEAD25?$AA@ 300a29b4     bg_panimate.obj
 0002:000049c0       ??_C@_0BA@LMALDKNK@BOTH_WALK_STAFF?$AA@ 300a29c0     bg_panimate.obj
 0002:000049d0       ??_C@_0BC@MMDCJFEJ@BOTH_DEADFORWARD1?$AA@ 300a29d0     bg_panimate.obj
 0002:000049e4       ??_C@_0BE@MDDMPBCJ@BOTH_WALKBACK_STAFF?$AA@ 300a29e4     bg_panimate.obj
 0002:000049f8       ??_C@_0BC@OHBPMGIK@BOTH_DEADFORWARD2?$AA@ 300a29f8     bg_panimate.obj
 0002:00004a0c       ??_C@_0P@GCJFOAGJ@BOTH_WALK_DUAL?$AA@ 300a2a0c     bg_panimate.obj
 0002:00004a1c       ??_C@_0BD@MNFANONI@BOTH_DEADBACKWARD1?$AA@ 300a2a1c     bg_panimate.obj
 0002:00004a30       ??_C@_0BD@DPFDKICF@BOTH_WALKBACK_DUAL?$AA@ 300a2a30     bg_panimate.obj
 0002:00004a44       ??_C@_0BD@OGHNINBL@BOTH_DEADBACKWARD2?$AA@ 300a2a44     bg_panimate.obj
 0002:00004a58       ??_C@_0L@OJCOMMI@BOTH_WALK5?$AA@ 300a2a58     bg_panimate.obj
 0002:00004a64       ??_C@_0BA@HDEKJGIF@BOTH_LYINGDEAD1?$AA@ 300a2a64     bg_panimate.obj
 0002:00004a74       ??_C@_0L@CFLPLPAL@BOTH_WALK6?$AA@ 300a2a74     bg_panimate.obj
 0002:00004a80       ??_C@_0BC@DDLFNCPA@BOTH_STUMBLEDEAD1?$AA@ 300a2a80     bg_panimate.obj
 0002:00004a94       ??_C@_0L@DMKEIOEK@BOTH_WALK7?$AA@ 300a2a94     bg_panimate.obj
 0002:00004aa0       ??_C@_0BD@BHDKBOHF@BOTH_FALLDEAD1LAND?$AA@ 300a2aa0     bg_panimate.obj
 0002:00004ab4       ??_C@_09NOBIDEIB@BOTH_RUN1?$AA@ 300a2ab4     bg_panimate.obj
 0002:00004ac0       ??_C@_0P@DCNFIPCD@BOTH_DEADFLOP1?$AA@ 300a2ac0     bg_panimate.obj
 0002:00004ad0       ??_C@_0P@CLIPKCAJ@BOTH_RUN1START?$AA@ 300a2ad0     bg_panimate.obj
 0002:00004ae0       ??_C@_0P@BJPINMOA@BOTH_DEADFLOP2?$AA@ 300a2ae0     bg_panimate.obj
 0002:00004af0       ??_C@_0O@GPFGEBNP@BOTH_RUN1STOP?$AA@ 300a2af0     bg_panimate.obj
 0002:00004b00       ??_C@_0BF@OGJIODF@BOTH_DISMEMBER_HEAD1?$AA@ 300a2b00     bg_panimate.obj
 0002:00004b18       ??_C@_09PFDFGHEC@BOTH_RUN2?$AA@ 300a2b18     bg_panimate.obj
 0002:00004b24       ??_C@_0BG@CFOELION@BOTH_DISMEMBER_TORSO1?$AA@ 300a2b24     bg_panimate.obj
 0002:00004b3c       ??_C@_0BA@JDBHFMOM@BOTH_RUN1TORUN2?$AA@ 300a2b3c     bg_panimate.obj
 0002:00004b4c       ??_C@_0BE@EHHEBFGH@BOTH_DISMEMBER_LLEG?$AA@ 300a2b4c     bg_panimate.obj
 0002:00004b60       ??_C@_0BA@DGLFAIMM@BOTH_RUN2TORUN1?$AA@ 300a2b60     bg_panimate.obj
 0002:00004b70       ??_C@_0BE@JIKEDMIE@BOTH_DISMEMBER_RLEG?$AA@ 300a2b70     bg_panimate.obj
 0002:00004b84       ??_C@_09KDGPMAME@BOTH_RUN4?$AA@ 300a2b84     bg_panimate.obj
 0002:00004b90       ??_C@_0BE@IJEILJCG@BOTH_DISMEMBER_RARM?$AA@ 300a2b90     bg_panimate.obj
 0002:00004ba4       ??_C@_0P@JDNNOOMO@BOTH_RUN_STAFF?$AA@ 300a2ba4     bg_panimate.obj
 0002:00004bb4       ??_C@_0BE@FGJIJAMF@BOTH_DISMEMBER_LARM?$AA@ 300a2bb4     bg_panimate.obj
 0002:00004bc8       ??_C@_0BD@OKHEPDMN@BOTH_RUNBACK_STAFF?$AA@ 300a2bc8     bg_panimate.obj
 0002:00004bdc       ??_C@_0L@EGOOCLKN@BOTH_PAIN1?$AA@ 300a2bdc     bg_panimate.obj
 0002:00004be8       ??_C@_0O@NLDNHDFF@BOTH_RUN_DUAL?$AA@ 300a2be8     bg_panimate.obj
 0002:00004bf8       ??_C@_0L@GNMDHIGO@BOTH_PAIN2?$AA@ 300a2bf8     bg_panimate.obj
 0002:00004c04       ??_C@_0BC@KOJINEFM@BOTH_RUNBACK_DUAL?$AA@ 300a2c04     bg_panimate.obj
 0002:00004c18       ??_C@_0L@HENIEJCP@BOTH_PAIN3?$AA@ 300a2c18     bg_panimate.obj
 0002:00004c24       ??_C@_0BC@OMBNLHPO@BOTH_STRAFE_LEFT1?$AA@ 300a2c24     bg_panimate.obj
 0002:00004c38       ??_C@_0L@DLJJNPOI@BOTH_PAIN4?$AA@ 300a2c38     bg_panimate.obj
 0002:00004c44       ??_C@_0BD@LFCECKKK@BOTH_STRAFE_RIGHT1?$AA@ 300a2c44     bg_panimate.obj
 0002:00004c58       ??_C@_0L@CCICOOKJ@BOTH_PAIN5?$AA@ 300a2c58     bg_panimate.obj
 0002:00004c64       ??_C@_0BF@DBPGPOAM@BOTH_RUNSTRAFE_LEFT1?$AA@ 300a2c64     bg_panimate.obj
 0002:00004c7c       ??_C@_0L@JKPLNGK@BOTH_PAIN6?$AA@ 300a2c7c     bg_panimate.obj
 0002:00004c88       ??_C@_0BG@OGEKFCND@BOTH_RUNSTRAFE_RIGHT1?$AA@ 300a2c88     bg_panimate.obj
 0002:00004ca0       ??_C@_0L@BALEIMCL@BOTH_PAIN7?$AA@ 300a2ca0     bg_panimate.obj
 0002:00004cac       ??_C@_0BA@GKEFEECE@BOTH_TURN_LEFT1?$AA@ 300a2cac     bg_panimate.obj
 0002:00004cbc       ??_C@_0L@JHCMJAOE@BOTH_PAIN8?$AA@ 300a2cbc     bg_panimate.obj
 0002:00004cc8       ??_C@_0BB@NDKEEJJD@BOTH_TURN_RIGHT1?$AA@ 300a2cc8     bg_panimate.obj
 0002:00004cdc       ??_C@_0L@IODHKBKF@BOTH_PAIN9?$AA@ 300a2cdc     bg_panimate.obj
 0002:00004ce8       ??_C@_0BA@GOHCIDPJ@BOTH_TURNSTAND1?$AA@ 300a2ce8     bg_panimate.obj
 0002:00004cf8       ??_C@_0M@HHGHAHIN@BOTH_PAIN10?$AA@ 300a2cf8     bg_panimate.obj
 0002:00004d04       ??_C@_0BA@EFFPNADK@BOTH_TURNSTAND2?$AA@ 300a2d04     bg_panimate.obj
 0002:00004d14       ??_C@_0M@GOHMDGMM@BOTH_PAIN11?$AA@ 300a2d14     bg_panimate.obj
 0002:00004d20       ??_C@_0BA@FMEEOBHL@BOTH_TURNSTAND3?$AA@ 300a2d20     bg_panimate.obj
 0002:00004d30       ??_C@_0M@EFFBGFAP@BOTH_PAIN12?$AA@ 300a2d30     bg_panimate.obj
 0002:00004d3c       ??_C@_0BA@BDAFHHLM@BOTH_TURNSTAND4?$AA@ 300a2d3c     bg_panimate.obj
 0002:00004d4c       ??_C@_0M@FMEKFEEO@BOTH_PAIN13?$AA@ 300a2d4c     bg_panimate.obj
 0002:00004d58       ??_C@_0BA@KBOEGPN@BOTH_TURNSTAND5?$AA@ 300a2d58     bg_panimate.obj
 0002:00004d68       ??_C@_0M@BDALMCIJ@BOTH_PAIN14?$AA@ 300a2d68     bg_panimate.obj
 0002:00004d74       ??_C@_0BB@PGPEJHBN@BOTH_TURNCROUCH1?$AA@ 300a2d74     bg_panimate.obj
 0002:00004d88       ??_C@_0M@KBAPDMI@BOTH_PAIN15?$AA@ 300a2d88     bg_panimate.obj
 0002:00004d94       ??_C@_0P@PHEJPEHC@BOTH_WALKBACK1?$AA@ 300a2d94     bg_panimate.obj
 0002:00004da4       ??_C@_0M@CBDNKAAL@BOTH_PAIN16?$AA@ 300a2da4     bg_panimate.obj
 0002:00004db0       ??_C@_0P@NMGEKHLB@BOTH_WALKBACK2?$AA@ 300a2db0     bg_panimate.obj
 0002:00004dc0       ??_C@_0M@DICGJBEK@BOTH_PAIN17?$AA@ 300a2dc0     bg_panimate.obj
 0002:00004dcc       ??_C@_0O@EOOBGHEO@BOTH_RUNBACK1?$AA@ 300a2dcc     bg_panimate.obj
 0002:00004ddc       ??_C@_0M@LPLOINIF@BOTH_PAIN18?$AA@ 300a2ddc     bg_panimate.obj
 0002:00004de8       ??_C@_0O@GFMMDEIN@BOTH_RUNBACK2?$AA@ 300a2de8     bg_panimate.obj
 0002:00004df8       ??_C@_0N@HEFOHEMG@BOTH_ATTACK1?$AA@ 300a2df8     bg_panimate.obj
 0002:00004e08       ??_C@_0L@OIBJCCDP@BOTH_JUMP1?$AA@ 300a2e08     bg_panimate.obj
 0002:00004e14       ??_C@_0N@FPHDCHAF@BOTH_ATTACK2?$AA@ 300a2e14     bg_panimate.obj
 0002:00004e24       ??_C@_0M@IKFKFLAF@BOTH_INAIR1?$AA@ 300a2e24     bg_panimate.obj
 0002:00004e30       ??_C@_0N@EGGIBGEE@BOTH_ATTACK3?$AA@ 300a2e30     bg_panimate.obj
 0002:00004e40       ??_C@_0L@KCLKFECC@BOTH_LAND1?$AA@ 300a2e40     bg_panimate.obj
 0002:00004e4c       ??_C@_0N@JCJIAID@BOTH_ATTACK4?$AA@ 300a2e4c     bg_panimate.obj
 0002:00004e5c       ??_C@_0L@IJJHAHOB@BOTH_LAND2?$AA@ 300a2e5c     bg_panimate.obj
 0002:00004e68       ??_C@_0N@BADCLBMC@BOTH_ATTACK5?$AA@ 300a2e68     bg_panimate.obj
 0002:00004e78       ??_C@_0P@HNEGCFPN@BOTH_JUMPBACK1?$AA@ 300a2e78     bg_panimate.obj
 0002:00004e88       ??_C@_0N@DLBPOCAB@BOTH_ATTACK6?$AA@ 300a2e88     bg_panimate.obj
 0002:00004e98       ??_C@_0BA@MBBIHCFF@BOTH_INAIRBACK1?$AA@ 300a2e98     bg_panimate.obj
 0002:00004ea8       ??_C@_0N@CCAENDEA@BOTH_ATTACK7?$AA@ 300a2ea8     bg_panimate.obj
 0002:00004eb8       ??_C@_0P@JMGKPJPJ@BOTH_LANDBACK1?$AA@ 300a2eb8     bg_panimate.obj
 0002:00004ec8       ??_C@_0O@KNDFAPAC@BOTH_ATTACK10?$AA@ 300a2ec8     bg_panimate.obj
 0002:00004ed8       ??_C@_0P@JCGIPGDC@BOTH_JUMPLEFT1?$AA@ 300a2ed8     bg_panimate.obj
 0002:00004ee8       ??_C@_0O@LECODOED@BOTH_ATTACK11?$AA@ 300a2ee8     bg_panimate.obj
 0002:00004ef8       ??_C@_0BA@CODGKBJK@BOTH_INAIRLEFT1?$AA@ 300a2ef8     bg_panimate.obj
 0002:00004f08       ??_C@_0M@LPPNEBCJ@BOTH_MELEE1?$AA@ 300a2f08     bg_panimate.obj
 0002:00004f14       ??_C@_0P@HDEECKDG@BOTH_LANDLEFT1?$AA@ 300a2f14     bg_panimate.obj
 0002:00004f24       ??_C@_0M@JENABCOK@BOTH_MELEE2?$AA@ 300a2f24     bg_panimate.obj
 0002:00004f30       ??_C@_0BA@CHIINBHA@BOTH_JUMPRIGHT1?$AA@ 300a2f30     bg_panimate.obj
 0002:00004f40       ??_C@_0BD@FIPEGIGM@BOTH_THERMAL_READY?$AA@ 300a2f40     bg_panimate.obj
 0002:00004f54       ??_C@_0BB@PPDJKEPN@BOTH_INAIRRIGHT1?$AA@ 300a2f54     bg_panimate.obj
 0002:00004f68       ??_C@_0BD@KGEHHFNO@BOTH_THERMAL_THROW?$AA@ 300a2f68     bg_panimate.obj
 0002:00004f7c       ??_C@_0BA@CAAEDJLF@BOTH_LANDRIGHT1?$AA@ 300a2f7c     bg_panimate.obj
 0002:00004f8c       ??_C@_0O@KKJLHNCF@BOTH_A1_T__B_?$AA@ 300a2f8c     bg_panimate.obj
 0002:00004f9c       ??_C@_0BA@JCEJKFBM@BOTH_FORCEJUMP1?$AA@ 300a2f9c     bg_panimate.obj
 0002:00004fac       ??_C@_0O@EGEMCONK@BOTH_A1__L__R?$AA@ 300a2fac     bg_panimate.obj
 0002:00004fbc       ??_C@_0BB@CIEHHKPA@BOTH_FORCEINAIR1?$AA@ 300a2fbc     bg_panimate.obj
 0002:00004fd0       ??_C@_0O@ENNNDIOG@BOTH_A1__R__L?$AA@ 300a2fd0     bg_panimate.obj
 0002:00004fe0       ??_C@_0BA@NIOKNDAB@BOTH_FORCELAND1?$AA@ 300a2fe0     bg_panimate.obj
 0002:00004ff0       ??_C@_0O@DIHFOODK@BOTH_A1_TL_BR?$AA@ 300a2ff0     bg_panimate.obj
 0002:00005000       ??_C@_0BE@CBNAONFO@BOTH_FORCEJUMPBACK1?$AA@ 300a3000     bg_panimate.obj
 0002:00005014       ??_C@_0O@POMAMGEC@BOTH_A1_BR_TL?$AA@ 300a3014     bg_panimate.obj
 0002:00005024       ??_C@_0BF@IOJLBGMP@BOTH_FORCEINAIRBACK1?$AA@ 300a3024     bg_panimate.obj
 0002:0000503c       ??_C@_0O@PFFBNAHO@BOTH_A1_BL_TR?$AA@ 300a303c     bg_panimate.obj
 0002:0000504c       ??_C@_0BE@MAPMDBFK@BOTH_FORCELANDBACK1?$AA@ 300a304c     bg_panimate.obj
 0002:00005060       ??_C@_0O@DDOEPIAG@BOTH_A1_TR_BL?$AA@ 300a3060     bg_panimate.obj
 0002:00005070       ??_C@_0BE@MOPODOJB@BOTH_FORCEJUMPLEFT1?$AA@ 300a3070     bg_panimate.obj
 0002:00005084       ??_C@_0O@MAIDBBEC@BOTH_T1_BR__R?$AA@ 300a3084     bg_panimate.obj
 0002:00005094       ??_C@_0BF@GBLFMFAA@BOTH_FORCEINAIRLEFT1?$AA@ 300a3094     bg_panimate.obj
 0002:000050ac       ??_C@_0O@BIJHMBHM@BOTH_T1_BR_TL?$AA@ 300a30ac     bg_panimate.obj
 0002:000050bc       ??_C@_0BE@CPNCOCJF@BOTH_FORCELANDLEFT1?$AA@ 300a30bc     bg_panimate.obj
 0002:000050d0       ??_C@_0O@BEMCCOJN@BOTH_T1_BR__L?$AA@ 300a30d0     bg_panimate.obj
 0002:000050e0       ??_C@_0BF@GIALLFOK@BOTH_FORCEJUMPRIGHT1?$AA@ 300a30e0     bg_panimate.obj
 0002:000050f8       ??_C@_0O@DMBOLO@BOTH_T1_BR_BL?$AA@ 300a30f8     bg_panimate.obj
 0002:00005108       ??_C@_0BG@OPKMFNMD@BOTH_FORCEINAIRRIGHT1?$AA@ 300a3108     bg_panimate.obj
 0002:00005120       ??_C@_0O@HDJOOPOG@BOTH_T1__R_TR?$AA@ 300a3120     bg_panimate.obj
 0002:00005130       ??_C@_0BF@GPIHFNCP@BOTH_FORCELANDRIGHT1?$AA@ 300a3130     bg_panimate.obj
 0002:00005148       ??_C@_0O@KHNPNADJ@BOTH_T1__R_TL?$AA@ 300a3148     bg_panimate.obj
 0002:00005158       ??_C@_0M@EEBNKFFB@BOTH_FLIP_F?$AA@ 300a3158     bg_panimate.obj
 0002:00005164       ??_C@_0O@KLIKDPNI@BOTH_T1__R__L?$AA@ 300a3164     bg_panimate.obj
 0002:00005174       ??_C@_0M@CAHBGAFF@BOTH_FLIP_B?$AA@ 300a3174     bg_panimate.obj
 0002:00005180       ??_C@_0O@LPHEAPPL@BOTH_T1__R_BL?$AA@ 300a3180     bg_panimate.obj
 0002:00005190       ??_C@_0M@LOPCENNL@BOTH_FLIP_L?$AA@ 300a3190     bg_panimate.obj
 0002:0000519c       ??_C@_0O@BPCMAOH@BOTH_T1_TR_BR?$AA@ 300a319c     bg_panimate.obj
 0002:000051ac       ??_C@_0M@GKLDHCAE@BOTH_FLIP_R?$AA@ 300a31ac     bg_panimate.obj
 0002:000051b8       ??_C@_0O@MNBICAPK@BOTH_T1_TR_TL?$AA@ 300a31b8     bg_panimate.obj
 0002:000051c8       ??_C@_0M@IDDHAIHF@BOTH_ROLL_F?$AA@ 300a31c8     bg_panimate.obj
 0002:000051d4       ??_C@_0O@MBENMPBL@BOTH_T1_TR__L?$AA@ 300a31d4     bg_panimate.obj
 0002:000051e4       ??_C@_0M@OHFLMNHB@BOTH_ROLL_B?$AA@ 300a31e4     bg_panimate.obj
 0002:000051f0       ??_C@_0O@NFLDPPDI@BOTH_T1_TR_BL?$AA@ 300a31f0     bg_panimate.obj
 0002:00005200       ??_C@_0M@HJNIOAPP@BOTH_ROLL_L?$AA@ 300a3200     bg_panimate.obj
 0002:0000520c       ??_C@_0O@PJGCAEFG@BOTH_T1_T__BR?$AA@ 300a320c     bg_panimate.obj
 0002:0000521c       ??_C@_0M@KNJJNPCA@BOTH_ROLL_R?$AA@ 300a321c     bg_panimate.obj
 0002:00005228       ??_C@_0O@ONJMDEHF@BOTH_T1_T___R?$AA@ 300a3228     bg_panimate.obj
 0002:00005238       ??_C@_0L@EGNACLFJ@BOTH_HOP_F?$AA@ 300a3238     bg_panimate.obj
 0002:00005244       ??_C@_0O@OBMJNLJE@BOTH_T1_T__TR?$AA@ 300a3244     bg_panimate.obj
 0002:00005254       ??_C@_0L@CCLMOOFN@BOTH_HOP_B?$AA@ 300a3254     bg_panimate.obj
 0002:00005260       ??_C@_0O@DFIIOEEL@BOTH_T1_T__TL?$AA@ 300a3260     bg_panimate.obj
 0002:00005270       ??_C@_0L@LMDPMDND@BOTH_HOP_L?$AA@ 300a3270     bg_panimate.obj
 0002:0000527c       ??_C@_0O@DJNNALKK@BOTH_T1_T___L?$AA@ 300a327c     bg_panimate.obj
 0002:0000528c       ??_C@_0L@GIHOPMAM@BOTH_HOP_R?$AA@ 300a328c     bg_panimate.obj
 0002:00005298       ??_C@_0O@CNCDDLIJ@BOTH_T1_T__BL?$AA@ 300a3298     bg_panimate.obj
 0002:000052a8       ??_C@_0O@PFPLGFKE@BOTH_DODGE_FL?$AA@ 300a32a8     bg_panimate.obj
 0002:000052b8       ??_C@_0O@NOCCOJAE@BOTH_T1_TL_BR?$AA@ 300a32b8     bg_panimate.obj
 0002:000052c8       ??_C@_0O@CBLKFKHL@BOTH_DODGE_FR?$AA@ 300a32c8     bg_panimate.obj
 0002:000052d8       ??_C@_0O@KGDNGNL@BOTH_T1_TL_BL?$AA@ 300a32d8     bg_panimate.obj
 0002:000052e8       ??_C@_0O@PCPCMNHI@BOTH_DODGE_BL?$AA@ 300a32e8     bg_panimate.obj
 0002:000052f8       ??_C@_0O@LEOFBJMH@BOTH_T1__L_BR?$AA@ 300a32f8     bg_panimate.obj
 0002:00005308       ??_C@_0O@CGLDPCKH@BOTH_DODGE_BR?$AA@ 300a3308     bg_panimate.obj
 0002:00005318       ??_C@_0O@KABLCJOE@BOTH_T1__L__R?$AA@ 300a3318     bg_panimate.obj
 0002:00005328       ??_C@_0N@HBCEBGGG@BOTH_DODGE_L?$AA@ 300a3328     bg_panimate.obj
 0002:00005338       ??_C@_0O@HIAPPJNK@BOTH_T1__L_TL?$AA@ 300a3338     bg_panimate.obj
 0002:00005348       ??_C@_0N@KFGFCJLJ@BOTH_DODGE_R?$AA@ 300a3348     bg_panimate.obj
 0002:00005358       ??_C@_0O@LKNAIIC@BOTH_T1_BL_BR?$AA@ 300a3358     bg_panimate.obj
 0002:00005368       ??_C@_0BD@BDDLGFBA@BOTH_DODGE_HOLD_FL?$AA@ 300a3368     bg_panimate.obj
 0002:0000537c       ??_C@_0O@BPFDDIKB@BOTH_T1_BL__R?$AA@ 300a337c     bg_panimate.obj
 0002:0000538c       ??_C@_0BD@MHHKFKMP@BOTH_DODGE_HOLD_FR?$AA@ 300a338c     bg_panimate.obj
 0002:000053a0       ??_C@_0O@BDAGNHEA@BOTH_T1_BL_TR?$AA@ 300a33a0     bg_panimate.obj
 0002:000053b0       ??_C@_0BD@BEDCMNMM@BOTH_DODGE_HOLD_BL?$AA@ 300a33b0     bg_panimate.obj
 0002:000053c4       ??_C@_0O@MLBCAHHO@BOTH_T1_BL__L?$AA@ 300a33c4     bg_panimate.obj
 0002:000053d4       ??_C@_0BD@MAHDPCBD@BOTH_DODGE_HOLD_BR?$AA@ 300a33d4     bg_panimate.obj
 0002:000053e8       ??_C@_0O@MMNGPOKD@BOTH_T1_BR_TR?$AA@ 300a33e8     bg_panimate.obj
 0002:000053f8       ??_C@_0BC@NCHIKDCJ@BOTH_DODGE_HOLD_L?$AA@ 300a33f8     bg_panimate.obj
 0002:0000540c       ??_C@_0O@HJHIIAOO@BOTH_T1_BR_T_?$AA@ 300a340c     bg_panimate.obj
 0002:0000541c       ??_C@_0BC@GDJJMPG@BOTH_DODGE_HOLD_R?$AA@ 300a341c     bg_panimate.obj
 0002:00005430       ??_C@_0O@GLDFDACE@BOTH_T1__R_BR?$AA@ 300a3430     bg_panimate.obj
 0002:00005440       ??_C@_0BB@EBJHHEMP@BOTH_ENGAGETAUNT?$AA@ 300a3440     bg_panimate.obj
 0002:00005454       ??_C@_0O@MGDAJBKL@BOTH_T1__R_T_?$AA@ 300a3454     bg_panimate.obj
 0002:00005464       ??_C@_08CINMJMPG@BOTH_BOW?$AA@ 300a3464     bg_panimate.obj
 0002:00005470       ??_C@_0O@BFAMPAME@BOTH_T1_TR__R?$AA@ 300a3470     bg_panimate.obj
 0002:00005480       ??_C@_0O@NBLEPMIO@BOTH_MEDITATE?$AA@ 300a3480     bg_panimate.obj
 0002:00005490       ??_C@_0O@KMPHGBGI@BOTH_T1_TR_T_?$AA@ 300a3490     bg_panimate.obj
 0002:000054a0       ??_C@_0BC@DILNBIJM@BOTH_MEDITATE_END?$AA@ 300a34a0     bg_panimate.obj
 0002:000054b4       ??_C@_0O@MKNMNJCH@BOTH_T1_TL__R?$AA@ 300a34b4     bg_panimate.obj
 0002:000054c4       ??_C@_0BC@DIEHLMHO@BOTH_SHOWOFF_FAST?$AA@ 300a34c4     bg_panimate.obj
 0002:000054d8       ??_C@_0O@MGIJDGMG@BOTH_T1_TL_TR?$AA@ 300a34d8     bg_panimate.obj
 0002:000054e8       ??_C@_0BE@LFOOJMLH@BOTH_SHOWOFF_MEDIUM?$AA@ 300a34e8     bg_panimate.obj
 0002:000054fc       ??_C@_0O@HDCHEIIL@BOTH_T1_TL_T_?$AA@ 300a34fc     bg_panimate.obj
 0002:0000550c       ??_C@_0BE@GKNCDDPP@BOTH_SHOWOFF_STRONG?$AA@ 300a350c     bg_panimate.obj
 0002:00005520       ??_C@_0O@BOJNOGPI@BOTH_T1_TL__L?$AA@ 300a3520     bg_panimate.obj
 0002:00005530       ??_C@_0BC@EFMAJB@BOTH_SHOWOFF_DUAL?$AA@ 300a3530     bg_panimate.obj
 0002:00005544       ??_C@_0O@KMEOMGAF@BOTH_T1__L_TR?$AA@ 300a3544     bg_panimate.obj
 0002:00005554       ??_C@_0BD@PAPJANE@BOTH_SHOWOFF_STAFF?$AA@ 300a3554     bg_panimate.obj
 0002:00005568       ??_C@_0O@BJOALIEI@BOTH_T1__L_T_?$AA@ 300a3568     bg_panimate.obj
 0002:00005578       ??_C@_0BC@DGIHLJDA@BOTH_VICTORY_FAST?$AA@ 300a3578     bg_panimate.obj
 0002:0000558c       ??_C@_0O@GAKECGBI@BOTH_T1__L_BL?$AA@ 300a358c     bg_panimate.obj
 0002:0000559c       ??_C@_0BE@KLHOAEHD@BOTH_VICTORY_MEDIUM?$AA@ 300a359c     bg_panimate.obj
 0002:000055b0       ??_C@_0O@KGKIKJAN@BOTH_T1_BL_T_?$AA@ 300a35b0     bg_panimate.obj
 0002:000055c0       ??_C@_0BE@HEECKLDL@BOTH_VICTORY_STRONG?$AA@ 300a35c0     bg_panimate.obj
 0002:000055d4       ??_C@_0O@MHEHOIJP@BOTH_T1_BL_TL?$AA@ 300a35d4     bg_panimate.obj
 0002:000055e4       ??_C@_0BC@OIFMFNP@BOTH_VICTORY_DUAL?$AA@ 300a35e4     bg_panimate.obj
 0002:000055f8       ??_C@_0O@LABDBIE@BOTH_S1_S1_T_?$AA@ 300a35f8     bg_panimate.obj
 0002:00005608       ??_C@_0BD@JOGFDMEG@BOTH_VICTORY_STAFF?$AA@ 300a3608     bg_panimate.obj
 0002:0000561c       ??_C@_0O@GGLLJPPH@BOTH_S1_S1__L?$AA@ 300a361c     bg_panimate.obj
 0002:0000562c       ??_C@_0BA@GLHECKNB@BOTH_ARIAL_LEFT?$AA@ 300a362c     bg_panimate.obj
 0002:0000563c       ??_C@_0O@LCPKKACI@BOTH_S1_S1__R?$AA@ 300a363c     bg_panimate.obj
 0002:0000564c       ??_C@_0BB@HOMELNKD@BOTH_ARIAL_RIGHT?$AA@ 300a364c     bg_panimate.obj
 0002:00005660       ??_C@_0O@GKOOHABG@BOTH_S1_S1_TL?$AA@ 300a3660     bg_panimate.obj
 0002:00005670       ??_C@_0BE@POJJIGPG@BOTH_CARTWHEEL_LEFT?$AA@ 300a3670     bg_panimate.obj
 0002:00005684       ??_C@_0O@KGAEJAAL@BOTH_S1_S1_BR?$AA@ 300a3684     bg_panimate.obj
 0002:00005694       ??_C@_0BF@NLFLOFGE@BOTH_CARTWHEEL_RIGHT?$AA@ 300a3694     bg_panimate.obj
 0002:000056ac       ??_C@_0O@HCEFKPNE@BOTH_S1_S1_BL?$AA@ 300a36ac     bg_panimate.obj
 0002:000056bc       ??_C@_0P@JBLCLJDK@BOTH_FLIP_LEFT?$AA@ 300a36bc     bg_panimate.obj
 0002:000056cc       ??_C@_0O@LOKPEPMJ@BOTH_S1_S1_TR?$AA@ 300a36cc     bg_panimate.obj
 0002:000056dc       ??_C@_0BA@OPOOLPHG@BOTH_FLIP_BACK1?$AA@ 300a36dc     bg_panimate.obj
 0002:000056ec       ??_C@_0O@MMDGNHJ@BOTH_R1_B__S1?$AA@ 300a36ec     bg_panimate.obj
 0002:000056fc       ??_C@_0BA@MEMDOMLF@BOTH_FLIP_BACK2?$AA@ 300a36fc     bg_panimate.obj
 0002:0000570c       ??_C@_0O@JEMLJBGO@BOTH_R1__L_S1?$AA@ 300a370c     bg_panimate.obj
 0002:0000571c       ??_C@_0BA@NNNINNPE@BOTH_FLIP_BACK3?$AA@ 300a371c     bg_panimate.obj
 0002:0000572c       ??_C@_0O@ELBLLIIN@BOTH_R1__R_S1?$AA@ 300a372c     bg_panimate.obj
 0002:0000573c       ??_C@_0BE@ENKLMJBI@BOTH_BUTTERFLY_LEFT?$AA@ 300a373c     bg_panimate.obj
 0002:00005750       ??_C@_0O@POAMGBKN@BOTH_R1_TL_S1?$AA@ 300a3750     bg_panimate.obj
 0002:00005760       ??_C@_0BF@JMFKBIFE@BOTH_BUTTERFLY_RIGHT?$AA@ 300a3760     bg_panimate.obj
 0002:00005778       ??_C@_0O@PEFDKJMI@BOTH_R1_BR_S1?$AA@ 300a3778     bg_panimate.obj
 0002:00005788       ??_C@_0BE@INEIBMIN@BOTH_WALL_RUN_RIGHT?$AA@ 300a3788     bg_panimate.obj
 0002:0000579c       ??_C@_0O@CLIDIACL@BOTH_R1_BL_S1?$AA@ 300a379c     bg_panimate.obj
 0002:000057ac       ??_C@_0BJ@JNEELNCP@BOTH_WALL_RUN_RIGHT_FLIP?$AA@ 300a37ac     bg_panimate.obj
 0002:000057c8       ??_C@_0O@CBNMEIEO@BOTH_R1_TR_S1?$AA@ 300a37c8     bg_panimate.obj
 0002:000057d8       ??_C@_0BJ@KEGEKGBP@BOTH_WALL_RUN_RIGHT_STOP?$AA@ 300a37d8     bg_panimate.obj
 0002:000057f4       ??_C@_0O@KKPHFEPE@BOTH_B1_BR___?$AA@ 300a37f4     bg_panimate.obj
 0002:00005804       ??_C@_0BD@FOKEEMMD@BOTH_WALL_RUN_LEFT?$AA@ 300a3804     bg_panimate.obj
 0002:00005818       ??_C@_0O@BFLPEFLB@BOTH_B1__R___?$AA@ 300a3818     bg_panimate.obj
 0002:00005828       ??_C@_0BI@LLGHOLLN@BOTH_WALL_RUN_LEFT_FLIP?$AA@ 300a3828     bg_panimate.obj
 0002:00005840       ??_C@_0O@HPHILFHC@BOTH_B1_TR___?$AA@ 300a3840     bg_panimate.obj
 0002:00005850       ??_C@_0BI@ICEHPAIN@BOTH_WALL_RUN_LEFT_STOP?$AA@ 300a3850     bg_panimate.obj
 0002:00005868       ??_C@_0O@IHOIHBMD@BOTH_B1_T____?$AA@ 300a3868     bg_panimate.obj
 0002:00005878       ??_C@_0BF@MPCPCKGE@BOTH_WALL_FLIP_RIGHT?$AA@ 300a3878     bg_panimate.obj
 0002:00005890       ??_C@_0O@KAKIJMJB@BOTH_B1_TL___?$AA@ 300a3890     bg_panimate.obj
 0002:000058a0       ??_C@_0BE@ILAKMJOK@BOTH_WALL_FLIP_LEFT?$AA@ 300a38a0     bg_panimate.obj
 0002:000058b4       ??_C@_0O@MKGPGMFC@BOTH_B1__L___?$AA@ 300a38b4     bg_panimate.obj
 0002:000058c4       ??_C@_0BA@ICOJIKIM@BOTH_KNOCKDOWN1?$AA@ 300a38c4     bg_panimate.obj
 0002:000058d4       ??_C@_0O@HFCHHNBH@BOTH_B1_BL___?$AA@ 300a38d4     bg_panimate.obj
 0002:000058e4       ??_C@_0BA@KJMENJEP@BOTH_KNOCKDOWN2?$AA@ 300a38e4     bg_panimate.obj
 0002:000058f4       ??_C@_0O@NJONCNHO@BOTH_D1_BR___?$AA@ 300a38f4     bg_panimate.obj
 0002:00005904       ??_C@_0BA@LANPOIAO@BOTH_KNOCKDOWN3?$AA@ 300a3904     bg_panimate.obj
 0002:00005914       ??_C@_0O@GGKFDMDL@BOTH_D1__R___?$AA@ 300a3914     bg_panimate.obj
 0002:00005924       ??_C@_0BA@PPJOHOMJ@BOTH_KNOCKDOWN4?$AA@ 300a3924     bg_panimate.obj
 0002:00005934       ??_C@_0O@MGCMMPI@BOTH_D1_TR___?$AA@ 300a3934     bg_panimate.obj
 0002:00005944       ??_C@_0BA@OGIFEPII@BOTH_KNOCKDOWN5?$AA@ 300a3944     bg_panimate.obj
 0002:00005954       ??_C@_0O@NDLCOFBL@BOTH_D1_TL___?$AA@ 300a3954     bg_panimate.obj
 0002:00005964       ??_C@_0M@BOJPECA@BOTH_GETUP1?$AA@ 300a3964     bg_panimate.obj
 0002:00005970       ??_C@_0O@LJHFBFNI@BOTH_D1__L___?$AA@ 300a3970     bg_panimate.obj
 0002:00005980       ??_C@_0M@CKMEKHOD@BOTH_GETUP2?$AA@ 300a3980     bg_panimate.obj
 0002:0000598c       ??_C@_0O@GDNAEJN@BOTH_D1_BL___?$AA@ 300a398c     bg_panimate.obj
 0002:0000599c       ??_C@_0M@DDNPJGKC@BOTH_GETUP3?$AA@ 300a399c     bg_panimate.obj
 0002:000059a8       ??_C@_0O@CBHNOJMP@BOTH_D1_B____?$AA@ 300a39a8     bg_panimate.obj
 0002:000059b8       ??_C@_0M@HMJOAAGF@BOTH_GETUP4?$AA@ 300a39b8     bg_panimate.obj
 0002:000059c4       ??_C@_0O@CEBEHKMG@BOTH_A2_T__B_?$AA@ 300a39c4     bg_panimate.obj
 0002:000059d4       ??_C@_0M@GFIFDBCE@BOTH_GETUP5?$AA@ 300a39d4     bg_panimate.obj
 0002:000059e0       ??_C@_0O@MIMDCJDJ@BOTH_A2__L__R?$AA@ 300a39e0     bg_panimate.obj
 0002:000059f0       ??_C@_0BF@MOAEFEDA@BOTH_GETUP_CROUCH_F1?$AA@ 300a39f0     bg_panimate.obj
 0002:00005a08       ??_C@_0O@MDFCDPAF@BOTH_A2__R__L?$AA@ 300a3a08     bg_panimate.obj
 0002:00005a18       ??_C@_0BF@MJANPMOM@BOTH_GETUP_CROUCH_B1?$AA@ 300a3a18     bg_panimate.obj
 0002:00005a30       ??_C@_0O@LGPKOJNJ@BOTH_A2_TL_BR?$AA@ 300a3a30     bg_panimate.obj
 0002:00005a40       ??_C@_0BE@BEIPAFMG@BOTH_FORCE_GETUP_F1?$AA@ 300a3a40     bg_panimate.obj
 0002:00005a54       ??_C@_0O@HAEPMBKB@BOTH_A2_BR_TL?$AA@ 300a3a54     bg_panimate.obj
 0002:00005a64       ??_C@_0BE@DPKCFGAF@BOTH_FORCE_GETUP_F2?$AA@ 300a3a64     bg_panimate.obj
 0002:00005a78       ??_C@_0O@HLNONHJN@BOTH_A2_BL_TR?$AA@ 300a3a78     bg_panimate.obj
 0002:00005a88       ??_C@_0BE@BDIGKNBK@BOTH_FORCE_GETUP_B1?$AA@ 300a3a88     bg_panimate.obj
 0002:00005a9c       ??_C@_0O@LNGLPPOF@BOTH_A2_TR_BL?$AA@ 300a3a9c     bg_panimate.obj
 0002:00005aac       ??_C@_0BE@DIKLPONJ@BOTH_FORCE_GETUP_B2?$AA@ 300a3aac     bg_panimate.obj
 0002:00005ac0       ??_C@_0O@EOAMBGKB@BOTH_T2_BR__R?$AA@ 300a3ac0     bg_panimate.obj
 0002:00005ad0       ??_C@_0BE@CBLAMPJI@BOTH_FORCE_GETUP_B3?$AA@ 300a3ad0     bg_panimate.obj
 0002:00005ae4       ??_C@_0O@JGBIMGJP@BOTH_T2_BR_TL?$AA@ 300a3ae4     bg_panimate.obj
 0002:00005af4       ??_C@_0BE@GOPBFJFP@BOTH_FORCE_GETUP_B4?$AA@ 300a3af4     bg_panimate.obj
 0002:00005b08       ??_C@_0O@JKENCJHO@BOTH_T2_BR__L?$AA@ 300a3b08     bg_panimate.obj
 0002:00005b18       ??_C@_0BE@HHOKGIBO@BOTH_FORCE_GETUP_B5?$AA@ 300a3b18     bg_panimate.obj
 0002:00005b2c       ??_C@_0O@IOLDBJFN@BOTH_T2_BR_BL?$AA@ 300a3b2c     bg_panimate.obj
 0002:00005b3c       ??_C@_0BE@FMMHDLNN@BOTH_FORCE_GETUP_B6?$AA@ 300a3b3c     bg_panimate.obj
 0002:00005b50       ??_C@_0O@PNBBOIAF@BOTH_T2__R_TR?$AA@ 300a3b50     bg_panimate.obj
 0002:00005b60       ??_C@_0BD@IAPFGJBO@BOTH_GETUP_BROLL_B?$AA@ 300a3b60     bg_panimate.obj
 0002:00005b74       ??_C@_0O@CJFANHNK@BOTH_T2__R_TL?$AA@ 300a3b74     bg_panimate.obj
 0002:00005b84       ??_C@_0BD@OEJJKMBK@BOTH_GETUP_BROLL_F?$AA@ 300a3b84     bg_panimate.obj
 0002:00005b98       ??_C@_0O@CFAFDIDL@BOTH_T2__R__L?$AA@ 300a3b98     bg_panimate.obj
 0002:00005ba8       ??_C@_0BD@BOHGEEJA@BOTH_GETUP_BROLL_L?$AA@ 300a3ba8     bg_panimate.obj
 0002:00005bbc       ??_C@_0O@DBPLAIBI@BOTH_T2__R_BL?$AA@ 300a3bbc     bg_panimate.obj
 0002:00005bcc       ??_C@_0BD@MKDHHLEP@BOTH_GETUP_BROLL_R?$AA@ 300a3bcc     bg_panimate.obj
 0002:00005be0       ??_C@_0O@IPHNMHAE@BOTH_T2_TR_BR?$AA@ 300a3be0     bg_panimate.obj
 0002:00005bf0       ??_C@_0BD@ELPGHOE@BOTH_GETUP_FROLL_B?$AA@ 300a3bf0     bg_panimate.obj
 0002:00005c04       ??_C@_0O@EDJHCHBJ@BOTH_T2_TR_TL?$AA@ 300a3c04     bg_panimate.obj
 0002:00005c14       ??_C@_0BD@GANDKCOA@BOTH_GETUP_FROLL_F?$AA@ 300a3c14     bg_panimate.obj
 0002:00005c28       ??_C@_0O@EPMCMIPI@BOTH_T2_TR__L?$AA@ 300a3c28     bg_panimate.obj
 0002:00005c38       ??_C@_0BD@JKDMEKGK@BOTH_GETUP_FROLL_L?$AA@ 300a3c38     bg_panimate.obj
 0002:00005c4c       ??_C@_0O@FLDMPINL@BOTH_T2_TR_BL?$AA@ 300a3c4c     bg_panimate.obj
 0002:00005c5c       ??_C@_0BD@EOHNHFLF@BOTH_GETUP_FROLL_R?$AA@ 300a3c5c     bg_panimate.obj
 0002:00005c70       ??_C@_0O@HHONADLF@BOTH_T2_T__BR?$AA@ 300a3c70     bg_panimate.obj
 0002:00005c80       ??_C@_0BF@GJCHNFNC@BOTH_WALL_FLIP_BACK1?$AA@ 300a3c80     bg_panimate.obj
 0002:00005c98       ??_C@_0O@GDBDDDJG@BOTH_T2_T___R?$AA@ 300a3c98     bg_panimate.obj
 0002:00005ca8       ??_C@_0BF@ECAKIGBB@BOTH_WALL_FLIP_BACK2?$AA@ 300a3ca8     bg_panimate.obj
 0002:00005cc0       ??_C@_0O@GPEGNMHH@BOTH_T2_T__TR?$AA@ 300a3cc0     bg_panimate.obj
 0002:00005cd0       ??_C@_0L@JNPKOHDB@BOTH_SPIN1?$AA@ 300a3cd0     bg_panimate.obj
 0002:00005cdc       ??_C@_0O@LLAHODKI@BOTH_T2_T__TL?$AA@ 300a3cdc     bg_panimate.obj
 0002:00005cec       ??_C@_0BD@LHONGOKG@BOTH_CEILING_CLING?$AA@ 300a3cec     bg_panimate.obj
 0002:00005d00       ??_C@_0O@LHFCAMEJ@BOTH_T2_T___L?$AA@ 300a3d00     bg_panimate.obj
 0002:00005d10       ??_C@_0BC@GKKAPGJM@BOTH_CEILING_DROP?$AA@ 300a3d10     bg_panimate.obj
 0002:00005d24       ??_C@_0O@KDKMDMGK@BOTH_T2_T__BL?$AA@ 300a3d24     bg_panimate.obj
 0002:00005d34       ??_C@_0BA@CINBNIPK@BOTH_FJSS_TR_BL?$AA@ 300a3d34     bg_panimate.obj
 0002:00005d44       ??_C@_0O@FAKNOOOH@BOTH_T2_TL_BR?$AA@ 300a3d44     bg_panimate.obj
 0002:00005d54       ??_C@_0BA@CDEAMOMG@BOTH_FJSS_TL_BR?$AA@ 300a3d54     bg_panimate.obj
 0002:00005d64       ??_C@_0O@IEOMNBDI@BOTH_T2_TL_BL?$AA@ 300a3d64     bg_panimate.obj
 0002:00005d74       ??_C@_0BJ@PHBNOEEM@BOTH_RIGHTHANDCHOPPEDOFF?$AA@ 300a3d74     bg_panimate.obj
 0002:00005d90       ??_C@_0O@DKGKBOCE@BOTH_T2__L_BR?$AA@ 300a3d90     bg_panimate.obj
 0002:00005da0       ??_C@_0BM@ELFFAKLF@BOTH_DEFLECTSLASH__R__L_FIN?$AA@ 300a3da0     bg_panimate.obj
 0002:00005dbc       ??_C@_0O@COJECOAH@BOTH_T2__L__R?$AA@ 300a3dbc     bg_panimate.obj
 0002:00005dcc       ??_C@_0N@PBBFIKGE@BOTH_BASHED1?$AA@ 300a3dcc     bg_panimate.obj
 0002:00005ddc       ??_C@_0O@PGIAPODJ@BOTH_T2__L_TL?$AA@ 300a3ddc     bg_panimate.obj
 0002:00005dec       ??_C@_0O@HINNODAG@BOTH_ARIAL_F1?$AA@ 300a3dec     bg_panimate.obj
 0002:00005dfc       ??_C@_0O@IFCCAPGB@BOTH_T2_BL_BR?$AA@ 300a3dfc     bg_panimate.obj
 0002:00005e0c       ??_C@_0BD@GDAEGPCN@BOTH_BUTTERFLY_FR1?$AA@ 300a3e0c     bg_panimate.obj
 0002:00005e20       ??_C@_0O@JBNMDPEC@BOTH_T2_BL__R?$AA@ 300a3e20     bg_panimate.obj
 0002:00005e30       ??_C@_0BD@HFLMOBFH@BOTH_BUTTERFLY_FL1?$AA@ 300a3e30     bg_panimate.obj
 0002:00005e44       ??_C@_0O@JNIJNAKD@BOTH_T2_BL_TR?$AA@ 300a3e44     bg_panimate.obj
 0002:00005e54       ??_C@_0BC@BJEPANJA@BOTH_BACK_FLIP_UP?$AA@ 300a3e54     bg_panimate.obj
 0002:00005e68       ??_C@_0O@EFJNAAJN@BOTH_T2_BL__L?$AA@ 300a3e68     bg_panimate.obj
 0002:00005e78       ??_C@_0BA@NPLLAIGE@BOTH_LOSE_SABER?$AA@ 300a3e78     bg_panimate.obj
 0002:00005e88       ??_C@_0O@ECFJPJEA@BOTH_T2_BR_TR?$AA@ 300a3e88     bg_panimate.obj
 0002:00005e98       ??_C@_0BB@IIJAHOAM@BOTH_STAFF_TAUNT?$AA@ 300a3e98     bg_panimate.obj
 0002:00005eac       ??_C@_0O@PHPHIHAN@BOTH_T2_BR_T_?$AA@ 300a3eac     bg_panimate.obj
 0002:00005ebc       ??_C@_0BA@ECEJJOCF@BOTH_DUAL_TAUNT?$AA@ 300a3ebc     bg_panimate.obj
 0002:00005ecc       ??_C@_0O@OFLKDHMH@BOTH_T2__R_BR?$AA@ 300a3ecc     bg_panimate.obj
 0002:00005edc       ??_C@_0L@LKOFLFIC@BOTH_A6_FB?$AA@ 300a3edc     bg_panimate.obj
 0002:00005ee8       ??_C@_0O@EILPJGEI@BOTH_T2__R_T_?$AA@ 300a3ee8     bg_panimate.obj
 0002:00005ef8       ??_C@_0L@PNLACCAF@BOTH_A6_LR?$AA@ 300a3ef8     bg_panimate.obj
 0002:00005f04       ??_C@_0O@JLIDPHCH@BOTH_T2_TR__R?$AA@ 300a3f04     bg_panimate.obj
 0002:00005f14       ??_C@_0N@NLKPNJAP@BOTH_A7_HILT?$AA@ 300a3f14     bg_panimate.obj
 0002:00005f24       ??_C@_0O@CCHIGGIL@BOTH_T2_TR_T_?$AA@ 300a3f24     bg_panimate.obj
 0002:00005f34       ??_C@_0BA@IMOMKPBA@BOTH_ALORA_SPIN?$AA@ 300a3f34     bg_panimate.obj
 0002:00005f44       ??_C@_0O@EEFDNOME@BOTH_T2_TL__R?$AA@ 300a3f44     bg_panimate.obj
 0002:00005f54       ??_C@_0BC@FMCCBPNO@BOTH_ALORA_FLIP_1?$AA@ 300a3f54     bg_panimate.obj
 0002:00005f68       ??_C@_0O@EIAGDBCF@BOTH_T2_TL_TR?$AA@ 300a3f68     bg_panimate.obj
 0002:00005f78       ??_C@_0BC@HHAPEMBN@BOTH_ALORA_FLIP_2?$AA@ 300a3f78     bg_panimate.obj
 0002:00005f8c       ??_C@_0O@PNKIEPGI@BOTH_T2_TL_T_?$AA@ 300a3f8c     bg_panimate.obj
 0002:00005f9c       ??_C@_0BC@GOBEHNFM@BOTH_ALORA_FLIP_3?$AA@ 300a3f9c     bg_panimate.obj
 0002:00005fb0       ??_C@_0O@JABCOBBL@BOTH_T2_TL__L?$AA@ 300a3fb0     bg_panimate.obj
 0002:00005fc0       ??_C@_0BC@FIDADFOL@BOTH_ALORA_FLIP_B?$AA@ 300a3fc0     bg_panimate.obj
 0002:00005fd4       ??_C@_0O@CCMBMBOG@BOTH_T2__L_TR?$AA@ 300a3fd4     bg_panimate.obj
 0002:00005fe4       ??_C@_0BG@EABOBAMI@BOTH_ALORA_SPIN_THROW?$AA@ 300a3fe4     bg_panimate.obj
 0002:00005ffc       ??_C@_0O@JHGPLPKL@BOTH_T2__L_T_?$AA@ 300a3ffc     bg_panimate.obj
 0002:0000600c       ??_C@_0BG@DCFBCKEL@BOTH_ALORA_SPIN_SLASH?$AA@ 300a400c     bg_panimate.obj
 0002:00006024       ??_C@_0O@OOCLCBPL@BOTH_T2__L_BL?$AA@ 300a4024     bg_panimate.obj
 0002:00006034       ??_C@_0BB@JJKGACDG@BOTH_ALORA_TAUNT?$AA@ 300a4034     bg_panimate.obj
 0002:00006048       ??_C@_0O@CICHKOOO@BOTH_T2_BL_T_?$AA@ 300a4048     bg_panimate.obj
 0002:00006058       ??_C@_0P@KODDALBF@BOTH_ROSH_PAIN?$AA@ 300a4058     bg_panimate.obj
 0002:00006068       ??_C@_0O@EJMIOPHM@BOTH_T2_BL_TL?$AA@ 300a4068     bg_panimate.obj
 0002:00006078       ??_C@_0P@ENOEHDDL@BOTH_ROSH_HEAL?$AA@ 300a4078     bg_panimate.obj
 0002:00006088       ??_C@_0O@IFIODGGH@BOTH_S2_S1_T_?$AA@ 300a4088     bg_panimate.obj
 0002:00006098       ??_C@_0BK@NBGHMOBL@BOTH_TAVION_SCEPTERGROUND?$AA@ 300a4098     bg_panimate.obj
 0002:000060b4       ??_C@_0O@OIDEJIBE@BOTH_S2_S1__L?$AA@ 300a40b4     bg_panimate.obj
 0002:000060c4       ??_C@_0BH@HFIAAKKL@BOTH_TAVION_SWORDPOWER?$AA@ 300a40c4     bg_panimate.obj
 0002:000060dc       ??_C@_0O@DMHFKHML@BOTH_S2_S1__R?$AA@ 300a40dc     bg_panimate.obj
 0002:000060ec       ??_C@_0BD@FGCDNAOB@BOTH_SCEPTER_START?$AA@ 300a40ec     bg_panimate.obj
 0002:00006100       ??_C@_0O@OEGBHHPF@BOTH_S2_S1_TL?$AA@ 300a4100     bg_panimate.obj
 0002:00006110       ??_C@_0BC@HIHKAHFB@BOTH_SCEPTER_HOLD?$AA@ 300a4110     bg_panimate.obj
 0002:00006124       ??_C@_0O@CIILJHOI@BOTH_S2_S1_BR?$AA@ 300a4124     bg_panimate.obj
 0002:00006134       ??_C@_0BC@MELKBIFA@BOTH_SCEPTER_STOP?$AA@ 300a4134     bg_panimate.obj
 0002:00006148       ??_C@_0O@PMMKKIDH@BOTH_S2_S1_BL?$AA@ 300a4148     bg_panimate.obj
 0002:00006158       ??_C@_0P@FMNEHFNM@BOTH_KYLE_GRAB?$AA@ 300a4158     bg_panimate.obj
 0002:00006168       ??_C@_0O@DACAEICK@BOTH_S2_S1_TR?$AA@ 300a4168     bg_panimate.obj
 0002:00006178       ??_C@_0P@NNAHOJON@BOTH_KYLE_MISS?$AA@ 300a4178     bg_panimate.obj
 0002:00006188       ??_C@_0O@ICEMGKJK@BOTH_R2_B__S1?$AA@ 300a4188     bg_panimate.obj
 0002:00006198       ??_C@_0P@NOBCGCHA@BOTH_KYLE_PA_1?$AA@ 300a4198     bg_panimate.obj
 0002:000061a8       ??_C@_0O@BKEEJGIN@BOTH_R2__L_S1?$AA@ 300a41a8     bg_panimate.obj
 0002:000061b8       ??_C@_0BB@JKEILKGN@BOTH_PLAYER_PA_1?$AA@ 300a41b8     bg_panimate.obj
 0002:000061cc       ??_C@_0O@MFJELPGO@BOTH_R2__R_S1?$AA@ 300a41cc     bg_panimate.obj
 0002:000061dc       ??_C@_0P@PFDPDBLD@BOTH_KYLE_PA_2?$AA@ 300a41dc     bg_panimate.obj
 0002:000061ec       ??_C@_0O@HAIDGGEO@BOTH_R2_TL_S1?$AA@ 300a41ec     bg_panimate.obj
 0002:000061fc       ??_C@_0BB@LBGFOJKO@BOTH_PLAYER_PA_2?$AA@ 300a41fc     bg_panimate.obj
 0002:00006210       ??_C@_0O@HKNMKOCL@BOTH_R2_BR_S1?$AA@ 300a4210     bg_panimate.obj
 0002:00006220       ??_C@_0BD@BPPGNPKM@BOTH_PLAYER_PA_FLY?$AA@ 300a4220     bg_panimate.obj
 0002:00006234       ??_C@_0O@KFAMIHMI@BOTH_R2_BL_S1?$AA@ 300a4234     bg_panimate.obj
 0002:00006244       ??_C@_0P@OMCEAAPC@BOTH_KYLE_PA_3?$AA@ 300a4244     bg_panimate.obj
 0002:00006254       ??_C@_0O@KPFDEPKN@BOTH_R2_TR_S1?$AA@ 300a4254     bg_panimate.obj
 0002:00006264       ??_C@_0BB@KIHONIOP@BOTH_PLAYER_PA_3?$AA@ 300a4264     bg_panimate.obj
 0002:00006278       ??_C@_0O@CEHIFDBH@BOTH_B2_BR___?$AA@ 300a4278     bg_panimate.obj
 0002:00006288       ??_C@_0BF@HCPCIHAG@BOTH_PLAYER_PA_3_FLY?$AA@ 300a4288     bg_panimate.obj
 0002:000062a0       ??_C@_0O@JLDAECFC@BOTH_B2__R___?$AA@ 300a42a0     bg_panimate.obj
 0002:000062b0       ??_C@_0BA@NKEMKFLI@BOTH_BUCK_RIDER?$AA@ 300a42b0     bg_panimate.obj
 0002:000062c0       ??_C@_0O@PBPHLCJB@BOTH_B2_TR___?$AA@ 300a42c0     bg_panimate.obj
 0002:000062d0       ??_C@_0BA@CFDHFDLH@BOTH_HOLD_START?$AA@ 300a42d0     bg_panimate.obj
 0002:000062e0       ??_C@_0O@JGHHGCA@BOTH_B2_T____?$AA@ 300a42e0     bg_panimate.obj
 0002:000062f0       ??_C@_0P@EPJNGCKB@BOTH_HOLD_MISS?$AA@ 300a42f0     bg_panimate.obj
 0002:00006300       ??_C@_0O@COCHJLHC@BOTH_B2_TL___?$AA@ 300a4300     bg_panimate.obj
 0002:00006310       ??_C@_0P@EDJFENCG@BOTH_HOLD_IDLE?$AA@ 300a4310     bg_panimate.obj
 0002:00006320       ??_C@_0O@EEOAGLLB@BOTH_B2__L___?$AA@ 300a4320     bg_panimate.obj
 0002:00006330       ??_C@_0O@HFIKEJBB@BOTH_HOLD_END?$AA@ 300a4330     bg_panimate.obj
 0002:00006340       ??_C@_0O@PLKIHKPE@BOTH_B2_BL___?$AA@ 300a4340     bg_panimate.obj
 0002:00006350       ??_C@_0BB@EFCJFPCD@BOTH_HOLD_ATTACK?$AA@ 300a4350     bg_panimate.obj
 0002:00006364       ??_C@_0O@FHGCCKJN@BOTH_D2_BR___?$AA@ 300a4364     bg_panimate.obj
 0002:00006374       ??_C@_0BA@KJAIIPAE@BOTH_HOLD_SNIFF?$AA@ 300a4374     bg_panimate.obj
 0002:00006384       ??_C@_0O@OICKDLNI@BOTH_D2__R___?$AA@ 300a4384     bg_panimate.obj
 0002:00006394       ??_C@_0P@PLIENJJJ@BOTH_HOLD_DROP?$AA@ 300a4394     bg_panimate.obj
 0002:000063a4       ??_C@_0O@ICONMLBL@BOTH_D2_TR___?$AA@ 300a43a4     bg_panimate.obj
 0002:000063b4       ??_C@_0N@CFDAGGFP@BOTH_GRABBED?$AA@ 300a43b4     bg_panimate.obj
 0002:000063c4       ??_C@_0O@FNDNOCPI@BOTH_D2_TL___?$AA@ 300a43c4     bg_panimate.obj
 0002:000063d4       ??_C@_0O@LAAPIANC@BOTH_RELEASED?$AA@ 300a43d4     bg_panimate.obj
 0002:000063e4       ??_C@_0O@DHPKBCDL@BOTH_D2__L___?$AA@ 300a43e4     bg_panimate.obj
 0002:000063f4       ??_C@_0P@PIJKILFE@BOTH_HANG_IDLE?$AA@ 300a43f4     bg_panimate.obj
 0002:00006404       ??_C@_0O@IILCADHO@BOTH_D2_BL___?$AA@ 300a4404     bg_panimate.obj
 0002:00006414       ??_C@_0BB@CKCHJINN@BOTH_HANG_ATTACK?$AA@ 300a4414     bg_panimate.obj
 0002:00006428       ??_C@_0O@KPPCOOCM@BOTH_D2_B____?$AA@ 300a4428     bg_panimate.obj
 0002:00006438       ??_C@_0P@EHILJFLF@BOTH_HANG_PAIN?$AA@ 300a4438     bg_panimate.obj
 0002:00006448       ??_C@_0O@OILOHKFI@BOTH_A3_T__B_?$AA@ 300a4448     bg_panimate.obj
 0002:00006458       ??_C@_09PPDGHFCD@BOTH_HIT1?$AA@ 300a4458     bg_panimate.obj
 0002:00006464       ??_C@_0O@EGJCJKH@BOTH_A3__L__R?$AA@ 300a4464     bg_panimate.obj
 0002:00006474       ??_C@_0BA@ILKIBIOO@BOTH_LADDER_UP1?$AA@ 300a4474     bg_panimate.obj
 0002:00006484       ??_C@_0O@PPIDPJL@BOTH_A3__R__L?$AA@ 300a4484     bg_panimate.obj
 0002:00006494       ??_C@_0BB@BOJOMJDD@BOTH_LADDER_DWN1?$AA@ 300a4494     bg_panimate.obj
 0002:000064a8       ??_C@_0O@HKFAOJEH@BOTH_A3_TL_BR?$AA@ 300a44a8     bg_panimate.obj
 0002:000064b8       ??_C@_0BB@OMHFJNGP@BOTH_LADDER_IDLE?$AA@ 300a44b8     bg_panimate.obj
 0002:000064cc       ??_C@_0O@LMOFMBDP@BOTH_A3_BR_TL?$AA@ 300a44cc     bg_panimate.obj
 0002:000064dc       ??_C@_0BC@ODIBALPH@BOTH_FLY_SHIELDED?$AA@ 300a44dc     bg_panimate.obj
 0002:000064f0       ??_C@_0O@LHHENHAD@BOTH_A3_BL_TR?$AA@ 300a44f0     bg_panimate.obj
 0002:00006500       ??_C@_0BA@PIGFMLPF@BOTH_SWIM_IDLE1?$AA@ 300a4500     bg_panimate.obj
 0002:00006510       ??_C@_0O@HBMBPPHL@BOTH_A3_TR_BL?$AA@ 300a4510     bg_panimate.obj
 0002:00006520       ??_C@_0BB@FOFCFDFI@BOTH_SWIMFORWARD?$AA@ 300a4520     bg_panimate.obj
 0002:00006534       ??_C@_0O@ICKGBGDP@BOTH_T3_BR__R?$AA@ 300a4534     bg_panimate.obj
 0002:00006544       ??_C@_0BC@LJIHFCKB@BOTH_SWIMBACKWARD?$AA@ 300a4544     bg_panimate.obj
 0002:00006558       ??_C@_0O@FKLCMGAB@BOTH_T3_BR_TL?$AA@ 300a4558     bg_panimate.obj
 0002:00006568       ??_C@_0M@LIOOPEJI@BOTH_SLEEP1?$AA@ 300a4568     bg_panimate.obj
 0002:00006574       ??_C@_0O@FGOHCJOA@BOTH_T3_BR__L?$AA@ 300a4574     bg_panimate.obj
 0002:00006584       ??_C@_0BB@HHHLEEDB@BOTH_SLEEP6START?$AA@ 300a4584     bg_panimate.obj
 0002:00006598       ??_C@_0O@ECBJBJMD@BOTH_T3_BR_BL?$AA@ 300a4598     bg_panimate.obj
 0002:000065a8       ??_C@_0BA@CINKHNGE@BOTH_SLEEP6STOP?$AA@ 300a45a8     bg_panimate.obj
 0002:000065b8       ??_C@_0O@DBLLOIJL@BOTH_T3__R_TR?$AA@ 300a45b8     bg_panimate.obj
 0002:000065c8       ??_C@_0BB@HBPPPACM@BOTH_SLEEP1GETUP?$AA@ 300a45c8     bg_panimate.obj
 0002:000065dc       ??_C@_0O@OFPKNHEE@BOTH_T3__R_TL?$AA@ 300a45dc     bg_panimate.obj
 0002:000065ec       ??_C@_0BC@NPNJMHGC@BOTH_SLEEP1GETUP2?$AA@ 300a45ec     bg_panimate.obj
 0002:00006600       ??_C@_0O@OJKPDIKF@BOTH_T3__R__L?$AA@ 300a4600     bg_panimate.obj
 0002:00006610       ??_C@_0BB@OFKGJANF@BOTH_CHOKE1START?$AA@ 300a4610     bg_panimate.obj
 0002:00006624       ??_C@_0O@PNFBAIIG@BOTH_T3__R_BL?$AA@ 300a4624     bg_panimate.obj
 0002:00006634       ??_C@_0BF@ICMFFJIF@BOTH_CHOKE1STARTHOLD?$AA@ 300a4634     bg_panimate.obj
 0002:0000664c       ??_C@_0O@EDNHMHJK@BOTH_T3_TR_BR?$AA@ 300a464c     bg_panimate.obj
 0002:0000665c       ??_C@_0M@PECDCEEJ@BOTH_CHOKE1?$AA@ 300a465c     bg_panimate.obj
 0002:00006668       ??_C@_0O@IPDNCHIH@BOTH_T3_TR_TL?$AA@ 300a4668     bg_panimate.obj
 0002:00006678       ??_C@_0M@NPAOHHIK@BOTH_CHOKE2?$AA@ 300a4678     bg_panimate.obj
 0002:00006684       ??_C@_0O@IDGIMIGG@BOTH_T3_TR__L?$AA@ 300a4684     bg_panimate.obj
 0002:00006694       ??_C@_0M@MGBFEGML@BOTH_CHOKE3?$AA@ 300a4694     bg_panimate.obj
 0002:000066a0       ??_C@_0O@JHJGPIEF@BOTH_T3_TR_BL?$AA@ 300a46a0     bg_panimate.obj
 0002:000066b0       ??_C@_0O@CAGOCCAO@BOTH_POWERUP1?$AA@ 300a46b0     bg_panimate.obj
 0002:000066c0       ??_C@_0O@LLEHADCL@BOTH_T3_T__BR?$AA@ 300a46c0     bg_panimate.obj
 0002:000066d0       ??_C@_0M@ODIMNEKC@BOTH_TURNON?$AA@ 300a46d0     bg_panimate.obj
 0002:000066dc       ??_C@_0O@KPLJDDAI@BOTH_T3_T___R?$AA@ 300a46dc     bg_panimate.obj
 0002:000066ec       ??_C@_0N@JAALPHCL@BOTH_TURNOFF?$AA@ 300a46ec     bg_panimate.obj
 0002:000066fc       ??_C@_0O@KDOMNMOJ@BOTH_T3_T__TR?$AA@ 300a46fc     bg_panimate.obj
 0002:0000670c       ??_C@_0N@LILLBNDA@BOTH_BUTTON1?$AA@ 300a470c     bg_panimate.obj
 0002:0000671c       ??_C@_0O@HHKNODDG@BOTH_T3_T__TL?$AA@ 300a471c     bg_panimate.obj
 0002:0000672c       ??_C@_0N@JDJGEOPD@BOTH_BUTTON2?$AA@ 300a472c     bg_panimate.obj
 0002:0000673c       ??_C@_0O@HLPIAMNH@BOTH_T3_T___L?$AA@ 300a473c     bg_panimate.obj
 0002:0000674c       ??_C@_0BB@FCMBEPCD@BOTH_BUTTON_HOLD?$AA@ 300a474c     bg_panimate.obj
 0002:00006760       ??_C@_0O@GPAGDMPE@BOTH_T3_T__BL?$AA@ 300a4760     bg_panimate.obj
 0002:00006770       ??_C@_0BE@BFLOBGOL@BOTH_BUTTON_RELEASE?$AA@ 300a4770     bg_panimate.obj
 0002:00006784       ??_C@_0O@JMAHOOHJ@BOTH_T3_TL_BR?$AA@ 300a4784     bg_panimate.obj
 0002:00006794       ??_C@_0BA@IBNLMMOO@BOTH_RESISTPUSH?$AA@ 300a4794     bg_panimate.obj
 0002:000067a4       ??_C@_0O@EIEGNBKG@BOTH_T3_TL_BL?$AA@ 300a47a4     bg_panimate.obj
 0002:000067b4       ??_C@_0P@HEAGBOPG@BOTH_FORCEPUSH?$AA@ 300a47b4     bg_panimate.obj
 0002:000067c4       ??_C@_0O@PGMABOLK@BOTH_T3__L_BR?$AA@ 300a47c4     bg_panimate.obj
 0002:000067d4       ??_C@_0P@HBADPLP@BOTH_FORCEPULL?$AA@ 300a47d4     bg_panimate.obj
 0002:000067e4       ??_C@_0O@OCDOCOJJ@BOTH_T3__L__R?$AA@ 300a47e4     bg_panimate.obj
 0002:000067f4       ??_C@_0BA@IHNHLMMO@BOTH_MINDTRICK1?$AA@ 300a47f4     bg_panimate.obj
 0002:00006804       ??_C@_0O@DKCKPOKH@BOTH_T3__L_TL?$AA@ 300a4804     bg_panimate.obj
 0002:00006814       ??_C@_0BA@KMPKOPAN@BOTH_MINDTRICK2?$AA@ 300a4814     bg_panimate.obj
 0002:00006824       ??_C@_0O@EJIIAPPP@BOTH_T3_BL_BR?$AA@ 300a4824     bg_panimate.obj
 0002:00006834       ??_C@_0BE@OEAHGILF@BOTH_FORCELIGHTNING?$AA@ 300a4834     bg_panimate.obj
 0002:00006848       ??_C@_0O@FNHGDPNM@BOTH_T3_BL__R?$AA@ 300a4848     bg_panimate.obj
 0002:00006858       ??_C@_0BK@NACKCJFF@BOTH_FORCELIGHTNING_START?$AA@ 300a4858     bg_panimate.obj
 0002:00006874       ??_C@_0O@FBCDNADN@BOTH_T3_BL_TR?$AA@ 300a4874     bg_panimate.obj
 0002:00006884       ??_C@_0BJ@KCFBGHIB@BOTH_FORCELIGHTNING_HOLD?$AA@ 300a4884     bg_panimate.obj
 0002:000068a0       ??_C@_0O@IJDHAAAD@BOTH_T3_BL__L?$AA@ 300a48a0     bg_panimate.obj
 0002:000068b0       ??_C@_0BM@GCBAKCPL@BOTH_FORCELIGHTNING_RELEASE?$AA@ 300a48b0     bg_panimate.obj
 0002:000068cc       ??_C@_0O@IOPDPJNO@BOTH_T3_BR_TR?$AA@ 300a48cc     bg_panimate.obj
 0002:000068dc       ??_C@_0BF@FPDMFLAG@BOTH_FORCEHEAL_START?$AA@ 300a48dc     bg_panimate.obj
 0002:000068f4       ??_C@_0O@DLFNIHJD@BOTH_T3_BR_T_?$AA@ 300a48f4     bg_panimate.obj
 0002:00006904       ??_C@_0BE@GNHNNEFM@BOTH_FORCEHEAL_STOP?$AA@ 300a4904     bg_panimate.obj
 0002:00006918       ??_C@_0O@CJBADHFJ@BOTH_T3__R_BR?$AA@ 300a4918     bg_panimate.obj
 0002:00006928       ??_C@_0BF@DKJODMIL@BOTH_FORCEHEAL_QUICK?$AA@ 300a4928     bg_panimate.obj
 0002:00006940       ??_C@_0O@IEBFJGNG@BOTH_T3__R_T_?$AA@ 300a4940     bg_panimate.obj
 0002:00006950       ??_C@_0P@PONJILD@BOTH_SABERPULL?$AA@ 300a4950     bg_panimate.obj
 0002:00006960       ??_C@_0O@FHCJPHLJ@BOTH_T3_TR__R?$AA@ 300a4960     bg_panimate.obj
 0002:00006970       ??_C@_0BA@BDJFPNIF@BOTH_FORCEGRIP1?$AA@ 300a4970     bg_panimate.obj
 0002:00006980       ??_C@_0O@OONCGGBF@BOTH_T3_TR_T_?$AA@ 300a4980     bg_panimate.obj
 0002:00006990       ??_C@_0BA@CBKDJPAH@BOTH_FORCEGRIP3?$AA@ 300a4990     bg_panimate.obj
 0002:000069a0       ??_C@_0O@IIPJNOFK@BOTH_T3_TL__R?$AA@ 300a49a0     bg_panimate.obj
 0002:000069b0       ??_C@_0BF@BAAGEEBG@BOTH_FORCEGRIP3THROW?$AA@ 300a49b0     bg_panimate.obj
 0002:000069c8       ??_C@_0O@IEKMDBLL@BOTH_T3_TL_TR?$AA@ 300a49c8     bg_panimate.obj
 0002:000069d8       ??_C@_0BE@JLIMFCGH@BOTH_FORCEGRIP_HOLD?$AA@ 300a49d8     bg_panimate.obj
 0002:000069ec       ??_C@_0O@DBACEPPG@BOTH_T3_TL_T_?$AA@ 300a49ec     bg_panimate.obj
 0002:000069fc       ??_C@_0BH@JFCMGCAP@BOTH_FORCEGRIP_RELEASE?$AA@ 300a49fc     bg_panimate.obj
 0002:00006a14       ??_C@_0O@FMLIOBIF@BOTH_T3_TL__L?$AA@ 300a4a14     bg_panimate.obj
 0002:00006a24       ??_C@_0L@EJBFFAAC@BOTH_TOSS1?$AA@ 300a4a24     bg_panimate.obj
 0002:00006a30       ??_C@_0O@OOGLMBHI@BOTH_T3__L_TR?$AA@ 300a4a30     bg_panimate.obj
 0002:00006a40       ??_C@_0L@GCDIADMB@BOTH_TOSS2?$AA@ 300a4a40     bg_panimate.obj
 0002:00006a4c       ??_C@_0O@FLMFLPDF@BOTH_T3__L_T_?$AA@ 300a4a4c     bg_panimate.obj
 0002:00006a5c       ??_C@_0BA@GLJOFMJL@BOTH_FORCE_RAGE?$AA@ 300a4a5c     bg_panimate.obj
 0002:00006a6c       ??_C@_0O@CCIBCBGF@BOTH_T3__L_BL?$AA@ 300a4a6c     bg_panimate.obj
 0002:00006a7c       ??_C@_0BM@OPHDEJED@BOTH_FORCE_2HANDEDLIGHTNING?$AA@ 300a4a7c     bg_panimate.obj
 0002:00006a98       ??_C@_0O@OEINKOHA@BOTH_T3_BL_T_?$AA@ 300a4a98     bg_panimate.obj
 0002:00006aa8       ??_C@_0CC@HEIANMP@BOTH_FORCE_2HANDEDLIGHTNING_STAR@ 300a4aa8     bg_panimate.obj
 0002:00006acc       ??_C@_0O@IFGCOPOC@BOTH_T3_BL_TL?$AA@ 300a4acc     bg_panimate.obj
 0002:00006adc       ??_C@_0CB@MNKHBDGA@BOTH_FORCE_2HANDEDLIGHTNING_HOLD@ 300a4adc     bg_panimate.obj
 0002:00006b00       ??_C@_0O@EJCEDGPJ@BOTH_S3_S1_T_?$AA@ 300a4b00     bg_panimate.obj
 0002:00006b10       ??_C@_0CE@NFLNPDNI@BOTH_FORCE_2HANDEDLIGHTNING_RELE@ 300a4b10     bg_panimate.obj
 0002:00006b34       ??_C@_0O@CEJOJIIK@BOTH_S3_S1__L?$AA@ 300a4b34     bg_panimate.obj
 0002:00006b44       ??_C@_0BB@NHPCBMHH@BOTH_FORCE_DRAIN?$AA@ 300a4b44     bg_panimate.obj
 0002:00006b58       ??_C@_0O@PANPKHFF@BOTH_S3_S1__R?$AA@ 300a4b58     bg_panimate.obj
 0002:00006b68       ??_C@_0BH@BHMNGNLJ@BOTH_FORCE_DRAIN_START?$AA@ 300a4b68     bg_panimate.obj
 0002:00006b80       ??_C@_0O@CIMLHHGL@BOTH_S3_S1_TL?$AA@ 300a4b80     bg_panimate.obj
 0002:00006b90       ??_C@_0BG@JCLNDPPK@BOTH_FORCE_DRAIN_HOLD?$AA@ 300a4b90     bg_panimate.obj
 0002:00006ba8       ??_C@_0O@OECBJHHG@BOTH_S3_S1_BR?$AA@ 300a4ba8     bg_panimate.obj
 0002:00006bb8       ??_C@_0BJ@OBGKFMHF@BOTH_FORCE_DRAIN_RELEASE?$AA@ 300a4bb8     bg_panimate.obj
 0002:00006bd4       ??_C@_0O@DAGAKIKJ@BOTH_S3_S1_BL?$AA@ 300a4bd4     bg_panimate.obj
 0002:00006be4       ??_C@_0BM@PACMCIGF@BOTH_FORCE_DRAIN_GRAB_START?$AA@ 300a4be4     bg_panimate.obj
 0002:00006c00       ??_C@_0O@PMIKEILE@BOTH_S3_S1_TR?$AA@ 300a4c00     bg_panimate.obj
 0002:00006c10       ??_C@_0BL@MLNFOEPE@BOTH_FORCE_DRAIN_GRAB_HOLD?$AA@ 300a4c10     bg_panimate.obj
 0002:00006c2c       ??_C@_0O@EOOGGKAE@BOTH_R3_B__S1?$AA@ 300a4c2c     bg_panimate.obj
 0002:00006c3c       ??_C@_0BK@POJHMFNL@BOTH_FORCE_DRAIN_GRAB_END?$AA@ 300a4c3c     bg_panimate.obj
 0002:00006c58       ??_C@_0O@NGOOJGBD@BOTH_R3__L_S1?$AA@ 300a4c58     bg_panimate.obj
 0002:00006c68       ??_C@_0BJ@GKPDEPNJ@BOTH_FORCE_DRAIN_GRABBED?$AA@ 300a4c68     bg_panimate.obj
 0002:00006c84       ??_C@_0O@JDOLPPA@BOTH_R3__R_S1?$AA@ 300a4c84     bg_panimate.obj
 0002:00006c94       ??_C@_0BC@HHGANHBC@BOTH_FORCE_ABSORB?$AA@ 300a4c94     bg_panimate.obj
 0002:00006ca8       ??_C@_0O@LMCJGGNA@BOTH_R3_TL_S1?$AA@ 300a4ca8     bg_panimate.obj
 0002:00006cb8       ??_C@_0BI@BPAAFONF@BOTH_FORCE_ABSORB_START?$AA@ 300a4cb8     bg_panimate.obj
 0002:00006cd0       ??_C@_0O@LGHGKOLF@BOTH_R3_BR_S1?$AA@ 300a4cd0     bg_panimate.obj
 0002:00006ce0       ??_C@_0BG@CBNCOJEH@BOTH_FORCE_ABSORB_END?$AA@ 300a4ce0     bg_panimate.obj
 0002:00006cf8       ??_C@_0O@GJKGIHFG@BOTH_R3_BL_S1?$AA@ 300a4cf8     bg_panimate.obj
 0002:00006d08       ??_C@_0BD@FFPOEFNG@BOTH_FORCE_PROTECT?$AA@ 300a4d08     bg_panimate.obj
 0002:00006d1c       ??_C@_0O@GDPJEPDD@BOTH_R3_TR_S1?$AA@ 300a4d1c     bg_panimate.obj
 0002:00006d2c       ??_C@_0BI@GLAHPFBH@BOTH_FORCE_PROTECT_FAST?$AA@ 300a4d2c     bg_panimate.obj
 0002:00006d44       ??_C@_0O@OINCFDIJ@BOTH_B3_BR___?$AA@ 300a4d44     bg_panimate.obj
 0002:00006d54       ??_C@_09FOHPNOGF@BOTH_WIND?$AA@ 300a4d54     bg_panimate.obj
 0002:00006d60       ??_C@_0O@FHJKECMM@BOTH_B3__R___?$AA@ 300a4d60     bg_panimate.obj
 0002:00006d70       ??_C@_0BE@FLPJEFCO@BOTH_STAND_TO_KNEEL?$AA@ 300a4d70     bg_panimate.obj
 0002:00006d84       ??_C@_0O@DNFNLCAP@BOTH_B3_TR___?$AA@ 300a4d84     bg_panimate.obj
 0002:00006d94       ??_C@_0BE@OBEECCKH@BOTH_KNEEL_TO_STAND?$AA@ 300a4d94     bg_panimate.obj
 0002:00006da8       ??_C@_0O@MFMNHGLO@BOTH_B3_T____?$AA@ 300a4da8     bg_panimate.obj
 0002:00006db8       ??_C@_0BD@OHIFPJFA@BOTH_TUSKENATTACK1?$AA@ 300a4db8     bg_panimate.obj
 0002:00006dcc       ??_C@_0O@OCINJLOM@BOTH_B3_TL___?$AA@ 300a4dcc     bg_panimate.obj
 0002:00006ddc       ??_C@_0BD@MMKIKKJD@BOTH_TUSKENATTACK2?$AA@ 300a4ddc     bg_panimate.obj
 0002:00006df0       ??_C@_0O@IIEKGLCP@BOTH_B3__L___?$AA@ 300a4df0     bg_panimate.obj
 0002:00006e00       ??_C@_0BD@NFLDJLNC@BOTH_TUSKENATTACK3?$AA@ 300a4e00     bg_panimate.obj
 0002:00006e14       ??_C@_0O@DHACHKGK@BOTH_B3_BL___?$AA@ 300a4e14     bg_panimate.obj
 0002:00006e24       ??_C@_0BC@BIOHNIGA@BOTH_TUSKENLUNGE1?$AA@ 300a4e24     bg_panimate.obj
 0002:00006e38       ??_C@_0O@JLMICKAD@BOTH_D3_BR___?$AA@ 300a4e38     bg_panimate.obj
 0002:00006e48       ??_C@_0BC@KDENGKBK@BOTH_TUSKENTAUNT1?$AA@ 300a4e48     bg_panimate.obj
 0002:00006e5c       ??_C@_0O@CEIADLEG@BOTH_D3__R___?$AA@ 300a4e5c     bg_panimate.obj
 0002:00006e6c       ??_C@_0BC@KKMKANGM@BOTH_COWER1_START?$AA@ 300a4e6c     bg_panimate.obj
 0002:00006e80       ??_C@_0O@EOEHMLIF@BOTH_D3_TR___?$AA@ 300a4e80     bg_panimate.obj
 0002:00006e90       ??_C@_0M@EAAAAKHE@BOTH_COWER1?$AA@ 300a4e90     bg_panimate.obj
 0002:00006e9c       ??_C@_0O@JBJHOCGG@BOTH_D3_TL___?$AA@ 300a4e9c     bg_panimate.obj
 0002:00006eac       ??_C@_0BB@JEOPOJAL@BOTH_COWER1_STOP?$AA@ 300a4eac     bg_panimate.obj
 0002:00006ec0       ??_C@_0O@PLFABCKF@BOTH_D3__L___?$AA@ 300a4ec0     bg_panimate.obj
 0002:00006ed0       ??_C@_0BF@LOEEPGJI@BOTH_SONICPAIN_START?$AA@ 300a4ed0     bg_panimate.obj
 0002:00006ee8       ??_C@_0O@EEBIADOA@BOTH_D3_BL___?$AA@ 300a4ee8     bg_panimate.obj
 0002:00006ef8       ??_C@_0BE@KHIIENBG@BOTH_SONICPAIN_HOLD?$AA@ 300a4ef8     bg_panimate.obj
 0002:00006f0c       ??_C@_0O@GDFIOOLC@BOTH_D3_B____?$AA@ 300a4f0c     bg_panimate.obj
 0002:00006f1c       ??_C@_0BD@KFKLMKIP@BOTH_SONICPAIN_END?$AA@ 300a4f1c     bg_panimate.obj
 0002:00006f30       ??_C@_0O@OCHLHDEB@BOTH_A4_T__B_?$AA@ 300a4f30     bg_panimate.obj
 0002:00006f40       ??_C@_0N@EGCBKCBH@BOTH_STAND10?$AA@ 300a4f40     bg_panimate.obj
 0002:00006f50       ??_C@_0O@OKMCALO@BOTH_A4__L__R?$AA@ 300a4f50     bg_panimate.obj
 0002:00006f60       ??_C@_0BD@DEOMOHKM@BOTH_STAND10_TALK1?$AA@ 300a4f60     bg_panimate.obj
 0002:00006f74       ??_C@_0O@FDNDGIC@BOTH_A4__R__L?$AA@ 300a4f74     bg_panimate.obj
 0002:00006f84       ??_C@_0BD@BPMBLEGP@BOTH_STAND10_TALK2?$AA@ 300a4f84     bg_panimate.obj
 0002:00006f98       ??_C@_0O@HAJFOAFO@BOTH_A4_TL_BR?$AA@ 300a4f98     bg_panimate.obj
 0002:00006fa8       ??_C@_0BF@EILOIEKG@BOTH_STAND10TOSTAND1?$AA@ 300a4fa8     bg_panimate.obj
 0002:00006fc0       ??_C@_0O@LGCAMICG@BOTH_A4_BR_TL?$AA@ 300a4fc0     bg_panimate.obj
 0002:00006fd0       ??_C@_0BC@EOCMNLEK@BOTH_STAND1_TALK1?$AA@ 300a4fd0     bg_panimate.obj
 0002:00006fe4       ??_C@_0O@LNLBNOBK@BOTH_A4_BL_TR?$AA@ 300a4fe4     bg_panimate.obj
 0002:00006ff4       ??_C@_0BC@GFABIIIJ@BOTH_STAND1_TALK2?$AA@ 300a4ff4     bg_panimate.obj
 0002:00007008       ??_C@_0O@HLAEPGGC@BOTH_A4_TR_BL?$AA@ 300a5008     bg_panimate.obj
 0002:00007018       ??_C@_0BC@HMBKLJMI@BOTH_STAND1_TALK3?$AA@ 300a5018     bg_panimate.obj
 0002:0000702c       ??_C@_0O@IIGDBPCG@BOTH_T4_BR__R?$AA@ 300a502c     bg_panimate.obj
 0002:0000703c       ??_C@_09JFHBCHPF@BOTH_SIT4?$AA@ 300a503c     bg_panimate.obj
 0002:00007048       ??_C@_0O@FAHHMPBI@BOTH_T4_BR_TL?$AA@ 300a5048     bg_panimate.obj
 0002:00007058       ??_C@_09IMGKBGLE@BOTH_SIT5?$AA@ 300a5058     bg_panimate.obj
 0002:00007064       ??_C@_0O@FMCCCAPJ@BOTH_T4_BR__L?$AA@ 300a5064     bg_panimate.obj
 0002:00007074       ??_C@_0BA@JOAOOGJC@BOTH_SIT5_TALK1?$AA@ 300a5074     bg_panimate.obj
 0002:00007084       ??_C@_0O@EINMBANK@BOTH_T4_BR_BL?$AA@ 300a5084     bg_panimate.obj
 0002:00007094       ??_C@_0BA@LFCDLFFB@BOTH_SIT5_TALK2?$AA@ 300a5094     bg_panimate.obj
 0002:000070a4       ??_C@_0O@DLHOOBIC@BOTH_T4__R_TR?$AA@ 300a50a4     bg_panimate.obj
 0002:000070b4       ??_C@_0BA@KMDIIEBA@BOTH_SIT5_TALK3?$AA@ 300a50b4     bg_panimate.obj
 0002:000070c4       ??_C@_0O@OPDPNOFN@BOTH_T4__R_TL?$AA@ 300a50c4     bg_panimate.obj
 0002:000070d4       ??_C@_09KHEHEFHH@BOTH_SIT6?$AA@ 300a50d4     bg_panimate.obj
 0002:000070e0       ??_C@_0O@ODGKDBLM@BOTH_T4__R__L?$AA@ 300a50e0     bg_panimate.obj
 0002:000070f0       ??_C@_09LOFMHEDG@BOTH_SIT7?$AA@ 300a50f0     bg_panimate.obj
 0002:000070fc       ??_C@_0O@PHJEABJP@BOTH_T4__R_BL?$AA@ 300a50fc     bg_panimate.obj
 0002:0000710c       ??_C@_0BA@FKIHNDLF@TORSO_DROPWEAP1?$AA@ 300a510c     bg_panimate.obj
 0002:0000711c       ??_C@_0O@EJBCMOID@BOTH_T4_TR_BR?$AA@ 300a511c     bg_panimate.obj
 0002:0000712c       ??_C@_0BA@CHPACHPA@TORSO_DROPWEAP4?$AA@ 300a512c     bg_panimate.obj
 0002:0000713c       ??_C@_0O@IFPICOJO@BOTH_T4_TR_TL?$AA@ 300a513c     bg_panimate.obj
 0002:0000714c       ??_C@_0BB@OACMJEDC@TORSO_RAISEWEAP1?$AA@ 300a514c     bg_panimate.obj
 0002:00007160       ??_C@_0O@IJKNMBHP@BOTH_T4_TR__L?$AA@ 300a5160     bg_panimate.obj
 0002:00007170       ??_C@_0BB@JNFLGAHH@TORSO_RAISEWEAP4?$AA@ 300a5170     bg_panimate.obj
 0002:00007184       ??_C@_0O@JNFDPBFM@BOTH_T4_TR_BL?$AA@ 300a5184     bg_panimate.obj
 0002:00007194       ??_C@_0BD@DOKMINPD@TORSO_WEAPONREADY1?$AA@ 300a5194     bg_panimate.obj
 0002:000071a8       ??_C@_0O@LBICAKDC@BOTH_T4_T__BR?$AA@ 300a51a8     bg_panimate.obj
 0002:000071b8       ??_C@_0BD@BFIBNODA@TORSO_WEAPONREADY2?$AA@ 300a51b8     bg_panimate.obj
 0002:000071cc       ??_C@_0O@KFHMDKBB@BOTH_T4_T___R?$AA@ 300a51cc     bg_panimate.obj
 0002:000071dc       ??_C@_0BD@MJKOPHB@TORSO_WEAPONREADY3?$AA@ 300a51dc     bg_panimate.obj
 0002:000071f0       ??_C@_0O@KJCJNFPA@BOTH_T4_T__TR?$AA@ 300a51f0     bg_panimate.obj
 0002:00007200       ??_C@_0BD@EDNLHJLG@TORSO_WEAPONREADY4?$AA@ 300a5200     bg_panimate.obj
 0002:00007214       ??_C@_0O@HNGIOKCP@BOTH_T4_T__TL?$AA@ 300a5214     bg_panimate.obj
 0002:00007224       ??_C@_0BE@PLMMDJNI@TORSO_WEAPONREADY10?$AA@ 300a5224     bg_panimate.obj
 0002:00007238       ??_C@_0O@HBDNAFMO@BOTH_T4_T___L?$AA@ 300a5238     bg_panimate.obj
 0002:00007248       ??_C@_0BC@LCPEPDLD@TORSO_WEAPONIDLE2?$AA@ 300a5248     bg_panimate.obj
 0002:0000725c       ??_C@_0O@GFMDDFON@BOTH_T4_T__BL?$AA@ 300a525c     bg_panimate.obj
 0002:0000726c       ??_C@_0BC@KLOPMCPC@TORSO_WEAPONIDLE3?$AA@ 300a526c     bg_panimate.obj
 0002:00007280       ??_C@_0O@JGMCOHGA@BOTH_T4_TL_BR?$AA@ 300a5280     bg_panimate.obj
 0002:00007290       ??_C@_0BC@OEKOFEDF@TORSO_WEAPONIDLE4?$AA@ 300a5290     bg_panimate.obj
 0002:000072a4       ??_C@_0O@ECIDNILP@BOTH_T4_TL_BL?$AA@ 300a52a4     bg_panimate.obj
 0002:000072b4       ??_C@_0BD@IPNKJOGP@TORSO_WEAPONIDLE10?$AA@ 300a52b4     bg_panimate.obj
 0002:000072c8       ??_C@_0O@PMAFBHKD@BOTH_T4__L_BR?$AA@ 300a52c8     bg_panimate.obj
 0002:000072d8       ??_C@_0BG@DJHHNKPJ@TORSO_SURRENDER_START?$AA@ 300a52d8     bg_panimate.obj
 0002:000072f0       ??_C@_0O@OIPLCHIA@BOTH_T4__L__R?$AA@ 300a52f0     bg_panimate.obj
 0002:00007300       ??_C@_0BF@CAMHOBIG@TORSO_SURRENDER_STOP?$AA@ 300a5300     bg_panimate.obj
 0002:00007318       ??_C@_0O@DAOPPHLO@BOTH_T4__L_TL?$AA@ 300a5318     bg_panimate.obj
 0002:00007328       ??_C@_0P@EDGDJEAA@TORSO_CHOKING1?$AA@ 300a5328     bg_panimate.obj
 0002:00007338       ??_C@_0O@EDENAGOG@BOTH_T4_BL_BR?$AA@ 300a5338     bg_panimate.obj
 0002:00007348       ??_C@_0BC@DEBJGJOG@TORSO_HANDSIGNAL1?$AA@ 300a5348     bg_panimate.obj
 0002:0000735c       ??_C@_0O@FHLDDGMF@BOTH_T4_BL__R?$AA@ 300a535c     bg_panimate.obj
 0002:0000736c       ??_C@_0BC@BPDEDKCF@TORSO_HANDSIGNAL2?$AA@ 300a536c     bg_panimate.obj
 0002:00007380       ??_C@_0O@FLOGNJCE@BOTH_T4_BL_TR?$AA@ 300a5380     bg_panimate.obj
 0002:00007390       ??_C@_0BC@GCPALGE@TORSO_HANDSIGNAL3?$AA@ 300a5390     bg_panimate.obj
 0002:000073a4       ??_C@_0O@IDPCAJBK@BOTH_T4_BL__L?$AA@ 300a53a4     bg_panimate.obj
 0002:000073b4       ??_C@_0BC@EJGOJNKD@TORSO_HANDSIGNAL4?$AA@ 300a53b4     bg_panimate.obj
 0002:000073c8       ??_C@_0O@IEDGPAMH@BOTH_T4_BR_TR?$AA@ 300a53c8     bg_panimate.obj
 0002:000073d8       ??_C@_0BC@FAHFKMOC@TORSO_HANDSIGNAL5?$AA@ 300a53d8     bg_panimate.obj
 0002:000073ec       ??_C@_0O@DBJIIOIK@BOTH_T4_BR_T_?$AA@ 300a53ec     bg_panimate.obj
 0002:000073fc       ??_C@_0L@DOMPGAGB@LEGS_TURN1?$AA@ 300a53fc     bg_panimate.obj
 0002:00007408       ??_C@_0O@CDNFDOEA@BOTH_T4__R_BR?$AA@ 300a5408     bg_panimate.obj
 0002:00007418       ??_C@_0L@BFOCDDKC@LEGS_TURN2?$AA@ 300a5418     bg_panimate.obj
 0002:00007424       ??_C@_0O@IONAJPMP@BOTH_T4__R_T_?$AA@ 300a5424     bg_panimate.obj
 0002:00007434       ??_C@_0BA@MCADBFIF@LEGS_LEAN_LEFT1?$AA@ 300a5434     bg_panimate.obj
 0002:00007444       ??_C@_0O@FNOMPOKA@BOTH_T4_TR__R?$AA@ 300a5444     bg_panimate.obj
 0002:00007454       ??_C@_0BB@HCNNJMLM@LEGS_LEAN_RIGHT1?$AA@ 300a5454     bg_panimate.obj
 0002:00007468       ??_C@_0O@OEBHGPAM@BOTH_T4_TR_T_?$AA@ 300a5468     bg_panimate.obj
 0002:00007478       ??_C@_0O@FPAJGKKH@LEGS_CHOKING1?$AA@ 300a5478     bg_panimate.obj
 0002:00007488       ??_C@_0O@ICDMNHED@BOTH_T4_TL__R?$AA@ 300a5488     bg_panimate.obj
 0002:00007498       ??_C@_0N@FFGGDFNJ@LEGS_LEFTUP1?$AA@ 300a5498     bg_panimate.obj
 0002:000074a8       ??_C@_0O@IOGJDIKC@BOTH_T4_TL_TR?$AA@ 300a54a8     bg_panimate.obj
 0002:000074b8       ??_C@_0N@HOELGGBK@LEGS_LEFTUP2?$AA@ 300a54b8     bg_panimate.obj
 0002:000074c8       ??_C@_0O@DLMHEGOP@BOTH_T4_TL_T_?$AA@ 300a54c8     bg_panimate.obj
 0002:000074d8       ??_C@_0N@GHFAFHFL@LEGS_LEFTUP3?$AA@ 300a54d8     bg_panimate.obj
 0002:000074e8       ??_C@_0O@FGHNOIJM@BOTH_T4_TL__L?$AA@ 300a54e8     bg_panimate.obj
 0002:000074f8       ??_C@_0N@CIBBMBJM@LEGS_LEFTUP4?$AA@ 300a54f8     bg_panimate.obj
 0002:00007508       ??_C@_0O@OEKOMIGB@BOTH_T4__L_TR?$AA@ 300a5508     bg_panimate.obj
 0002:00007518       ??_C@_0N@DBAKPANN@LEGS_LEFTUP5?$AA@ 300a5518     bg_panimate.obj
 0002:00007528       ??_C@_0O@FBAALGCM@BOTH_T4__L_T_?$AA@ 300a5528     bg_panimate.obj
 0002:00007538       ??_C@_0O@JLGCDGJK@LEGS_RIGHTUP1?$AA@ 300a5538     bg_panimate.obj
 0002:00007548       ??_C@_0O@CIEECIHM@BOTH_T4__L_BL?$AA@ 300a5548     bg_panimate.obj
 0002:00007558       ??_C@_0O@LAEPGFFJ@LEGS_RIGHTUP2?$AA@ 300a5558     bg_panimate.obj
 0002:00007568       ??_C@_0O@OOEIKHGJ@BOTH_T4_BL_T_?$AA@ 300a5568     bg_panimate.obj
 0002:00007578       ??_C@_0O@KJFEFEBI@LEGS_RIGHTUP3?$AA@ 300a5578     bg_panimate.obj
 0002:00007588       ??_C@_0O@IPKHOGPL@BOTH_T4_BL_TL?$AA@ 300a5588     bg_panimate.obj
 0002:00007598       ??_C@_0O@OGBFMCNP@LEGS_RIGHTUP4?$AA@ 300a5598     bg_panimate.obj
 0002:000075a8       ??_C@_0O@EDOBDPOA@BOTH_S4_S1_T_?$AA@ 300a55a8     bg_panimate.obj
 0002:000075b8       ??_C@_0O@PPAOPDJO@LEGS_RIGHTUP5?$AA@ 300a55b8     bg_panimate.obj
 0002:000075c8       ??_C@_0O@COFLJBJD@BOTH_S4_S1__L?$AA@ 300a55c8     bg_panimate.obj
 0002:000075d8       ??_C@_0N@JMJDGNHG@LEGS_S1_LUP1?$AA@ 300a55d8     bg_panimate.obj
 0002:000075e8       ??_C@_0O@PKBKKOEM@BOTH_S4_S1__R?$AA@ 300a55e8     bg_panimate.obj
 0002:000075f8       ??_C@_0N@LHLODOLF@LEGS_S1_LUP2?$AA@ 300a55f8     bg_panimate.obj
 0002:00007608       ??_C@_0O@CCAOHOHC@BOTH_S4_S1_TL?$AA@ 300a5608     bg_panimate.obj
 0002:00007618       ??_C@_0N@KOKFAPPE@LEGS_S1_LUP3?$AA@ 300a5618     bg_panimate.obj
 0002:00007628       ??_C@_0O@OOOEJOGP@BOTH_S4_S1_BR?$AA@ 300a5628     bg_panimate.obj
 0002:00007638       ??_C@_0N@OBOEJJDD@LEGS_S1_LUP4?$AA@ 300a5638     bg_panimate.obj
 0002:00007648       ??_C@_0O@DKKFKBLA@BOTH_S4_S1_BL?$AA@ 300a5648     bg_panimate.obj
 0002:00007658       ??_C@_0N@PIPPKIHC@LEGS_S1_LUP5?$AA@ 300a5658     bg_panimate.obj
 0002:00007668       ??_C@_0O@PGEPEBKN@BOTH_S4_S1_TR?$AA@ 300a5668     bg_panimate.obj
 0002:00007678       ??_C@_0N@EDEDEEJF@LEGS_S1_RUP1?$AA@ 300a5678     bg_panimate.obj
 0002:00007688       ??_C@_0O@EECDGDBN@BOTH_R4_B__S1?$AA@ 300a5688     bg_panimate.obj
 0002:00007698       ??_C@_0N@GIGOBHFG@LEGS_S1_RUP2?$AA@ 300a5698     bg_panimate.obj
 0002:000076a8       ??_C@_0O@NMCLJPAK@BOTH_R4__L_S1?$AA@ 300a56a8     bg_panimate.obj
 0002:000076b8       ??_C@_0N@HBHFCGBH@LEGS_S1_RUP3?$AA@ 300a56b8     bg_panimate.obj
 0002:000076c8       ??_C@_0O@DPLLGOJ@BOTH_R4__R_S1?$AA@ 300a56c8     bg_panimate.obj
 0002:000076d8       ??_C@_0N@DODELANA@LEGS_S1_RUP4?$AA@ 300a56d8     bg_panimate.obj
 0002:000076e8       ??_C@_0O@LGOMGPMJ@BOTH_R4_TL_S1?$AA@ 300a56e8     bg_panimate.obj
 0002:000076f8       ??_C@_0N@CHCPIBJB@LEGS_S1_RUP5?$AA@ 300a56f8     bg_panimate.obj
 0002:00007708       ??_C@_0O@LMLDKHKM@BOTH_R4_BR_S1?$AA@ 300a5708     bg_panimate.obj
 0002:00007718       ??_C@_0N@LAMHMFP@LEGS_S3_LUP1?$AA@ 300a5718     bg_panimate.obj
 0002:00007728       ??_C@_0O@GDGDIOEP@BOTH_R4_BL_S1?$AA@ 300a5728     bg_panimate.obj
 0002:00007738       ??_C@_0N@CACBCPJM@LEGS_S3_LUP2?$AA@ 300a5738     bg_panimate.obj
 0002:00007748       ??_C@_0O@GJDMEGCK@BOTH_R4_TR_S1?$AA@ 300a5748     bg_panimate.obj
 0002:00007758       ??_C@_0N@DJDKBONN@LEGS_S3_LUP3?$AA@ 300a5758     bg_panimate.obj
 0002:00007768       ??_C@_0O@OCBHFKJA@BOTH_B4_BR___?$AA@ 300a5768     bg_panimate.obj
 0002:00007778       ??_C@_0N@HGHLIIBK@LEGS_S3_LUP4?$AA@ 300a5778     bg_panimate.obj
 0002:00007788       ??_C@_0O@FNFPELNF@BOTH_B4__R___?$AA@ 300a5788     bg_panimate.obj
 0002:00007798       ??_C@_0N@GPGALJFL@LEGS_S3_LUP5?$AA@ 300a5798     bg_panimate.obj
 0002:000077a8       ??_C@_0O@DHJILLBG@BOTH_B4_TR___?$AA@ 300a57a8     bg_panimate.obj
 0002:000077b8       ??_C@_0N@NENMFFLM@LEGS_S3_RUP1?$AA@ 300a57b8     bg_panimate.obj
 0002:000077c8       ??_C@_0O@MPAIHPKH@BOTH_B4_T____?$AA@ 300a57c8     bg_panimate.obj
 0002:000077d8       ??_C@_0N@PPPBAGHP@LEGS_S3_RUP2?$AA@ 300a57d8     bg_panimate.obj
 0002:000077e8       ??_C@_0O@OIEIJCPF@BOTH_B4_TL___?$AA@ 300a57e8     bg_panimate.obj
 0002:000077f8       ??_C@_0N@OGOKDHDO@LEGS_S3_RUP3?$AA@ 300a57f8     bg_panimate.obj
 0002:00007808       ??_C@_0O@ICIPGCDG@BOTH_B4__L___?$AA@ 300a5808     bg_panimate.obj
 0002:00007818       ??_C@_0N@KJKLKBPJ@LEGS_S3_RUP4?$AA@ 300a5818     bg_panimate.obj
 0002:00007828       ??_C@_0O@DNMHHDHD@BOTH_B4_BL___?$AA@ 300a5828     bg_panimate.obj
 0002:00007838       ??_C@_0N@LALAJALI@LEGS_S3_RUP5?$AA@ 300a5838     bg_panimate.obj
 0002:00007848       ??_C@_0O@JBANCDBK@BOTH_D4_BR___?$AA@ 300a5848     bg_panimate.obj
 0002:00007858       ??_C@_0N@MOKLECNB@LEGS_S4_LUP1?$AA@ 300a5858     bg_panimate.obj
 0002:00007868       ??_C@_0O@COEFDCFP@BOTH_D4__R___?$AA@ 300a5868     bg_panimate.obj
 0002:00007878       ??_C@_0N@OFIGBBBC@LEGS_S4_LUP2?$AA@ 300a5878     bg_panimate.obj
 0002:00007888       ??_C@_0O@EEICMCJM@BOTH_D4_TR___?$AA@ 300a5888     bg_panimate.obj
 0002:00007898       ??_C@_0N@PMJNCAFD@LEGS_S4_LUP3?$AA@ 300a5898     bg_panimate.obj
 0002:000078a8       ??_C@_0O@JLFCOLHP@BOTH_D4_TL___?$AA@ 300a58a8     bg_panimate.obj
 0002:000078b8       ??_C@_0N@LDNMLGJE@LEGS_S4_LUP4?$AA@ 300a58b8     bg_panimate.obj
 0002:000078c8       ??_C@_0O@PBJFBLLM@BOTH_D4__L___?$AA@ 300a58c8     bg_panimate.obj
 0002:000078d8       ??_C@_0N@KKMHIHNF@LEGS_S4_LUP5?$AA@ 300a58d8     bg_panimate.obj
 0002:000078e8       ??_C@_0O@EONNAKPJ@BOTH_D4_BL___?$AA@ 300a58e8     bg_panimate.obj
 0002:000078f8       ??_C@_0N@BBHLGLDC@LEGS_S4_RUP1?$AA@ 300a58f8     bg_panimate.obj
 0002:00007908       ??_C@_0O@GJJNOHKL@BOTH_D4_B____?$AA@ 300a5908     bg_panimate.obj
 0002:00007918       ??_C@_0N@DKFGDIPB@LEGS_S4_RUP2?$AA@ 300a5918     bg_panimate.obj
 0002:00007928       ??_C@_0O@CONBHDNP@BOTH_A5_T__B_?$AA@ 300a5928     bg_panimate.obj
 0002:00007938       ??_C@_0N@CDENAJLA@LEGS_S4_RUP3?$AA@ 300a5938     bg_panimate.obj
 0002:00007948       ??_C@_0O@MCAGCACA@BOTH_A5__L__R?$AA@ 300a5948     bg_panimate.obj
 0002:00007958       ??_C@_0N@GMAMJPHH@LEGS_S4_RUP4?$AA@ 300a5958     bg_panimate.obj
 0002:00007968       ??_C@_0O@MJJHDGBM@BOTH_A5__R__L?$AA@ 300a5968     bg_panimate.obj
 0002:00007978       ??_C@_0N@HFBHKODG@LEGS_S4_RUP5?$AA@ 300a5978     bg_panimate.obj
 0002:00007988       ??_C@_0O@LMDPOAMA@BOTH_A5_TL_BR?$AA@ 300a5988     bg_panimate.obj
 0002:00007998       ??_C@_0N@GINMEJGF@LEGS_S5_LUP1?$AA@ 300a5998     bg_panimate.obj
 0002:000079a8       ??_C@_0O@HKIKMILI@BOTH_A5_BR_TL?$AA@ 300a59a8     bg_panimate.obj
 0002:000079b8       ??_C@_0N@EDPBBKKG@LEGS_S5_LUP2?$AA@ 300a59b8     bg_panimate.obj
 0002:000079c8       ??_C@_0O@HBBLNOIE@BOTH_A5_BL_TR?$AA@ 300a59c8     bg_panimate.obj
 0002:000079d8       ??_C@_0N@FKOKCLOH@LEGS_S5_LUP3?$AA@ 300a59d8     bg_panimate.obj
 0002:000079e8       ??_C@_0O@LHKOPGPM@BOTH_A5_TR_BL?$AA@ 300a59e8     bg_panimate.obj
 0002:000079f8       ??_C@_0N@BFKLLNCA@LEGS_S5_LUP4?$AA@ 300a59f8     bg_panimate.obj
 0002:00007a08       ??_C@_0O@EEMJBPLI@BOTH_T5_BR__R?$AA@ 300a5a08     bg_panimate.obj
 0002:00007a18       ??_C@_0N@MLAIMGB@LEGS_S5_LUP5?$AA@ 300a5a18     bg_panimate.obj
 0002:00007a28       ??_C@_0O@JMNNMPIG@BOTH_T5_BR_TL?$AA@ 300a5a28     bg_panimate.obj
 0002:00007a38       ??_C@_0N@LHAMGAIG@LEGS_S5_RUP1?$AA@ 300a5a38     bg_panimate.obj
 0002:00007a48       ??_C@_0O@JAIICAGH@BOTH_T5_BR__L?$AA@ 300a5a48     bg_panimate.obj
 0002:00007a58       ??_C@_0N@JMCBDDEF@LEGS_S5_RUP2?$AA@ 300a5a58     bg_panimate.obj
 0002:00007a68       ??_C@_0O@IEHGBAEE@BOTH_T5_BR_BL?$AA@ 300a5a68     bg_panimate.obj
 0002:00007a78       ??_C@_0N@IFDKACAE@LEGS_S5_RUP3?$AA@ 300a5a78     bg_panimate.obj
 0002:00007a88       ??_C@_0O@PHNEOBBM@BOTH_T5__R_TR?$AA@ 300a5a88     bg_panimate.obj
 0002:00007a98       ??_C@_0N@MKHLJEMD@LEGS_S5_RUP4?$AA@ 300a5a98     bg_panimate.obj
 0002:00007aa8       ??_C@_0O@CDJFNOMD@BOTH_T5__R_TL?$AA@ 300a5aa8     bg_panimate.obj
 0002:00007ab8       ??_C@_0N@NDGAKFIC@LEGS_S5_RUP5?$AA@ 300a5ab8     bg_panimate.obj
 0002:00007ac8       ??_C@_0O@CPMADBCC@BOTH_T5__R__L?$AA@ 300a5ac8     bg_panimate.obj
 0002:00007ad8       ??_C@_0N@FJDEFDPI@LEGS_S6_LUP1?$AA@ 300a5ad8     bg_panimate.obj
 0002:00007ae8       ??_C@_0O@DLDOABAB@BOTH_T5__R_BL?$AA@ 300a5ae8     bg_panimate.obj
 0002:00007af8       ??_C@_0N@HCBJAADL@LEGS_S6_LUP2?$AA@ 300a5af8     bg_panimate.obj
 0002:00007b08       ??_C@_0O@IFLIMOBN@BOTH_T5_TR_BR?$AA@ 300a5b08     bg_panimate.obj
 0002:00007b18       ??_C@_0N@GLACDBHK@LEGS_S6_LUP3?$AA@ 300a5b18     bg_panimate.obj
 0002:00007b28       ??_C@_0O@EJFCCOAA@BOTH_T5_TR_TL?$AA@ 300a5b28     bg_panimate.obj
 0002:00007b38       ??_C@_0N@CEEDKHLN@LEGS_S6_LUP4?$AA@ 300a5b38     bg_panimate.obj
 0002:00007b48       ??_C@_0O@EFAHMBOB@BOTH_T5_TR__L?$AA@ 300a5b48     bg_panimate.obj
 0002:00007b58       ??_C@_0N@DNFIJGPM@LEGS_S6_LUP5?$AA@ 300a5b58     bg_panimate.obj
 0002:00007b68       ??_C@_0O@FBPJPBMC@BOTH_T5_TR_BL?$AA@ 300a5b68     bg_panimate.obj
 0002:00007b78       ??_C@_0N@IGOEHKBL@LEGS_S6_RUP1?$AA@ 300a5b78     bg_panimate.obj
 0002:00007b88       ??_C@_0O@HNCIAKKM@BOTH_T5_T__BR?$AA@ 300a5b88     bg_panimate.obj
 0002:00007b98       ??_C@_0N@KNMJCJNI@LEGS_S6_RUP2?$AA@ 300a5b98     bg_panimate.obj
 0002:00007ba8       ??_C@_0O@GJNGDKIP@BOTH_T5_T___R?$AA@ 300a5ba8     bg_panimate.obj
 0002:00007bb8       ??_C@_0N@LENCBIJJ@LEGS_S6_RUP3?$AA@ 300a5bb8     bg_panimate.obj
 0002:00007bc8       ??_C@_0O@GFIDNFGO@BOTH_T5_T__TR?$AA@ 300a5bc8     bg_panimate.obj
 0002:00007bd8       ??_C@_0N@PLJDIOFO@LEGS_S6_RUP4?$AA@ 300a5bd8     bg_panimate.obj
 0002:00007be8       ??_C@_0O@LBMCOKLB@BOTH_T5_T__TL?$AA@ 300a5be8     bg_panimate.obj
 0002:00007bf8       ??_C@_0N@OCIILPBP@LEGS_S6_RUP5?$AA@ 300a5bf8     bg_panimate.obj
 0002:00007c08       ??_C@_0O@LNJHAFFA@BOTH_T5_T___L?$AA@ 300a5c08     bg_panimate.obj
 0002:00007c18       ??_C@_0N@PPEDFIEM@LEGS_S7_LUP1?$AA@ 300a5c18     bg_panimate.obj
 0002:00007c28       ??_C@_0O@KJGJDFHD@BOTH_T5_T__BL?$AA@ 300a5c28     bg_panimate.obj
 0002:00007c38       ??_C@_0N@NEGOALIP@LEGS_S7_LUP2?$AA@ 300a5c38     bg_panimate.obj
 0002:00007c48       ??_C@_0O@FKGIOHPO@BOTH_T5_TL_BR?$AA@ 300a5c48     bg_panimate.obj
 0002:00007c58       ??_C@_0N@MNHFDKMO@LEGS_S7_LUP3?$AA@ 300a5c58     bg_panimate.obj
 0002:00007c68       ??_C@_0O@IOCJNICB@BOTH_T5_TL_BL?$AA@ 300a5c68     bg_panimate.obj
 0002:00007c78       ??_C@_0N@ICDEKMAJ@LEGS_S7_LUP4?$AA@ 300a5c78     bg_panimate.obj
 0002:00007c88       ??_C@_0O@DAKPBHDN@BOTH_T5__L_BR?$AA@ 300a5c88     bg_panimate.obj
 0002:00007c98       ??_C@_0N@JLCPJNEI@LEGS_S7_LUP5?$AA@ 300a5c98     bg_panimate.obj
 0002:00007ca8       ??_C@_0O@CEFBCHBO@BOTH_T5__L__R?$AA@ 300a5ca8     bg_panimate.obj
 0002:00007cb8       ??_C@_0N@CAJDHBKP@LEGS_S7_RUP1?$AA@ 300a5cb8     bg_panimate.obj
 0002:00007cc8       ??_C@_0O@PMEFPHCA@BOTH_T5__L_TL?$AA@ 300a5cc8     bg_panimate.obj
 0002:00007cd8       ??_C@_0N@LLOCCGM@LEGS_S7_RUP2?$AA@ 300a5cd8     bg_panimate.obj
 0002:00007ce8       ??_C@_0O@IPOHAGHI@BOTH_T5_BL_BR?$AA@ 300a5ce8     bg_panimate.obj
 0002:00007cf8       ??_C@_0N@BCKFBDCN@LEGS_S7_RUP3?$AA@ 300a5cf8     bg_panimate.obj
 0002:00007d08       ??_C@_0O@JLBJDGFL@BOTH_T5_BL__R?$AA@ 300a5d08     bg_panimate.obj
 0002:00007d18       ??_C@_0N@FNOEIFOK@LEGS_S7_RUP4?$AA@ 300a5d18     bg_panimate.obj
 0002:00007d28       ??_C@_0O@JHEMNJLK@BOTH_T5_BL_TR?$AA@ 300a5d28     bg_panimate.obj
 0002:00007d38       ??_C@_0N@EEPPLEKL@LEGS_S7_RUP5?$AA@ 300a5d38     bg_panimate.obj
 0002:00007d48       ??_C@_0O@EPFIAJIE@BOTH_T5_BL__L?$AA@ 300a5d48     bg_panimate.obj
 0002:00007d58       ??_C@_0N@MEGKIHKK@LEGS_TURN180?$AA@ 300a5d58     bg_panimate.obj
 0002:00007d68       ??_C@_0O@EIJMPAFJ@BOTH_T5_BR_TR?$AA@ 300a5d68     bg_panimate.obj
 0002:00007d78       ??_C@_0BA@GEODKLCB@BOTH_LEDGE_GRAB?$AA@ 300a5d78     bg_panimate.obj
 0002:00007d88       ??_C@_0O@PNDCIOBE@BOTH_T5_BR_T_?$AA@ 300a5d88     bg_panimate.obj
 0002:00007d98       ??_C@_0BA@BKECIHGH@BOTH_LEDGE_HOLD?$AA@ 300a5d98     bg_panimate.obj
 0002:00007da8       ??_C@_0O@OPHPDONO@BOTH_T5__R_BR?$AA@ 300a5da8     bg_panimate.obj
 0002:00007db8       ??_C@_0BA@MHCKFGEE@BOTH_LEDGE_LEFT?$AA@ 300a5db8     bg_panimate.obj
 0002:00007dc8       ??_C@_0O@ECHKJPFB@BOTH_T5__R_T_?$AA@ 300a5dc8     bg_panimate.obj
 0002:00007dd8       ??_C@_0BB@POANIEBE@BOTH_LEDGE_RIGHT?$AA@ 300a5dd8     bg_panimate.obj
 0002:00007dec       ??_C@_0O@JBEGPODO@BOTH_T5_TR__R?$AA@ 300a5dec     bg_panimate.obj
 0002:00007dfc       ??_C@_0BE@GNJJNMBI@BOTH_LEDGE_MERCPULL?$AA@ 300a5dfc     bg_panimate.obj
 0002:00007e10       ??_C@_0O@CILNGPJC@BOTH_T5_TR_T_?$AA@ 300a5e10     bg_panimate.obj
 0002:00007e20       ??_C@_0BI@HFIIMGKB@BOTH_SABERTAVION_STANCE?$AA@ 300a5e20     bg_panimate.obj
 0002:00007e38       ??_C@_0O@EOJGNHNN@BOTH_T5_TL__R?$AA@ 300a5e38     bg_panimate.obj
 0002:00007e48       ??_C@_0BI@BOCBGNDA@BOTH_SABERDESANN_STANCE?$AA@ 300a5e48     bg_panimate.obj
 0002:00007e60       ??_C@_0O@ECMDDIDM@BOTH_T5_TL_TR?$AA@ 300a5e60     bg_panimate.obj
 0002:00007e70       ??_C@_0BF@PDIPJOCN@BOTH_jedi_knight_run?$AA@ 300a5e70     bg_panimate.obj
 0002:00007e88       ??_C@_0O@PHGNEGHB@BOTH_T5_TL_T_?$AA@ 300a5e88     bg_panimate.obj
 0002:00007e98       ??_C@_0BF@CDMPODOM@BOTH_battlefront_run?$AA@ 300a5e98     bg_panimate.obj
 0002:00007eb0       ??_C@_0O@JKNHOIAC@BOTH_T5_TL__L?$AA@ 300a5eb0     bg_panimate.obj
 0002:00007ec0       ??_C@_0P@BOMIFJI@BOTH_staff_run?$AA@ 300a5ec0     bg_panimate.obj
 0002:00007ed0       ??_C@_0O@CIAEMIPP@BOTH_T5__L_TR?$AA@ 300a5ed0     bg_panimate.obj
 0002:00007ee0       ??_C@_0BJ@JNPDNECN@BOTH_single_pistol_stand?$AA@ 300a5ee0     bg_panimate.obj
 0002:00007efc       ??_C@_0O@JNKKLGLC@BOTH_T5__L_T_?$AA@ 300a5efc     bg_panimate.obj
 0002:00007f0c       ??_C@_0BB@FPEFFCHE@BOTH_pistol_fire?$AA@ 300a5f0c     bg_panimate.obj
 0002:00007f20       ??_C@_0O@OEOOCIOC@BOTH_T5__L_BL?$AA@ 300a5f20     bg_panimate.obj
 0002:00007f30       ??_C@_0BG@POLNACFF@BOTH_light_rifle_fire?$AA@ 300a5f30     bg_panimate.obj
 0002:00007f48       ??_C@_0O@CCOCKHPH@BOTH_T5_BL_T_?$AA@ 300a5f48     bg_panimate.obj
 0002:00007f58       ??_C@_0BG@OCGICLDC@BOTH_heavy_rifle_fire?$AA@ 300a5f58     bg_panimate.obj
 0002:00007f70       ??_C@_0O@EDANOGGF@BOTH_T5_BL_TL?$AA@ 300a5f70     bg_panimate.obj
 0002:00007f80       ??_C@_0BB@MOHHIHDM@BOTH_rifle_stand?$AA@ 300a5f80     bg_panimate.obj
 0002:00007f94       ??_C@_0O@IPELDPHO@BOTH_S5_S1_T_?$AA@ 300a5f94     bg_panimate.obj
 0002:00007fa4       ??_C@_0BC@JMDDEMPP@BOTH_flamethrower?$AA@ 300a5fa4     bg_panimate.obj
 0002:00007fb8       ??_C@_0O@OCPBJBAN@BOTH_S5_S1__L?$AA@ 300a5fb8     bg_panimate.obj
 0002:00007fc8       ??_C@_0BH@DAGKJBMH@BOTH_kotor_dual_stance?$AA@ 300a5fc8     bg_panimate.obj
 0002:00007fe0       ??_C@_0O@DGLAKONC@BOTH_S5_S1__R?$AA@ 300a5fe0     bg_panimate.obj
 0002:00007ff0       ??_C@_0BI@JGAJEBMM@BOTH_kotor_staff_stance?$AA@ 300a5ff0     bg_panimate.obj
 0002:00008008       ??_C@_0O@OOKEHOOM@BOTH_S5_S1_TL?$AA@ 300a6008     bg_panimate.obj
 0002:00008018       ??_C@_0BG@BMOAKDDH@BOTH_favorite_shiicho?$AA@ 300a6018     bg_panimate.obj
 0002:00008030       ??_C@_0O@CCEOJOPB@BOTH_S5_S1_BR?$AA@ 300a6030     bg_panimate.obj
 0002:00008040       ??_C@_0BJ@HEBCFKDD@BOTH_quigon_ataru_stance?$AA@ 300a6040     bg_panimate.obj
 0002:0000805c       ??_C@_0O@PGAPKBCO@BOTH_S5_S1_BL?$AA@ 300a605c     bg_panimate.obj
 0002:0000806c       ??_C@_0BF@NAGOLNKE@BOTH_waki_red_stance?$AA@ 300a606c     bg_panimate.obj
 0002:00008084       ??_C@_0O@DKOFEBDD@BOTH_S5_S1_TR?$AA@ 300a6084     bg_panimate.obj
 0002:00008094       ??_C@_0BD@KDKKKFFJ@BOTH_2pistol_stand?$AA@ 300a6094     bg_panimate.obj
 0002:000080a8       ??_C@_0O@IIIJGDID@BOTH_R5_B__S1?$AA@ 300a60a8     bg_panimate.obj
 0002:000080b8       ??_C@_0BH@DJEAPKII@BOTH_right_pistol_fire?$AA@ 300a60b8     bg_panimate.obj
 0002:000080d0       ??_C@_0O@BAIBJPJE@BOTH_R5__L_S1?$AA@ 300a60d0     bg_panimate.obj
 0002:000080e0       ??_C@_0BG@LGELGNIC@BOTH_left_pistol_fire?$AA@ 300a60e0     bg_panimate.obj
 0002:000080f8       ??_C@_0O@MPFBLGHH@BOTH_R5__R_S1?$AA@ 300a60f8     bg_panimate.obj
 0002:00008108       ??_C@_0BH@GHNCCBDC@BOTH_both_pistols_fire?$AA@ 300a6108     bg_panimate.obj
 0002:00008120       ??_C@_0O@HKEGGPFH@BOTH_R5_TL_S1?$AA@ 300a6120     bg_panimate.obj
 0002:00008130       ??_C@_0BA@FBDCCOGP@BOTH_pistol_run?$AA@ 300a6130     bg_panimate.obj
 0002:00008140       ??_C@_0O@HABJKHDC@BOTH_R5_BR_S1?$AA@ 300a6140     bg_panimate.obj
 0002:00008150       ??_C@_0P@JLIAGPHJ@BOTH_rifle_run?$AA@ 300a6150     bg_panimate.obj
 0002:00008160       ??_C@_0O@KPMJIONB@BOTH_R5_BL_S1?$AA@ 300a6160     bg_panimate.obj
 0002:00008170       ??_C@_0BC@OADGKBLO@BOTH_force_resist?$AA@ 300a6170     bg_panimate.obj
 0002:00008184       ??_C@_0O@KFJGEGLE@BOTH_R5_TR_S1?$AA@ 300a6184     bg_panimate.obj
 0002:00008194       ??_C@_0BA@NBGFANME@BOTH_force_push?$AA@ 300a6194     bg_panimate.obj
 0002:000081a4       ??_C@_0O@COLNFKAO@BOTH_B5_BR___?$AA@ 300a61a4     bg_panimate.obj
 0002:000081b4       ??_C@_0BA@KCHDCMIN@BOTH_force_pull?$AA@ 300a61b4     bg_panimate.obj
 0002:000081c4       ??_C@_0O@JBPFELEL@BOTH_B5__R___?$AA@ 300a61c4     bg_panimate.obj
 0002:000081d4       ??_C@_0BL@DCGJHMAP@BOTH_force_lightning_1hand?$AA@ 300a61d4     bg_panimate.obj
 0002:000081f0       ??_C@_0O@PLDCLLII@BOTH_B5_TR___?$AA@ 300a61f0     bg_panimate.obj
 0002:00008200       ??_C@_0BA@NNIMABA@BOTH_force_grip?$AA@ 300a6200     bg_panimate.obj
 0002:00008210       ??_C@_0O@DKCHPDJ@BOTH_B5_T____?$AA@ 300a6210     bg_panimate.obj
 0002:00008220       ??_C@_0L@HDOPOBKH@BOTH_CIN_1?$AA@ 300a6220     bg_panimate.obj
 0002:0000822c       ??_C@_0O@CEOCJCGL@BOTH_B5_TL___?$AA@ 300a622c     bg_panimate.obj
 0002:0000823c       ??_C@_0L@FIMCLCGE@BOTH_CIN_2?$AA@ 300a623c     bg_panimate.obj
 0002:00008248       ??_C@_0O@EOCFGCKI@BOTH_B5__L___?$AA@ 300a6248     bg_panimate.obj
 0002:00008258       ??_C@_0L@EBNJIDCF@BOTH_CIN_3?$AA@ 300a6258     bg_panimate.obj
 0002:00008264       ??_C@_0O@PBGNHDON@BOTH_B5_BL___?$AA@ 300a6264     bg_panimate.obj
 0002:00008274       ??_C@_0L@OJIBFOC@BOTH_CIN_4?$AA@ 300a6274     bg_panimate.obj
 0002:00008280       ??_C@_0O@FNKHCDIE@BOTH_D5_BR___?$AA@ 300a6280     bg_panimate.obj
 0002:00008290       ??_C@_0L@BHIDCEKD@BOTH_CIN_5?$AA@ 300a6290     bg_panimate.obj
 0002:0000829c       ??_C@_0O@OCOPDCMB@BOTH_D5__R___?$AA@ 300a629c     bg_panimate.obj
 0002:000082ac       ??_C@_0L@DMKOHHGA@BOTH_CIN_6?$AA@ 300a62ac     bg_panimate.obj
 0002:000082b8       ??_C@_0O@IICIMCAC@BOTH_D5_TR___?$AA@ 300a62b8     bg_panimate.obj
 0002:000082c8       ??_C@_0L@CFLFEGCB@BOTH_CIN_7?$AA@ 300a62c8     bg_panimate.obj
 0002:000082d4       ??_C@_0O@FHPIOLOB@BOTH_D5_TL___?$AA@ 300a62d4     bg_panimate.obj
 0002:000082e4       ??_C@_0L@KCCNFKOO@BOTH_CIN_8?$AA@ 300a62e4     bg_panimate.obj
 0002:000082f0       ??_C@_0O@DNDPBLCC@BOTH_D5__L___?$AA@ 300a62f0     bg_panimate.obj
 0002:00008300       ??_C@_0L@LLDGGLKP@BOTH_CIN_9?$AA@ 300a6300     bg_panimate.obj
 0002:0000830c       ??_C@_0O@ICHHAKGH@BOTH_D5_BL___?$AA@ 300a630c     bg_panimate.obj
 0002:0000831c       ??_C@_0M@JHIHOPFJ@BOTH_CIN_10?$AA@ 300a631c     bg_panimate.obj
 0002:00008328       ??_C@_0O@KFDHOHDF@BOTH_D5_B____?$AA@ 300a6328     bg_panimate.obj
 0002:00008338       ??_C@_0M@IOJMNOBI@BOTH_CIN_11?$AA@ 300a6338     bg_panimate.obj
 0002:00008344       ??_C@_0O@KAFOHEDM@BOTH_A6_T__B_?$AA@ 300a6344     bg_panimate.obj
 0002:00008354       ??_C@_0M@KFLBINNL@BOTH_CIN_12?$AA@ 300a6354     bg_panimate.obj
 0002:00008360       ??_C@_0O@EMIJCHMD@BOTH_A6__L__R?$AA@ 300a6360     bg_panimate.obj
 0002:00008370       ??_C@_0M@LMKKLMJK@BOTH_CIN_13?$AA@ 300a6370     bg_panimate.obj
 0002:0000837c       ??_C@_0O@EHBIDBPP@BOTH_A6__R__L?$AA@ 300a637c     bg_panimate.obj
 0002:0000838c       ??_C@_0M@PDOLCKFN@BOTH_CIN_14?$AA@ 300a638c     bg_panimate.obj
 0002:00008398       ??_C@_0O@DCLAOHCD@BOTH_A6_TL_BR?$AA@ 300a6398     bg_panimate.obj
 0002:000083a8       ??_C@_0M@OKPABLBM@BOTH_CIN_15?$AA@ 300a63a8     bg_panimate.obj
 0002:000083b4       ??_C@_0O@PEAFMPFL@BOTH_A6_BR_TL?$AA@ 300a63b4     bg_panimate.obj
 0002:000083c4       ??_C@_0M@MBNNEINP@BOTH_CIN_16?$AA@ 300a63c4     bg_panimate.obj
 0002:000083d0       ??_C@_0O@PPJENJGH@BOTH_A6_BL_TR?$AA@ 300a63d0     bg_panimate.obj
 0002:000083e0       ??_C@_0M@NIMGHJJO@BOTH_CIN_17?$AA@ 300a63e0     bg_panimate.obj
 0002:000083ec       ??_C@_0O@DJCBPBBP@BOTH_A6_TR_BL?$AA@ 300a63ec     bg_panimate.obj
 0002:000083fc       ??_C@_0M@FPFOGFFB@BOTH_CIN_18?$AA@ 300a63fc     bg_panimate.obj
 0002:00008408       ??_C@_0O@MKEGBIFL@BOTH_T6_BR__R?$AA@ 300a6408     bg_panimate.obj
 0002:00008418       ??_C@_0M@EGEFFEBA@BOTH_CIN_19?$AA@ 300a6418     bg_panimate.obj
 0002:00008424       ??_C@_0O@BCFCMIGF@BOTH_T6_BR_TL?$AA@ 300a6424     bg_panimate.obj
 0002:00008434       ??_C@_0M@JFMBFBAA@BOTH_CIN_20?$AA@ 300a6434     bg_panimate.obj
 0002:00008440       ??_C@_0O@BOAHCHIE@BOTH_T6_BR__L?$AA@ 300a6440     bg_panimate.obj
 0002:00008450       ??_C@_0M@IMNKGAEB@BOTH_CIN_21?$AA@ 300a6450     bg_panimate.obj
 0002:0000845c       ??_C@_0O@KPJBHKH@BOTH_T6_BR_BL?$AA@ 300a645c     bg_panimate.obj
 0002:0000846c       ??_C@_0M@KHPHDDIC@BOTH_CIN_22?$AA@ 300a646c     bg_panimate.obj
 0002:00008478       ??_C@_0O@HJFLOGPP@BOTH_T6__R_TR?$AA@ 300a6478     bg_panimate.obj
 0002:00008488       ??_C@_0M@LOOMACMD@BOTH_CIN_23?$AA@ 300a6488     bg_panimate.obj
 0002:00008494       ??_C@_0O@KNBKNJCA@BOTH_T6__R_TL?$AA@ 300a6494     bg_panimate.obj
 0002:000084a4       ??_C@_0M@PBKNJEAE@BOTH_CIN_24?$AA@ 300a64a4     bg_panimate.obj
 0002:000084b0       ??_C@_0O@KBEPDGMB@BOTH_T6__R__L?$AA@ 300a64b0     bg_panimate.obj
 0002:000084c0       ??_C@_0M@OILGKFEF@BOTH_CIN_25?$AA@ 300a64c0     bg_panimate.obj
 0002:000084cc       ??_C@_0O@LFLBAGOC@BOTH_T6__R_BL?$AA@ 300a64cc     bg_panimate.obj
 0002:000084dc       ??_C@_0M@MDJLPGIG@BOTH_CIN_26?$AA@ 300a64dc     bg_panimate.obj
 0002:000084e8       ??_C@_0O@LDHMJPO@BOTH_T6_TR_BR?$AA@ 300a64e8     bg_panimate.obj
 0002:000084f8       ??_C@_0M@NKIAMHMH@BOTH_CIN_27?$AA@ 300a64f8     bg_panimate.obj
 0002:00008504       ??_C@_0O@MHNNCJOD@BOTH_T6_TR_TL?$AA@ 300a6504     bg_panimate.obj
 0002:00008514       ??_C@_0M@FNBINLAI@BOTH_CIN_28?$AA@ 300a6514     bg_panimate.obj
 0002:00008520       ??_C@_0O@MLIIMGAC@BOTH_T6_TR__L?$AA@ 300a6520     bg_panimate.obj
 0002:00008530       ??_C@_0M@EEADOKEJ@BOTH_CIN_29?$AA@ 300a6530     bg_panimate.obj
 0002:0000853c       ??_C@_0O@NPHGPGCB@BOTH_T6_TR_BL?$AA@ 300a653c     bg_panimate.obj
 0002:0000854c       ??_C@_0M@JEADDLDH@BOTH_CIN_30?$AA@ 300a654c     bg_panimate.obj
 0002:00008558       ??_C@_0O@PDKHANEP@BOTH_T6_T__BR?$AA@ 300a6558     bg_panimate.obj
 0002:00008568       ??_C@_0M@INBIAKHG@BOTH_CIN_31?$AA@ 300a6568     bg_panimate.obj
 0002:00008574       ??_C@_0O@OHFJDNGM@BOTH_T6_T___R?$AA@ 300a6574     bg_panimate.obj
 0002:00008584       ??_C@_0M@KGDFFJLF@BOTH_CIN_32?$AA@ 300a6584     bg_panimate.obj
 0002:00008590       ??_C@_0O@OLAMNCIN@BOTH_T6_T__TR?$AA@ 300a6590     bg_panimate.obj
 0002:000085a0       ??_C@_0M@LPCOGIPE@BOTH_CIN_33?$AA@ 300a65a0     bg_panimate.obj
 0002:000085ac       ??_C@_0O@DPENONFC@BOTH_T6_T__TL?$AA@ 300a65ac     bg_panimate.obj
 0002:000085bc       ??_C@_0M@PAGPPODD@BOTH_CIN_34?$AA@ 300a65bc     bg_panimate.obj
 0002:000085c8       ??_C@_0O@DDBIACLD@BOTH_T6_T___L?$AA@ 300a65c8     bg_panimate.obj
 0002:000085d8       ??_C@_0M@OJHEMPHC@BOTH_CIN_35?$AA@ 300a65d8     bg_panimate.obj
 0002:000085e4       ??_C@_0O@CHOGDCJA@BOTH_T6_T__BL?$AA@ 300a65e4     bg_panimate.obj
 0002:000085f4       ??_C@_0M@MCFJJMLB@BOTH_CIN_36?$AA@ 300a65f4     bg_panimate.obj
 0002:00008600       ??_C@_0O@NEOHOABN@BOTH_T6_TL_BR?$AA@ 300a6600     bg_panimate.obj
 0002:00008610       ??_C@_0M@NLECKNPA@BOTH_CIN_37?$AA@ 300a6610     bg_panimate.obj
 0002:0000861c       ??_C@_0O@KGNPMC@BOTH_T6_TL_BL?$AA@ 300a661c     bg_panimate.obj
 0002:0000862c       ??_C@_0M@FMNKLBDP@BOTH_CIN_38?$AA@ 300a662c     bg_panimate.obj
 0002:00008638       ??_C@_0O@LOCABANO@BOTH_T6__L_BR?$AA@ 300a6638     bg_panimate.obj
 0002:00008648       ??_C@_0M@EFMBIAHO@BOTH_CIN_39?$AA@ 300a6648     bg_panimate.obj
 0002:00008654       ??_C@_0O@KKNOCAPN@BOTH_T6__L__R?$AA@ 300a6654     bg_panimate.obj
 0002:00008664       ??_C@_0M@JBEMCNLC@BOTH_CIN_40?$AA@ 300a6664     bg_panimate.obj
 0002:00008670       ??_C@_0O@HCMKPAMD@BOTH_T6__L_TL?$AA@ 300a6670     bg_panimate.obj
 0002:00008680       ??_C@_0M@IIFHBMPD@BOTH_CIN_41?$AA@ 300a6680     bg_panimate.obj
 0002:0000868c       ??_C@_0O@BGIABJL@BOTH_T6_BL_BR?$AA@ 300a668c     bg_panimate.obj
 0002:0000869c       ??_C@_0M@KDHKEPDA@BOTH_CIN_42?$AA@ 300a669c     bg_panimate.obj
 0002:000086a8       ??_C@_0O@BFJGDBLI@BOTH_T6_BL__R?$AA@ 300a66a8     bg_panimate.obj
 0002:000086b8       ??_C@_0M@LKGBHOHB@BOTH_CIN_43?$AA@ 300a66b8     bg_panimate.obj
 0002:000086c4       ??_C@_0O@BJMDNOFJ@BOTH_T6_BL_TR?$AA@ 300a66c4     bg_panimate.obj
 0002:000086d4       ??_C@_0M@PFCAOILG@BOTH_CIN_44?$AA@ 300a66d4     bg_panimate.obj
 0002:000086e0       ??_C@_0O@MBNHAOGH@BOTH_T6_BL__L?$AA@ 300a66e0     bg_panimate.obj
 0002:000086f0       ??_C@_0M@OMDLNJPH@BOTH_CIN_45?$AA@ 300a66f0     bg_panimate.obj
 0002:000086fc       ??_C@_0O@MGBDPHLK@BOTH_T6_BR_TR?$AA@ 300a66fc     bg_panimate.obj
 0002:0000870c       ??_C@_0M@MHBGIKDE@BOTH_CIN_46?$AA@ 300a670c     bg_panimate.obj
 0002:00008718       ??_C@_0O@HDLNIJPH@BOTH_T6_BR_T_?$AA@ 300a6718     bg_panimate.obj
 0002:00008728       ??_C@_0M@NOANLLHF@BOTH_CIN_47?$AA@ 300a6728     bg_panimate.obj
 0002:00008734       ??_C@_0O@GBPADJDN@BOTH_T6__R_BR?$AA@ 300a6734     bg_panimate.obj
 0002:00008744       ??_C@_0M@FJJFKHLK@BOTH_CIN_48?$AA@ 300a6744     bg_panimate.obj
 0002:00008750       ??_C@_0O@MMPFJILC@BOTH_T6__R_T_?$AA@ 300a6750     bg_panimate.obj
 0002:00008760       ??_C@_0M@EAIOJGPL@BOTH_CIN_49?$AA@ 300a6760     bg_panimate.obj
 0002:0000876c       ??_C@_0O@BPMJPJNN@BOTH_T6_TR__R?$AA@ 300a676c     bg_panimate.obj
 0002:0000877c       ??_C@_0M@JAIOEHIF@BOTH_CIN_50?$AA@ 300a677c     bg_panimate.obj
 0002:00008788       ??_C@_0O@KGDCGIHB@BOTH_T6_TR_T_?$AA@ 300a6788     bg_panimate.obj
 0002:00008798       ??_C@_0O@CKCHNCID@BOTH_P1_S1_B_?$AA@ 300a6798     bg_panimate.obj
 0002:000087a8       ??_C@_0O@MABJNADO@BOTH_T6_TL__R?$AA@ 300a67a8     bg_panimate.obj
 0002:000087b8       ??_C@_0O@CAOCNLJK@BOTH_P6_S1_B_?$AA@ 300a67b8     bg_panimate.obj
 0002:000087c8       ??_C@_0O@MMEMDPNP@BOTH_T6_TL_TR?$AA@ 300a67c8     bg_panimate.obj
 0002:000087d8       ??_C@_0O@OMEINLAE@BOTH_P7_S1_B_?$AA@ 300a67d8     bg_panimate.obj
 0002:000087e8       ??_C@_0O@HJOCEBJC@BOTH_T6_TL_T_?$AA@ 300a67e8     bg_panimate.obj
 0002:000087f8       ??_C@_0O@BEFIOPOB@BOTH_T6_TL__L?$AA@ 300a67f8     bg_panimate.obj
 0002:00008808       ??_C@_0O@KGILMPBM@BOTH_T6__L_TR?$AA@ 300a6808     bg_panimate.obj
 0002:00008818       ??_C@_0O@BDCFLBFB@BOTH_T6__L_T_?$AA@ 300a6818     bg_panimate.obj
 0002:00008828       ??_C@_0O@GKGBCPAB@BOTH_T6__L_BL?$AA@ 300a6828     bg_panimate.obj
 0002:00008838       ??_C@_0O@KMGNKABE@BOTH_T6_BL_T_?$AA@ 300a6838     bg_panimate.obj
 0002:00008848       ??_C@_0O@MNICOBIG@BOTH_T6_BL_TL?$AA@ 300a6848     bg_panimate.obj
 0002:00008858       ??_C@_0O@LDOEOEIN@BOTH_S6_S6_T_?$AA@ 300a6858     bg_panimate.obj
 0002:00008868       ??_C@_0O@NOFOEKPO@BOTH_S6_S6__L?$AA@ 300a6868     bg_panimate.obj
 0002:00008878       ??_C@_0O@KBPHFCB@BOTH_S6_S6__R?$AA@ 300a6878     bg_panimate.obj
 0002:00008888       ??_C@_0O@NCALKFBP@BOTH_S6_S6_TL?$AA@ 300a6888     bg_panimate.obj
 0002:00008898       ??_C@_0O@BOOBEFAC@BOTH_S6_S6_BR?$AA@ 300a6898     bg_panimate.obj
 0002:000088a8       ??_C@_0O@MKKAHKNN@BOTH_S6_S6_BL?$AA@ 300a68a8     bg_panimate.obj
 0002:000088b8       ??_C@_0O@GEKJKMA@BOTH_S6_S6_TR?$AA@ 300a68b8     bg_panimate.obj
 0002:000088c8       ??_C@_0O@EJEHPCKH@BOTH_R6_B__S6?$AA@ 300a68c8     bg_panimate.obj
 0002:000088d8       ??_C@_0O@NBEPAOLA@BOTH_R6__L_S6?$AA@ 300a68d8     bg_panimate.obj
 0002:000088e8       ??_C@_0O@OJPCHFD@BOTH_R6__R_S6?$AA@ 300a68e8     bg_panimate.obj
 0002:000088f8       ??_C@_0O@LLIIPOHD@BOTH_R6_TL_S6?$AA@ 300a68f8     bg_panimate.obj
 0002:00008908       ??_C@_0O@LBNHDGBG@BOTH_R6_BR_S6?$AA@ 300a6908     bg_panimate.obj
 0002:00008918       ??_C@_0O@GOAHBPPF@BOTH_R6_BL_S6?$AA@ 300a6918     bg_panimate.obj
 0002:00008928       ??_C@_0O@GEFINHJA@BOTH_R6_TR_S6?$AA@ 300a6928     bg_panimate.obj
 0002:00008938       ??_C@_0O@KADCFNON@BOTH_B6_BR___?$AA@ 300a6938     bg_panimate.obj
 0002:00008948       ??_C@_0O@BPHKEMKI@BOTH_B6__R___?$AA@ 300a6948     bg_panimate.obj
 0002:00008958       ??_C@_0O@HFLNLMGL@BOTH_B6_TR___?$AA@ 300a6958     bg_panimate.obj
 0002:00008968       ??_C@_0O@INCNHINK@BOTH_B6_T____?$AA@ 300a6968     bg_panimate.obj
 0002:00008978       ??_C@_0O@KKGNJFII@BOTH_B6_TL___?$AA@ 300a6978     bg_panimate.obj
 0002:00008988       ??_C@_0O@MAKKGFEL@BOTH_B6__L___?$AA@ 300a6988     bg_panimate.obj
 0002:00008998       ??_C@_0O@HPOCHEAO@BOTH_B6_BL___?$AA@ 300a6998     bg_panimate.obj
 0002:000089a8       ??_C@_0O@NDCICEGH@BOTH_D6_BR___?$AA@ 300a69a8     bg_panimate.obj
 0002:000089b8       ??_C@_0O@GMGADFCC@BOTH_D6__R___?$AA@ 300a69b8     bg_panimate.obj
 0002:000089c8       ??_C@_0O@GKHMFOB@BOTH_D6_TR___?$AA@ 300a69c8     bg_panimate.obj
 0002:000089d8       ??_C@_0O@NJHHOMAC@BOTH_D6_TL___?$AA@ 300a69d8     bg_panimate.obj
 0002:000089e8       ??_C@_0O@LDLABMMB@BOTH_D6__L___?$AA@ 300a69e8     bg_panimate.obj
 0002:000089f8       ??_C@_0O@MPIANIE@BOTH_D6_BL___?$AA@ 300a69f8     bg_panimate.obj
 0002:00008a08       ??_C@_0O@CLLIOANG@BOTH_D6_B____?$AA@ 300a6a08     bg_panimate.obj
 0002:00008a18       ??_C@_0O@GMPEHEKC@BOTH_A7_T__B_?$AA@ 300a6a18     bg_panimate.obj
 0002:00008a28       ??_C@_0O@IACDCHFN@BOTH_A7__L__R?$AA@ 300a6a28     bg_panimate.obj
 0002:00008a38       ??_C@_0O@ILLCDBGB@BOTH_A7__R__L?$AA@ 300a6a38     bg_panimate.obj
 0002:00008a48       ??_C@_0O@POBKOHLN@BOTH_A7_TL_BR?$AA@ 300a6a48     bg_panimate.obj
 0002:00008a58       ??_C@_0O@DIKPMPMF@BOTH_A7_BR_TL?$AA@ 300a6a58     bg_panimate.obj
 0002:00008a68       ??_C@_0O@DDDONJPJ@BOTH_A7_BL_TR?$AA@ 300a6a68     bg_panimate.obj
 0002:00008a78       ??_C@_0O@PFILPBIB@BOTH_A7_TR_BL?$AA@ 300a6a78     bg_panimate.obj
 0002:00008a88       ??_C@_0O@GOMBIMF@BOTH_T7_BR__R?$AA@ 300a6a88     bg_panimate.obj
 0002:00008a98       ??_C@_0O@NOPIMIPL@BOTH_T7_BR_TL?$AA@ 300a6a98     bg_panimate.obj
 0002:00008aa8       ??_C@_0O@NCKNCHBK@BOTH_T7_BR__L?$AA@ 300a6aa8     bg_panimate.obj
 0002:00008ab8       ??_C@_0O@MGFDBHDJ@BOTH_T7_BR_BL?$AA@ 300a6ab8     bg_panimate.obj
 0002:00008ac8       ??_C@_0O@LFPBOGGB@BOTH_T7__R_TR?$AA@ 300a6ac8     bg_panimate.obj
 0002:00008ad8       ??_C@_0O@GBLANJLO@BOTH_T7__R_TL?$AA@ 300a6ad8     bg_panimate.obj
 0002:00008ae8       ??_C@_0O@GNOFDGFP@BOTH_T7__R__L?$AA@ 300a6ae8     bg_panimate.obj
 0002:00008af8       ??_C@_0O@HJBLAGHM@BOTH_T7__R_BL?$AA@ 300a6af8     bg_panimate.obj
 0002:00008b08       ??_C@_0O@MHJNMJGA@BOTH_T7_TR_BR?$AA@ 300a6b08     bg_panimate.obj
 0002:00008b18       ??_C@_0O@LHHCJHN@BOTH_T7_TR_TL?$AA@ 300a6b18     bg_panimate.obj
 0002:00008b28       ??_C@_0O@HCCMGJM@BOTH_T7_TR__L?$AA@ 300a6b28     bg_panimate.obj
 0002:00008b38       ??_C@_0O@BDNMPGLP@BOTH_T7_TR_BL?$AA@ 300a6b38     bg_panimate.obj
 0002:00008b48       ??_C@_0O@DPANANNB@BOTH_T7_T__BR?$AA@ 300a6b48     bg_panimate.obj
 0002:00008b58       ??_C@_0O@CLPDDNPC@BOTH_T7_T___R?$AA@ 300a6b58     bg_panimate.obj
 0002:00008b68       ??_C@_0O@CHKGNCBD@BOTH_T7_T__TR?$AA@ 300a6b68     bg_panimate.obj
 0002:00008b78       ??_C@_0O@PDOHONMM@BOTH_T7_T__TL?$AA@ 300a6b78     bg_panimate.obj
 0002:00008b88       ??_C@_0O@PPLCACCN@BOTH_T7_T___L?$AA@ 300a6b88     bg_panimate.obj
 0002:00008b98       ??_C@_0O@OLEMDCAO@BOTH_T7_T__BL?$AA@ 300a6b98     bg_panimate.obj
 0002:00008ba8       ??_C@_0O@BIENOAID@BOTH_T7_TL_BR?$AA@ 300a6ba8     bg_panimate.obj
 0002:00008bb8       ??_C@_0O@MMAMNPFM@BOTH_T7_TL_BL?$AA@ 300a6bb8     bg_panimate.obj
 0002:00008bc8       ??_C@_0O@HCIKBAEA@BOTH_T7__L_BR?$AA@ 300a6bc8     bg_panimate.obj
 0002:00008bd8       ??_C@_0O@GGHECAGD@BOTH_T7__L__R?$AA@ 300a6bd8     bg_panimate.obj
 0002:00008be8       ??_C@_0O@LOGAPAFN@BOTH_T7__L_TL?$AA@ 300a6be8     bg_panimate.obj
 0002:00008bf8       ??_C@_0O@MNMCABAF@BOTH_T7_BL_BR?$AA@ 300a6bf8     bg_panimate.obj
 0002:00008c08       ??_C@_0O@NJDMDBCG@BOTH_T7_BL__R?$AA@ 300a6c08     bg_panimate.obj
 0002:00008c18       ??_C@_0O@NFGJNOMH@BOTH_T7_BL_TR?$AA@ 300a6c18     bg_panimate.obj
 0002:00008c28       ??_C@_0O@NHNAOPJ@BOTH_T7_BL__L?$AA@ 300a6c28     bg_panimate.obj
 0002:00008c38       ??_C@_0O@KLJPHCE@BOTH_T7_BR_TR?$AA@ 300a6c38     bg_panimate.obj
 0002:00008c48       ??_C@_0O@LPBHIJGJ@BOTH_T7_BR_T_?$AA@ 300a6c48     bg_panimate.obj
 0002:00008c58       ??_C@_0O@KNFKDJKD@BOTH_T7__R_BR?$AA@ 300a6c58     bg_panimate.obj
 0002:00008c68       ??_C@_0O@FPJICM@BOTH_T7__R_T_?$AA@ 300a6c68     bg_panimate.obj
 0002:00008c78       ??_C@_0O@NDGDPJED@BOTH_T7_TR__R?$AA@ 300a6c78     bg_panimate.obj
 0002:00008c88       ??_C@_0O@GKJIGIOP@BOTH_T7_TR_T_?$AA@ 300a6c88     bg_panimate.obj
 0002:00008c98       ??_C@_0O@MLDNAKA@BOTH_T7_TL__R?$AA@ 300a6c98     bg_panimate.obj
 0002:00008ca8       ??_C@_0O@OGDPEB@BOTH_T7_TL_TR?$AA@ 300a6ca8     bg_panimate.obj
 0002:00008cb8       ??_C@_0O@LFEIEBAM@BOTH_T7_TL_T_?$AA@ 300a6cb8     bg_panimate.obj
 0002:00008cc8       ??_C@_0O@NIPCOPHP@BOTH_T7_TL__L?$AA@ 300a6cc8     bg_panimate.obj
 0002:00008cd8       ??_C@_0O@GKCBMPIC@BOTH_T7__L_TR?$AA@ 300a6cd8     bg_panimate.obj
 0002:00008ce8       ??_C@_0O@NPIPLBMP@BOTH_T7__L_T_?$AA@ 300a6ce8     bg_panimate.obj
 0002:00008cf8       ??_C@_0O@KGMLCPJP@BOTH_T7__L_BL?$AA@ 300a6cf8     bg_panimate.obj
 0002:00008d08       ??_C@_0O@GAMHKAIK@BOTH_T7_BL_T_?$AA@ 300a6d08     bg_panimate.obj
 0002:00008d18       ??_C@_0O@BCIOBBI@BOTH_T7_BL_TL?$AA@ 300a6d18     bg_panimate.obj
 0002:00008d28       ??_C@_0O@ECCOMNKD@BOTH_S7_S7_T_?$AA@ 300a6d28     bg_panimate.obj
 0002:00008d38       ??_C@_0O@CPJEGDNA@BOTH_S7_S7__L?$AA@ 300a6d38     bg_panimate.obj
 0002:00008d48       ??_C@_0O@PLNFFMAP@BOTH_S7_S7__R?$AA@ 300a6d48     bg_panimate.obj
 0002:00008d58       ??_C@_0O@CDMBIMDB@BOTH_S7_S7_TL?$AA@ 300a6d58     bg_panimate.obj
 0002:00008d68       ??_C@_0O@OPCLGMCM@BOTH_S7_S7_BR?$AA@ 300a6d68     bg_panimate.obj
 0002:00008d78       ??_C@_0O@DLGKFDPD@BOTH_S7_S7_BL?$AA@ 300a6d78     bg_panimate.obj
 0002:00008d88       ??_C@_0O@PHIALDOO@BOTH_S7_S7_TR?$AA@ 300a6d88     bg_panimate.obj
 0002:00008d98       ??_C@_0O@JMPGMDHI@BOTH_R7_B__S7?$AA@ 300a6d98     bg_panimate.obj
 0002:00008da8       ??_C@_0O@EPODPGP@BOTH_R7__L_S7?$AA@ 300a6da8     bg_panimate.obj
 0002:00008db8       ??_C@_0O@NLCOBGIM@BOTH_R7__R_S7?$AA@ 300a6db8     bg_panimate.obj
 0002:00008dc8       ??_C@_0O@GODJMPKM@BOTH_R7_TL_S7?$AA@ 300a6dc8     bg_panimate.obj
 0002:00008dd8       ??_C@_0O@GEGGAHMJ@BOTH_R7_BR_S7?$AA@ 300a6dd8     bg_panimate.obj
 0002:00008de8       ??_C@_0O@LLLGCOCK@BOTH_R7_BL_S7?$AA@ 300a6de8     bg_panimate.obj
 0002:00008df8       ??_C@_0O@LBOJOGEP@BOTH_R7_TR_S7?$AA@ 300a6df8     bg_panimate.obj
 0002:00008e08       ??_C@_0O@GMJIFNHD@BOTH_B7_BR___?$AA@ 300a6e08     bg_panimate.obj
 0002:00008e18       ??_C@_0O@NDNAEMDG@BOTH_B7__R___?$AA@ 300a6e18     bg_panimate.obj
 0002:00008e28       ??_C@_0O@LJBHLMPF@BOTH_B7_TR___?$AA@ 300a6e28     bg_panimate.obj
 0002:00008e38       ??_C@_0O@EBIHHIEE@BOTH_B7_T____?$AA@ 300a6e38     bg_panimate.obj
 0002:00008e48       ??_C@_0O@GGMHJFBG@BOTH_B7_TL___?$AA@ 300a6e48     bg_panimate.obj
 0002:00008e58       ??_C@_0O@MAAGFNF@BOTH_B7__L___?$AA@ 300a6e58     bg_panimate.obj
 0002:00008e68       ??_C@_0O@LDEIHEJA@BOTH_B7_BL___?$AA@ 300a6e68     bg_panimate.obj
 0002:00008e78       ??_C@_0O@BPICCEPJ@BOTH_D7_BR___?$AA@ 300a6e78     bg_panimate.obj
 0002:00008e88       ??_C@_0O@KAMKDFLM@BOTH_D7__R___?$AA@ 300a6e88     bg_panimate.obj
 0002:00008e98       ??_C@_0O@MKANMFHP@BOTH_D7_TR___?$AA@ 300a6e98     bg_panimate.obj
 0002:00008ea8       ??_C@_0O@BFNNOMJM@BOTH_D7_TL___?$AA@ 300a6ea8     bg_panimate.obj
 0002:00008eb8       ??_C@_0O@HPBKBMFP@BOTH_D7__L___?$AA@ 300a6eb8     bg_panimate.obj
 0002:00008ec8       ??_C@_0O@MAFCANBK@BOTH_D7_BL___?$AA@ 300a6ec8     bg_panimate.obj
 0002:00008ed8       ??_C@_0O@OHBCOAEI@BOTH_D7_B____?$AA@ 300a6ed8     bg_panimate.obj
 0002:00008ee8       ??_C@_0O@DCIMANEB@BOTH_P1_S1_T_?$AA@ 300a6ee8     bg_panimate.obj
 0002:00008ef8       ??_C@_0O@IHCCHDAM@BOTH_P1_S1_TR?$AA@ 300a6ef8     bg_panimate.obj
 0002:00008f08       ??_C@_0O@FDGDEMND@BOTH_P1_S1_TL?$AA@ 300a6f08     bg_panimate.obj
 0002:00008f18       ??_C@_0O@ELMIJDBB@BOTH_P1_S1_BL?$AA@ 300a6f18     bg_panimate.obj
 0002:00008f28       ??_C@_0O@JPIJKMMO@BOTH_P1_S1_BR?$AA@ 300a6f28     bg_panimate.obj
 0002:00008f38       ??_C@_0O@BMBJNBON@BOTH_K1_S1_T_?$AA@ 300a6f38     bg_panimate.obj
 0002:00008f48       ??_C@_0O@KJLHKPKA@BOTH_K1_S1_TR?$AA@ 300a6f48     bg_panimate.obj
 0002:00008f58       ??_C@_0O@HNPGJAHP@BOTH_K1_S1_TL?$AA@ 300a6f58     bg_panimate.obj
 0002:00008f68       ??_C@_0O@GFFNEPLN@BOTH_K1_S1_BL?$AA@ 300a6f68     bg_panimate.obj
 0002:00008f78       ??_C@_0O@ELCAOCP@BOTH_K1_S1_B_?$AA@ 300a6f78     bg_panimate.obj
 0002:00008f88       ??_C@_0O@LBBMHAGC@BOTH_K1_S1_BR?$AA@ 300a6f88     bg_panimate.obj
 0002:00008f98       ??_C@_0O@KJLPPIME@BOTH_V1_BR_S1?$AA@ 300a6f98     bg_panimate.obj
 0002:00008fa8       ??_C@_0O@BGPHOJIB@BOTH_V1__R_S1?$AA@ 300a6fa8     bg_panimate.obj
 0002:00008fb8       ??_C@_0O@HMDABJEC@BOTH_V1_TR_S1?$AA@ 300a6fb8     bg_panimate.obj
 0002:00008fc8       ??_C@_0O@IEKANNPD@BOTH_V1_T__S1?$AA@ 300a6fc8     bg_panimate.obj
 0002:00008fd8       ??_C@_0O@KDOADAKB@BOTH_V1_TL_S1?$AA@ 300a6fd8     bg_panimate.obj
 0002:00008fe8       ??_C@_0O@MJCHMAGC@BOTH_V1__L_S1?$AA@ 300a6fe8     bg_panimate.obj
 0002:00008ff8       ??_C@_0BE@KLHOHCCI@ERROR?3?5anim?5?$CFd?5?$DM?50?6?$AA@ 300a6ff8     bg_panimate.obj
 0002:0000900c       ??_C@_0BD@IAGLKLFM@players?1_humanoid?1?$AA@ 300a700c     bg_panimate.obj
 0002:00009020       ??_C@_0BH@OHJDKHCL@players?1rockettrooper?1?$AA@ 300a7020     bg_panimate.obj
 0002:00009038       ??_C@_0DD@BJENEBEN@?$CFs?5exceeds?5the?5allowed?5game?9side@ 300a7038     bg_panimate.obj
 0002:0000906c       ??_C@_0BB@OFGHFHNI@g_saberanimspeed?$AA@ 300a706c     bg_panimate.obj
 0002:00009080       __real@3e19999a            300a7080     bg_panimate.obj
 0002:00009084       __real@3e99999a            300a7084     bg_panimate.obj
 0002:00009088       __real@3ea8f5c3            300a7088     bg_panimate.obj
 0002:0000908c       __real@3f000000            300a708c     bg_panimate.obj
 0002:00009090       __real@3f266666            300a7090     bg_panimate.obj
 0002:00009098       __real@3ff199999999999a    300a7098     bg_panimate.obj
 0002:000090a0       __real@3ff3333333333333    300a70a0     bg_panimate.obj
 0002:000090a8       __real@3ff4cccccccccccd    300a70a8     bg_panimate.obj
 0002:000090b0       __real@3ffb333333333333    300a70b0     bg_panimate.obj
 0002:000090b8       __real@447a0000            300a70b8     bg_panimate.obj
 0002:000090c0       __xmm@7fffffffffffffff7fffffffffffffff 300a70c0     bg_panimate.obj
 0002:000090d8       ??_C@_0N@KJCNHCBK@?$CFi?3allsolid?6?$AA@ 300a70d8     bg_pmove.obj
 0002:000090e8       ??_C@_08EOGJDHPF@?$CFi?3lift?6?$AA@ 300a70e8     bg_pmove.obj
 0002:000090f4       ??_C@_0M@CKJFDFGH@?$CFi?3kickoff?6?$AA@ 300a70f4     bg_pmove.obj
 0002:00009100       ??_C@_09OPMLNNOA@?$CFi?3steep?6?$AA@ 300a7100     bg_pmove.obj
 0002:0000910c       ??_C@_08KACHPCJN@?$CFi?3Land?6?$AA@ 300a710c     bg_pmove.obj
 0002:00009118       ??_C@_08GMFJNBED@lhumerus?$AA@ 300a7118     bg_pmove.obj
 0002:00009124       ??_C@_07NJHCGBBF@lradius?$AA@ 300a7124     bg_pmove.obj
 0002:0000912c       ??_C@_06IHEANBNF@pelvis?$AA@ 300a712c     bg_pmove.obj
 0002:00009134       ??_C@_08ILEJMJL@thoracic?$AA@ 300a7134     bg_pmove.obj
 0002:00009140       ??_C@_0N@DPOICHCI@lower_lumbar?$AA@ 300a7140     bg_pmove.obj
 0002:00009150       ??_C@_0N@FLMNOMBE@upper_lumbar?$AA@ 300a7150     bg_pmove.obj
 0002:00009160       ??_C@_07JOKDFEMH@cranium?$AA@ 300a7160     bg_pmove.obj
 0002:00009168       ??_C@_08HPHDBPFM@cervical?$AA@ 300a7168     bg_pmove.obj
 0002:00009174       ??_C@_0BP@KPLHHMIM@Bad?5player?5movement?5angle?5?$CI?$CFi?$CJ?$AA@ 300a7174     bg_pmove.obj
 0002:00009194       __real@00000000            300a7194     bg_pmove.obj
 0002:00009198       __real@0000000000000000    300a7198     bg_pmove.obj
 0002:000091a0       __real@3d0f5c29            300a71a0     bg_pmove.obj
 0002:000091a4       __real@3dcccccd            300a71a4     bg_pmove.obj
 0002:000091a8       __real@3e000000            300a71a8     bg_pmove.obj
 0002:000091ac       __real@3e800000            300a71ac     bg_pmove.obj
 0002:000091b0       __real@3eb33333            300a71b0     bg_pmove.obj
 0002:000091b4       __real@3ec00000            300a71b4     bg_pmove.obj
 0002:000091b8       __real@3ecccccd            300a71b8     bg_pmove.obj
 0002:000091bc       __real@3ee66666            300a71bc     bg_pmove.obj
 0002:000091c0       __real@3f0ccccd            300a71c0     bg_pmove.obj
 0002:000091c4       __real@3f19999a            300a71c4     bg_pmove.obj
 0002:000091c8       __real@3f1a36e2eb1c432d    300a71c8     bg_pmove.obj
 0002:000091d0       __real@3f333333            300a71d0     bg_pmove.obj
 0002:000091d4       __real@3f400000            300a71d4     bg_pmove.obj
 0002:000091d8       __real@3f4ccccd            300a71d8     bg_pmove.obj
 0002:000091dc       __real@3f666666            300a71dc     bg_pmove.obj
 0002:000091e0       __real@3f689374bc6a7efa    300a71e0     bg_pmove.obj
 0002:000091e8       __real@3f76800000000000    300a71e8     bg_pmove.obj
 0002:000091f0       __real@3f8020c5            300a71f0     bg_pmove.obj
 0002:000091f8       __real@3fa999999999999a    300a71f8     bg_pmove.obj
 0002:00009200       __real@3fb999999999999a    300a7200     bg_pmove.obj
 0002:00009208       __real@3fc00000            300a7208     bg_pmove.obj
 0002:00009210       __real@3fc999999999999a    300a7210     bg_pmove.obj
 0002:00009218       __real@3fc99999a0000000    300a7218     bg_pmove.obj
 0002:00009220       __real@3fd0000000000000    300a7220     bg_pmove.obj
 0002:00009228       __real@3fd3333333333333    300a7228     bg_pmove.obj
 0002:00009230       __real@3fd54fdf3b645a1d    300a7230     bg_pmove.obj
 0002:00009238       __real@3fd999999999999a    300a7238     bg_pmove.obj
 0002:00009240       __real@3fe3333333333333    300a7240     bg_pmove.obj
 0002:00009248       __real@3fe54fdf3b645a1d    300a7248     bg_pmove.obj
 0002:00009250       __real@3fe6666666666666    300a7250     bg_pmove.obj
 0002:00009258       __real@3fe8000000000000    300a7258     bg_pmove.obj
 0002:00009260       __real@3fe999999999999a    300a7260     bg_pmove.obj
 0002:00009268       __real@3feccccccccccccd    300a7268     bg_pmove.obj
 0002:00009270       __real@3fed99999999999a    300a7270     bg_pmove.obj
 0002:00009278       __real@3fee666666666666    300a7278     bg_pmove.obj
 0002:00009280       __real@3ff0000000000000    300a7280     bg_pmove.obj
 0002:00009288       __real@3ff8000000000000    300a7288     bg_pmove.obj
 0002:00009290       __real@4004000000000000    300a7290     bg_pmove.obj
 0002:00009298       __real@4008000000000000    300a7298     bg_pmove.obj
 0002:000092a0       __real@40100000            300a72a0     bg_pmove.obj
 0002:000092a8       __real@4014000000000000    300a72a8     bg_pmove.obj
 0002:000092b0       __real@4018000000000000    300a72b0     bg_pmove.obj
 0002:000092b8       __real@40200000            300a72b8     bg_pmove.obj
 0002:000092c0       __real@4028000000000000    300a72c0     bg_pmove.obj
 0002:000092c8       __real@40364ccccccccccd    300a72c8     bg_pmove.obj
 0002:000092d0       __real@4038000000000000    300a72d0     bg_pmove.obj
 0002:000092d8       __real@40400000            300a72d8     bg_pmove.obj
 0002:000092e0       __real@4049b33333333333    300a72e0     bg_pmove.obj
 0002:000092e8       __real@404a333333333333    300a72e8     bg_pmove.obj
 0002:000092f0       __real@4059000000000000    300a72f0     bg_pmove.obj
 0002:000092f8       __real@405fc00000000000    300a72f8     bg_pmove.obj
 0002:00009300       __real@40a00000            300a7300     bg_pmove.obj
 0002:00009304       __real@40e00000            300a7304     bg_pmove.obj
 0002:00009308       __real@41000000            300a7308     bg_pmove.obj
 0002:0000930c       __real@41200000            300a730c     bg_pmove.obj
 0002:00009310       __real@41700000            300a7310     bg_pmove.obj
 0002:00009314       __real@41800000            300a7314     bg_pmove.obj
 0002:00009318       __real@41900000            300a7318     bg_pmove.obj
 0002:0000931c       __real@41a00000            300a731c     bg_pmove.obj
 0002:00009320       __real@41c00000            300a7320     bg_pmove.obj
 0002:00009324       __real@41f00000            300a7324     bg_pmove.obj
 0002:00009328       __real@42000000            300a7328     bg_pmove.obj
 0002:0000932c       __real@42200000            300a732c     bg_pmove.obj
 0002:00009330       __real@42480000            300a7330     bg_pmove.obj
 0002:00009334       __real@42700000            300a7334     bg_pmove.obj
 0002:00009338       __real@42800000            300a7338     bg_pmove.obj
 0002:0000933c       __real@42a00000            300a733c     bg_pmove.obj
 0002:00009340       __real@42c80000            300a7340     bg_pmove.obj
 0002:00009344       __real@42fe0000            300a7344     bg_pmove.obj
 0002:00009348       __real@43000000            300a7348     bg_pmove.obj
 0002:0000934c       __real@430c0000            300a734c     bg_pmove.obj
 0002:00009350       __real@43160000            300a7350     bg_pmove.obj
 0002:00009354       __real@432f0000            300a7354     bg_pmove.obj
 0002:00009358       __real@43480000            300a7358     bg_pmove.obj
 0002:0000935c       __real@43610000            300a735c     bg_pmove.obj
 0002:00009360       __real@43700000            300a7360     bg_pmove.obj
 0002:00009364       __real@437a0000            300a7364     bg_pmove.obj
 0002:00009368       __real@43870000            300a7368     bg_pmove.obj
 0002:0000936c       __real@43960000            300a736c     bg_pmove.obj
 0002:00009370       __real@43c80000            300a7370     bg_pmove.obj
 0002:00009374       __real@43e10000            300a7374     bg_pmove.obj
 0002:00009378       __real@44160000            300a7378     bg_pmove.obj
 0002:0000937c       __real@44960000            300a737c     bg_pmove.obj
 0002:00009380       __real@44af0000            300a7380     bg_pmove.obj
 0002:00009384       __real@44d48000            300a7384     bg_pmove.obj
 0002:00009388       __real@44e10000            300a7388     bg_pmove.obj
 0002:0000938c       __real@457a0000            300a738c     bg_pmove.obj
 0002:00009390       __real@45800000            300a7390     bg_pmove.obj
 0002:00009394       __real@469c4000            300a7394     bg_pmove.obj
 0002:00009398       __real@471c4000            300a7398     bg_pmove.obj
 0002:0000939c       __real@47800000            300a739c     bg_pmove.obj
 0002:000093a0       __real@bf000000            300a73a0     bg_pmove.obj
 0002:000093a4       __real@bf7fbe77            300a73a4     bg_pmove.obj
 0002:000093a8       __real@c0000000            300a73a8     bg_pmove.obj
 0002:000093ac       __real@c0400000            300a73ac     bg_pmove.obj
 0002:000093b0       __real@c0800000            300a73b0     bg_pmove.obj
 0002:000093b4       __real@c0a00000            300a73b4     bg_pmove.obj
 0002:000093b8       __real@c1700000            300a73b8     bg_pmove.obj
 0002:000093bc       __real@c1a00000            300a73bc     bg_pmove.obj
 0002:000093c0       __real@c1c00000            300a73c0     bg_pmove.obj
 0002:000093c4       __real@c1f00000            300a73c4     bg_pmove.obj
 0002:000093c8       __real@c2000000            300a73c8     bg_pmove.obj
 0002:000093cc       __real@c2340000            300a73cc     bg_pmove.obj
 0002:000093d0       __real@c2700000            300a73d0     bg_pmove.obj
 0002:000093d4       __real@c2b40000            300a73d4     bg_pmove.obj
 0002:000093d8       __real@c3000000            300a73d8     bg_pmove.obj
 0002:000093dc       __real@c3160000            300a73dc     bg_pmove.obj
 0002:000093e0       __real@c3480000            300a73e0     bg_pmove.obj
 0002:000093e4       __real@c3960000            300a73e4     bg_pmove.obj
 0002:000093e8       __real@c3fa0000            300a73e8     bg_pmove.obj
 0002:000093ec       __real@c4960000            300a73ec     bg_pmove.obj
 0002:000093f0       __xmm@41f00000c1a00000c1a00000c2b40000 300a73f0     bg_pmove.obj
 0002:00009400       ??_C@_04OHJIHAFH@None?$AA@ 300a7400     bg_saber.obj
 0002:00009408       ??_C@_05GMBADOLI@Ready?$AA@ 300a7408     bg_saber.obj
 0002:00009410       ??_C@_04HMPDNAFK@Draw?$AA@ 300a7410     bg_saber.obj
 0002:00009418       ??_C@_07EEKMGHL@Putaway?$AA@ 300a7418     bg_saber.obj
 0002:00009420       ??_C@_09DLNELECG@TL2BR?5Att?$AA@ 300a7420     bg_saber.obj
 0002:0000942c       ??_C@_07GAJHIGJB@L2R?5Att?$AA@ 300a742c     bg_saber.obj
 0002:00009434       ??_C@_09BFGKOMHN@BL2TR?5Att?$AA@ 300a7434     bg_saber.obj
 0002:00009440       ??_C@_09EILEBGHF@BR2TL?5Att?$AA@ 300a7440     bg_saber.obj
 0002:0000944c       ??_C@_07DAHKMGGD@R2L?5Att?$AA@ 300a744c     bg_saber.obj
 0002:00009454       ??_C@_09GGAKEOCO@TR2BL?5Att?$AA@ 300a7454     bg_saber.obj
 0002:00009460       ??_C@_07MMBPKOJE@T2B?5Att?$AA@ 300a7460     bg_saber.obj
 0002:00009468       ??_C@_09JIGLEFGA@Back?5Stab?$AA@ 300a7468     bg_saber.obj
 0002:00009474       ??_C@_08NHHMKFDG@Back?5Att?$AA@ 300a7474     bg_saber.obj
 0002:00009480       ??_C@_0M@GCNCHFMC@CR?5Back?5Att?$AA@ 300a7480     bg_saber.obj
 0002:0000948c       ??_C@_08PKIJPDOE@RollStab?$AA@ 300a748c     bg_saber.obj
 0002:00009498       ??_C@_09LEMMEBE@Lunge?5Att?$AA@ 300a7498     bg_saber.obj
 0002:000094a4       ??_C@_08KNHLLBPK@Jump?5Att?$AA@ 300a74a4     bg_saber.obj
 0002:000094b0       ??_C@_09JENGNGLB@Flip?5Stab?$AA@ 300a74b0     bg_saber.obj
 0002:000094bc       ??_C@_0L@FMKCKBGH@Flip?5Slash?$AA@ 300a74bc     bg_saber.obj
 0002:000094c8       ??_C@_0N@BCAAENJH@DualJump?5Atk?$AA@ 300a74c8     bg_saber.obj
 0002:000094d8       ??_C@_0P@BOMMGCKC@DualJumpAtkL_A?$AA@ 300a74d8     bg_saber.obj
 0002:000094e8       ??_C@_0P@KOAKECAO@DualJumpAtkR_A?$AA@ 300a74e8     bg_saber.obj
 0002:000094f8       ??_C@_0BC@PNIBBCPG@DualJumpAtkLStaff?$AA@ 300a74f8     bg_saber.obj
 0002:0000950c       ??_C@_0BC@MKGAPFGF@DualJumpAtkRStaff?$AA@ 300a750c     bg_saber.obj
 0002:00009520       ??_C@_0O@EJCJKPND@ButterflyLeft?$AA@ 300a7520     bg_saber.obj
 0002:00009530       ??_C@_0P@FGMKFKI@ButterflyRight?$AA@ 300a7530     bg_saber.obj
 0002:00009540       ??_C@_0L@DLADLIII@BkFlip?5Atk?$AA@ 300a7540     bg_saber.obj
 0002:0000954c       ??_C@_0M@HECJKIFI@DualSpinAtk?$AA@ 300a754c     bg_saber.obj
 0002:00009558       ??_C@_0L@GNJONGPC@StfSpinAtk?$AA@ 300a7558     bg_saber.obj
 0002:00009564       ??_C@_0L@NEJJNIPN@LngLeapAtk?$AA@ 300a7564     bg_saber.obj
 0002:00009570       ??_C@_09OIECNKCB@SwoopAtkR?$AA@ 300a7570     bg_saber.obj
 0002:0000957c       ??_C@_09DMADOFPO@SwoopAtkL?$AA@ 300a757c     bg_saber.obj
 0002:00009588       ??_C@_0N@LKHFPAPA@TauntaunAtkR?$AA@ 300a7588     bg_saber.obj
 0002:00009598       ??_C@_0N@GODEMPCP@TauntaunAtkL?$AA@ 300a7598     bg_saber.obj
 0002:000095a8       ??_C@_0L@EBPEBDEI@StfKickFwd?$AA@ 300a75a8     bg_saber.obj
 0002:000095b4       ??_C@_0M@HLPCDHNL@StfKickBack?$AA@ 300a75b4     bg_saber.obj
 0002:000095c0       ??_C@_0N@OEKLCFMN@StfKickRight?$AA@ 300a75c0     bg_saber.obj
 0002:000095d0       ??_C@_0M@IADBNCJI@StfKickLeft?$AA@ 300a75d0     bg_saber.obj
 0002:000095dc       ??_C@_0M@LODHMIIA@StfKickSpin?$AA@ 300a75dc     bg_saber.obj
 0002:000095e8       ??_C@_0N@NIILEKHB@StfKickBkFwd?$AA@ 300a75e8     bg_saber.obj
 0002:000095f8       ??_C@_0N@JEMEOOKN@StfKickSplit?$AA@ 300a75f8     bg_saber.obj
 0002:00009608       ??_C@_0O@NMBBHPCN@StfKickFwdAir?$AA@ 300a7608     bg_saber.obj
 0002:00009618       ??_C@_0P@DLMPDNCN@StfKickBackAir?$AA@ 300a7618     bg_saber.obj
 0002:00009628       ??_C@_0BA@EJCHHLPD@StfKickRightAir?$AA@ 300a7628     bg_saber.obj
 0002:00009638       ??_C@_0P@GIHHJKOM@StfKickLeftAir?$AA@ 300a7638     bg_saber.obj
 0002:00009648       ??_C@_08HGDIMBKI@StabDown?$AA@ 300a7648     bg_saber.obj
 0002:00009654       ??_C@_0M@JEGPPONO@StabDownStf?$AA@ 300a7654     bg_saber.obj
 0002:00009660       ??_C@_0N@MHIEIOPE@StabDownDual?$AA@ 300a7660     bg_saber.obj
 0002:00009670       ??_C@_0N@KBDLODPM@dualspinprot?$AA@ 300a7670     bg_saber.obj
 0002:00009680       ??_C@_0L@NHJJEIC@StfSoulCal?$AA@ 300a7680     bg_saber.obj
 0002:0000968c       ??_C@_0M@GOKDABKC@specialfast?$AA@ 300a768c     bg_saber.obj
 0002:00009698       ??_C@_0L@EKOEFLPJ@specialmed?$AA@ 300a7698     bg_saber.obj
 0002:000096a4       ??_C@_0L@PLFOAHMF@specialstr?$AA@ 300a76a4     bg_saber.obj
 0002:000096b0       ??_C@_0N@LJBLOMAE@upsidedwnatk?$AA@ 300a76b0     bg_saber.obj
 0002:000096c0       ??_C@_0M@HMDNHOPJ@pullatkstab?$AA@ 300a76c0     bg_saber.obj
 0002:000096cc       ??_C@_0N@GFKPCBPN@pullatkswing?$AA@ 300a76cc     bg_saber.obj
 0002:000096dc       ??_C@_0N@PCBIMGO@AloraSpinAtk?$AA@ 300a76dc     bg_saber.obj
 0002:000096ec       ??_C@_0M@BHONLNJO@Dual?5FB?5Atk?$AA@ 300a76ec     bg_saber.obj
 0002:000096f8       ??_C@_0M@LAELOAEL@Dual?5LR?5Atk?$AA@ 300a76f8     bg_saber.obj
 0002:00009704       ??_C@_0M@HBLMDLAK@StfHiltBash?$AA@ 300a7704     bg_saber.obj
 0002:00009710       ??_C@_08PCFOCMBL@TL2BR?5St?$AA@ 300a7710     bg_saber.obj
 0002:0000971c       ??_C@_06GPMCIGKE@L2R?5St?$AA@ 300a771c     bg_saber.obj
 0002:00009724       ??_C@_08PIALPGGG@BL2TR?5St?$AA@ 300a7724     bg_saber.obj
 0002:00009730       ??_C@_08EOOKPMJM@BR2TL?5St?$AA@ 300a7730     bg_saber.obj
 0002:0000973c       ??_C@_06IHPDEINE@R2L?5St?$AA@ 300a773c     bg_saber.obj
 0002:00009744       ??_C@_08EELPCGOB@TR2BL?5St?$AA@ 300a7744     bg_saber.obj
 0002:00009750       ??_C@_06FLBDMDIP@T2B?5St?$AA@ 300a7750     bg_saber.obj
 0002:00009758       ??_C@_09GEJMIFBA@TL2BR?5Ret?$AA@ 300a7758     bg_saber.obj
 0002:00009764       ??_C@_07DPNPLHKH@L2R?5Ret?$AA@ 300a7764     bg_saber.obj
 0002:0000976c       ??_C@_09EKCCNNEL@BL2TR?5Ret?$AA@ 300a776c     bg_saber.obj
 0002:00009778       ??_C@_09BHPMCHED@BR2TL?5Ret?$AA@ 300a7778     bg_saber.obj
 0002:00009784       ??_C@_07GPDCPHFF@R2L?5Ret?$AA@ 300a7784     bg_saber.obj
 0002:0000978c       ??_C@_09DJECHPBI@TR2BL?5Ret?$AA@ 300a778c     bg_saber.obj
 0002:00009798       ??_C@_07JDFHJPKC@T2B?5Ret?$AA@ 300a7798     bg_saber.obj
 0002:000097a0       ??_C@_0L@KOAIDIAM@BR2R?5Trans?$AA@ 300a77a0     bg_saber.obj
 0002:000097ac       ??_C@_0M@DCGKFOHF@BR2TR?5Trans?$AA@ 300a77ac     bg_saber.obj
 0002:000097b8       ??_C@_0L@GIGHDBIL@BR2T?5Trans?$AA@ 300a77b8     bg_saber.obj
 0002:000097c4       ??_C@_0M@FLFLHNGM@BR2TL?5Trans?$AA@ 300a77c4     bg_saber.obj
 0002:000097d0       ??_C@_0L@MHDJBLBF@BR2L?5Trans?$AA@ 300a77d0     bg_saber.obj
 0002:000097dc       ??_C@_0M@IEIBEGJH@BR2BL?5Trans?$AA@ 300a77dc     bg_saber.obj
 0002:000097e8       ??_C@_0L@CBLKDLGC@R2BR?5Trans?$AA@ 300a77e8     bg_saber.obj
 0002:000097f4       ??_C@_0L@POGAAAJJ@R2TR?5Trans?$AA@ 300a77f4     bg_saber.obj
 0002:00009800       ??_C@_09GOEOEIDP@R2T?5Trans?$AA@ 300a7800     bg_saber.obj
 0002:0000980c       ??_C@_0L@JHFBCDIA@R2TL?5Trans?$AA@ 300a780c     bg_saber.obj
 0002:00009818       ??_C@_09MBBAGCKB@R2L?5Trans?$AA@ 300a7818     bg_saber.obj
 0002:00009824       ??_C@_0L@EIILBIHL@R2BL?5Trans?$AA@ 300a7824     bg_saber.obj
 0002:00009830       ??_C@_0M@OJFCNJC@TR2BR?5Trans?$AA@ 300a7830     bg_saber.obj
 0002:0000983c       ??_C@_0L@OIELDGIE@TR2R?5Trans?$AA@ 300a783c     bg_saber.obj
 0002:00009848       ??_C@_0L@COCEDPAD@TR2T?5Trans?$AA@ 300a7848     bg_saber.obj
 0002:00009854       ??_C@_0M@LIHODFHA@TR2TL?5Trans?$AA@ 300a7854     bg_saber.obj
 0002:00009860       ??_C@_0L@IBHKBFJN@TR2L?5Trans?$AA@ 300a7860     bg_saber.obj
 0002:0000986c       ??_C@_0M@GHKEAOIL@TR2BL?5Trans?$AA@ 300a786c     bg_saber.obj
 0002:00009878       ??_C@_0L@MJAPPBCB@T2BR?5Trans?$AA@ 300a7878     bg_saber.obj
 0002:00009884       ??_C@_09KFDPDBPP@T2R?5Trans?$AA@ 300a7884     bg_saber.obj
 0002:00009890       ??_C@_0L@BGNFMKNK@T2TR?5Trans?$AA@ 300a7890     bg_saber.obj
 0002:0000989c       ??_C@_0L@HPOEOJMD@T2TL?5Trans?$AA@ 300a789c     bg_saber.obj
 0002:000098a8       ??_C@_09MMAOBCOG@T2L?5Trans?$AA@ 300a78a8     bg_saber.obj
 0002:000098b4       ??_C@_0L@KADONCDI@T2BL?5Trans?$AA@ 300a78b4     bg_saber.obj
 0002:000098c0       ??_C@_0M@PCBFMCFP@TL2BR?5Trans?$AA@ 300a78c0     bg_saber.obj
 0002:000098cc       ??_C@_0L@NBCMIHNP@TL2R?5Trans?$AA@ 300a78cc     bg_saber.obj
 0002:000098d8       ??_C@_0M@CNMPPJKE@TL2TR?5Trans?$AA@ 300a78d8     bg_saber.obj
 0002:000098e4       ??_C@_0L@BHEDIOFI@TL2T?5Trans?$AA@ 300a78e4     bg_saber.obj
 0002:000098f0       ??_C@_0L@LIBNKEMG@TL2L?5Trans?$AA@ 300a78f0     bg_saber.obj
 0002:000098fc       ??_C@_0M@JLCEOBEG@TL2BL?5Trans?$AA@ 300a78fc     bg_saber.obj
 0002:00009908       ??_C@_0L@NNDKNEKP@L2BR?5Trans?$AA@ 300a7908     bg_saber.obj
 0002:00009914       ??_C@_09JBEGPAOD@L2R?5Trans?$AA@ 300a7914     bg_saber.obj
 0002:00009920       ??_C@_0L@COAOPFE@L2TR?5Trans?$AA@ 300a7920     bg_saber.obj
 0002:0000992c       ??_C@_09FHCJPJGE@L2T?5Trans?$AA@ 300a792c     bg_saber.obj
 0002:00009938       ??_C@_0L@GLNBMMEN@L2TL?5Trans?$AA@ 300a7938     bg_saber.obj
 0002:00009944       ??_C@_0L@LEALPHLG@L2BL?5Trans?$AA@ 300a7944     bg_saber.obj
 0002:00009950       ??_C@_0M@BBDAIKED@BL2BR?5Trans?$AA@ 300a7950     bg_saber.obj
 0002:0000995c       ??_C@_0L@JHGPIJFH@BL2R?5Trans?$AA@ 300a795c     bg_saber.obj
 0002:00009968       ??_C@_0M@MOOKLBLI@BL2TR?5Trans?$AA@ 300a7968     bg_saber.obj
 0002:00009974       ??_C@_0L@FBAAIANA@BL2T?5Trans?$AA@ 300a7974     bg_saber.obj
 0002:00009980       ??_C@_0M@KHNLJCKB@BL2TL?5Trans?$AA@ 300a7980     bg_saber.obj
 0002:0000998c       ??_C@_0L@POFOKKEO@BL2L?5Trans?$AA@ 300a798c     bg_saber.obj
 0002:00009998       ??_C@_09LOMKOKKC@Bounce?5BR?$AA@ 300a7998     bg_saber.obj
 0002:000099a4       ??_C@_08OFNJAPL@Bounce?5R?$AA@ 300a79a4     bg_saber.obj
 0002:000099b0       ??_C@_09KGGBDFGA@Bounce?5TR?$AA@ 300a79b0     bg_saber.obj
 0002:000099bc       ??_C@_08FIAHDHHN@Bounce?5T?$AA@ 300a79bc     bg_saber.obj
 0002:000099c8       ??_C@_09HCCAAKLP@Bounce?5TL?$AA@ 300a79c8     bg_saber.obj
 0002:000099d4       ??_C@_08NKBMKPCE@Bounce?5L?$AA@ 300a79d4     bg_saber.obj
 0002:000099e0       ??_C@_09GKILNFHN@Bounce?5BL?$AA@ 300a79e0     bg_saber.obj
 0002:000099ec       ??_C@_0L@GNAHDHGP@Deflect?5BR?$AA@ 300a79ec     bg_saber.obj
 0002:000099f8       ??_C@_09BFHEKGJM@Deflect?5R?$AA@ 300a79f8     bg_saber.obj
 0002:00009a04       ??_C@_0L@HFKMOIKN@Deflect?5TR?$AA@ 300a7a04     bg_saber.obj
 0002:00009a10       ??_C@_09EDCOABBK@Deflect?5T?$AA@ 300a7a10     bg_saber.obj
 0002:00009a1c       ??_C@_0L@KBONNHHC@Deflect?5TL?$AA@ 300a7a1c     bg_saber.obj
 0002:00009a28       ??_C@_09MBDFJJED@Deflect?5L?$AA@ 300a7a28     bg_saber.obj
 0002:00009a34       ??_C@_0L@LJEGAILA@Deflect?5BL?$AA@ 300a7a34     bg_saber.obj
 0002:00009a40       ??_C@_09FPLGLEMN@Deflect?5B?$AA@ 300a7a40     bg_saber.obj
 0002:00009a4c       ??_C@_0N@GFILIJHD@Reflected?5BR?$AA@ 300a7a4c     bg_saber.obj
 0002:00009a5c       ??_C@_0M@PEPHJHNB@Reflected?5R?$AA@ 300a7a5c     bg_saber.obj
 0002:00009a68       ??_C@_0N@HNCAFGLB@Reflected?5TR?$AA@ 300a7a68     bg_saber.obj
 0002:00009a78       ??_C@_0M@KCKNDAFH@Reflected?5T?$AA@ 300a7a78     bg_saber.obj
 0002:00009a84       ??_C@_0N@KJGBGJGO@Reflected?5TL?$AA@ 300a7a84     bg_saber.obj
 0002:00009a94       ??_C@_0M@CALGKIAO@Reflected?5L?$AA@ 300a7a94     bg_saber.obj
 0002:00009aa0       ??_C@_0N@LBMKLGKM@Reflected?5BL?$AA@ 300a7aa0     bg_saber.obj
 0002:00009ab0       ??_C@_0M@LODFIFIA@Reflected?5B?$AA@ 300a7ab0     bg_saber.obj
 0002:00009abc       ??_C@_0L@LIOFLEGO@BParry?5Top?$AA@ 300a7abc     bg_saber.obj
 0002:00009ac8       ??_C@_09GDDODCIC@BParry?5UR?$AA@ 300a7ac8     bg_saber.obj
 0002:00009ad4       ??_C@_09LHHPANFN@BParry?5UL?$AA@ 300a7ad4     bg_saber.obj
 0002:00009ae0       ??_C@_09HAMJKKHN@BParry?5LR?$AA@ 300a7ae0     bg_saber.obj
 0002:00009aec       ??_C@_0L@KJPLHJCJ@BParry?5Bot?$AA@ 300a7aec     bg_saber.obj
 0002:00009af8       ??_C@_09KEIIJFKC@BParry?5LL?$AA@ 300a7af8     bg_saber.obj
 0002:00009b04       ??_C@_09NGDCGIAE@Knock?5Top?$AA@ 300a7b04     bg_saber.obj
 0002:00009b10       ??_C@_08NPOELPBF@Knock?5UR?$AA@ 300a7b10     bg_saber.obj
 0002:00009b1c       ??_C@_08LKFIAMK@Knock?5UL?$AA@ 300a7b1c     bg_saber.obj
 0002:00009b28       ??_C@_08MMBDCHOK@Knock?5LR?$AA@ 300a7b28     bg_saber.obj
 0002:00009b34       ??_C@_08BIFCBIDF@Knock?5LL?$AA@ 300a7b34     bg_saber.obj
 0002:00009b40       ??_C@_09LOMMMNNK@Parry?5Top?$AA@ 300a7b40     bg_saber.obj
 0002:00009b4c       ??_C@_08PMPCJJMH@Parry?5UR?$AA@ 300a7b4c     bg_saber.obj
 0002:00009b58       ??_C@_08CILDKGBI@Parry?5UL?$AA@ 300a7b58     bg_saber.obj
 0002:00009b64       ??_C@_08OPAFABDI@Parry?5LR?$AA@ 300a7b64     bg_saber.obj
 0002:00009b70       ??_C@_08DLEEDOOH@Parry?5LL?$AA@ 300a7b70     bg_saber.obj
 0002:00009b7c       ??_C@_0M@EILLDEJE@Reflect?5Top?$AA@ 300a7b7c     bg_saber.obj
 0002:00009b88       ??_C@_0L@DCCNIMBC@Reflect?5UR?$AA@ 300a7b88     bg_saber.obj
 0002:00009b94       ??_C@_0L@OGGMLDMN@Reflect?5UL?$AA@ 300a7b94     bg_saber.obj
 0002:00009ba0       ??_C@_0L@CBNKBEON@Reflect?5LR?$AA@ 300a7ba0     bg_saber.obj
 0002:00009bac       ??_C@_0L@PFJLCLDC@Reflect?5LL?$AA@ 300a7bac     bg_saber.obj
 0002:00009bb8       __real@4054000000000000    300a7bb8     bg_saber.obj
 0002:00009bc0       __real@41100000            300a7bc0     bg_saber.obj
 0002:00009bc4       __real@428c0000            300a7bc4     bg_saber.obj
 0002:00009bc8       __real@42960000            300a7bc8     bg_saber.obj
 0002:00009bcc       __real@43240000            300a7bcc     bg_saber.obj
 0002:00009bd0       __real@433e0000            300a7bd0     bg_saber.obj
 0002:00009bd4       __real@45c80000            300a7bd4     bg_saber.obj
 0002:00009bd8       ??_C@_0L@PGJIJNF@SABER_NONE?$AA@ 300a7bd8     bg_saberLoad.obj
 0002:00009be4       ??_C@_0N@OGPMBMML@SABER_SINGLE?$AA@ 300a7be4     bg_saberLoad.obj
 0002:00009bf4       ??_C@_0M@KCMILOII@SABER_STAFF?$AA@ 300a7bf4     bg_saberLoad.obj
 0002:00009c00       ??_C@_0M@DCKEJJCC@SABER_BROAD?$AA@ 300a7c00     bg_saberLoad.obj
 0002:00009c0c       ??_C@_0M@FMMLCOEM@SABER_PRONG?$AA@ 300a7c0c     bg_saberLoad.obj
 0002:00009c18       ??_C@_0N@KPJEOBIO@SABER_DAGGER?$AA@ 300a7c18     bg_saberLoad.obj
 0002:00009c28       ??_C@_09JGPFAKGO@SABER_ARC?$AA@ 300a7c28     bg_saberLoad.obj
 0002:00009c34       ??_C@_09IIGKGANJ@SABER_SAI?$AA@ 300a7c34     bg_saberLoad.obj
 0002:00009c40       ??_C@_0L@JGOENFGE@SABER_CLAW?$AA@ 300a7c40     bg_saberLoad.obj
 0002:00009c4c       ??_C@_0M@INMNJHEK@SABER_LANCE?$AA@ 300a7c4c     bg_saberLoad.obj
 0002:00009c58       ??_C@_0L@BONOMJND@SABER_STAR?$AA@ 300a7c58     bg_saberLoad.obj
 0002:00009c64       ??_C@_0O@JGGDFEFK@SABER_TRIDENT?$AA@ 300a7c64     bg_saberLoad.obj
 0002:00009c74       ??_C@_0L@BANMOAON@LS_INVALID?$AA@ 300a7c74     bg_saberLoad.obj
 0002:00009c80       ??_C@_07NILEALPF@LS_NONE?$AA@ 300a7c80     bg_saberLoad.obj
 0002:00009c88       ??_C@_08MBHDPEKF@LS_READY?$AA@ 300a7c88     bg_saberLoad.obj
 0002:00009c94       ??_C@_07EDNPKLPI@LS_DRAW?$AA@ 300a7c94     bg_saberLoad.obj
 0002:00009c9c       ??_C@_0L@CNFOEOOI@LS_PUTAWAY?$AA@ 300a7c9c     bg_saberLoad.obj
 0002:00009ca8       ??_C@_0L@CMOFIEAB@LS_A_TL2BR?$AA@ 300a7ca8     bg_saberLoad.obj
 0002:00009cb4       ??_C@_08CPIDBOEH@LS_A_L2R?$AA@ 300a7cb4     bg_saberLoad.obj
 0002:00009cc0       ??_C@_0L@OBMBLKEF@LS_A_BL2TR?$AA@ 300a7cc0     bg_saberLoad.obj
 0002:00009ccc       ??_C@_0L@OKFAKMHJ@LS_A_BR2TL?$AA@ 300a7ccc     bg_saberLoad.obj
 0002:00009cd8       ??_C@_08ELAEABDE@LS_A_R2L?$AA@ 300a7cd8     bg_saberLoad.obj
 0002:00009ce4       ??_C@_0L@CHHEJCDN@LS_A_TR2BL?$AA@ 300a7ce4     bg_saberLoad.obj
 0002:00009cf0       ??_C@_08PAOMHDGG@LS_A_T2B?$AA@ 300a7cf0     bg_saberLoad.obj
 0002:00009cfc       ??_C@_0O@GNJKPOOL@LS_A_BACKSTAB?$AA@ 300a7cfc     bg_saberLoad.obj
 0002:00009d0c       ??_C@_09CAEELJLH@LS_A_BACK?$AA@ 300a7d0c     bg_saberLoad.obj
 0002:00009d18       ??_C@_0N@ONJIGLHG@LS_A_BACK_CR?$AA@ 300a7d18     bg_saberLoad.obj
 0002:00009d28       ??_C@_0N@EDFPDPID@LS_ROLL_STAB?$AA@ 300a7d28     bg_saberLoad.obj
 0002:00009d38       ??_C@_0L@IMDBKIFN@LS_A_LUNGE?$AA@ 300a7d38     bg_saberLoad.obj
 0002:00009d44       ??_C@_0BA@GOCEHKHO@LS_A_JUMP_T__B_?$AA@ 300a7d44     bg_saberLoad.obj
 0002:00009d54       ??_C@_0P@FJCEBKMH@LS_A_FLIP_STAB?$AA@ 300a7d54     bg_saberLoad.obj
 0002:00009d64       ??_C@_0BA@HAINKDAA@LS_A_FLIP_SLASH?$AA@ 300a7d64     bg_saberLoad.obj
 0002:00009d74       ??_C@_0BD@JIFEIOCK@LS_JUMPATTACK_DUAL?$AA@ 300a7d74     bg_saberLoad.obj
 0002:00009d88       ??_C@_0BJ@EJKCIIKG@LS_JUMPATTACK_ARIAL_LEFT?$AA@ 300a7d88     bg_saberLoad.obj
 0002:00009da4       ??_C@_0BK@LAIHIPJO@LS_JUMPATTACK_ARIAL_RIGHT?$AA@ 300a7da4     bg_saberLoad.obj
 0002:00009dc0       ??_C@_0BI@IHPOFCPB@LS_JUMPATTACK_CART_LEFT?$AA@ 300a7dc0     bg_saberLoad.obj
 0002:00009dd8       ??_C@_0BJ@EFEGBHBD@LS_JUMPATTACK_CART_RIGHT?$AA@ 300a7dd8     bg_saberLoad.obj
 0002:00009df4       ??_C@_0BJ@KHELHBKE@LS_JUMPATTACK_STAFF_LEFT?$AA@ 300a7df4     bg_saberLoad.obj
 0002:00009e10       ??_C@_0BK@FOGHAHEL@LS_JUMPATTACK_STAFF_RIGHT?$AA@ 300a7e10     bg_saberLoad.obj
 0002:00009e2c       ??_C@_0BC@EPONEONH@LS_BUTTERFLY_LEFT?$AA@ 300a7e2c     bg_saberLoad.obj
 0002:00009e40       ??_C@_0BD@JHIDIBPC@LS_BUTTERFLY_RIGHT?$AA@ 300a7e40     bg_saberLoad.obj
 0002:00009e54       ??_C@_0BC@NDKCFACB@LS_A_BACKFLIP_ATK?$AA@ 300a7e54     bg_saberLoad.obj
 0002:00009e68       ??_C@_0BD@MHMCCFJA@LS_SPINATTACK_DUAL?$AA@ 300a7e68     bg_saberLoad.obj
 0002:00009e7c       ??_C@_0O@FDMAOBOA@LS_SPINATTACK?$AA@ 300a7e7c     bg_saberLoad.obj
 0002:00009e8c       ??_C@_0P@DFOBGGPF@LS_LEAP_ATTACK?$AA@ 300a7e8c     bg_saberLoad.obj
 0002:00009e9c       ??_C@_0BG@ELLOHBDB@LS_SWOOP_ATTACK_RIGHT?$AA@ 300a7e9c     bg_saberLoad.obj
 0002:00009eb4       ??_C@_0BF@KEBAECPJ@LS_SWOOP_ATTACK_LEFT?$AA@ 300a7eb4     bg_saberLoad.obj
 0002:00009ecc       ??_C@_0BJ@MJBNLGBI@LS_TAUNTAUN_ATTACK_RIGHT?$AA@ 300a7ecc     bg_saberLoad.obj
 0002:00009ee8       ??_C@_0BI@PCDKKKP@LS_TAUNTAUN_ATTACK_LEFT?$AA@ 300a7ee8     bg_saberLoad.obj
 0002:00009f00       ??_C@_09KDPEOKPC@LS_KICK_F?$AA@ 300a7f00     bg_saberLoad.obj
 0002:00009f0c       ??_C@_09MHJICPPG@LS_KICK_B?$AA@ 300a7f0c     bg_saberLoad.obj
 0002:00009f18       ??_C@_09INFKDNKH@LS_KICK_R?$AA@ 300a7f18     bg_saberLoad.obj
 0002:00009f24       ??_C@_09FJBLACHI@LS_KICK_L?$AA@ 300a7f24     bg_saberLoad.obj
 0002:00009f30       ??_C@_09JEEBAMOG@LS_KICK_S?$AA@ 300a7f30     bg_saberLoad.obj
 0002:00009f3c       ??_C@_0L@PCDKCHIF@LS_KICK_BF?$AA@ 300a7f3c     bg_saberLoad.obj
 0002:00009f48       ??_C@_0L@BEPDGMHP@LS_KICK_RL?$AA@ 300a7f48     bg_saberLoad.obj
 0002:00009f54       ??_C@_0O@NJDILDGK@LS_KICK_F_AIR?$AA@ 300a7f54     bg_saberLoad.obj
 0002:00009f64       ??_C@_0O@ECKJPBHM@LS_KICK_B_AIR?$AA@ 300a7f64     bg_saberLoad.obj
 0002:00009f74       ??_C@_0O@EBHPPDOH@LS_KICK_R_AIR?$AA@ 300a7f74     bg_saberLoad.obj
 0002:00009f84       ??_C@_0O@HIKDJAAM@LS_KICK_L_AIR?$AA@ 300a7f84     bg_saberLoad.obj
 0002:00009f94       ??_C@_0M@ELFCBMHI@LS_STABDOWN?$AA@ 300a7f94     bg_saberLoad.obj
 0002:00009fa0       ??_C@_0BC@DMCCPMIC@LS_STABDOWN_STAFF?$AA@ 300a7fa0     bg_saberLoad.obj
 0002:00009fb4       ??_C@_0BB@CODEHDPM@LS_STABDOWN_DUAL?$AA@ 300a7fb4     bg_saberLoad.obj
 0002:00009fc8       ??_C@_0BF@LBNOEGOG@LS_DUAL_SPIN_PROTECT?$AA@ 300a7fc8     bg_saberLoad.obj
 0002:00009fe0       ??_C@_0BB@PAHMPHJI@LS_STAFF_SOULCAL?$AA@ 300a7fe0     bg_saberLoad.obj
 0002:00009ff4       ??_C@_0O@PBIJILDF@LS_A1_SPECIAL?$AA@ 300a7ff4     bg_saberLoad.obj
 0002:0000a004       ??_C@_0O@BKLODADG@LS_A2_SPECIAL?$AA@ 300a8004     bg_saberLoad.obj
 0002:0000a014       ??_C@_0O@PFHMFLAI@LS_A3_SPECIAL?$AA@ 300a8014     bg_saberLoad.obj
 0002:0000a024       ??_C@_0BG@ONIDDAHL@LS_UPSIDE_DOWN_ATTACK?$AA@ 300a8024     bg_saberLoad.obj
 0002:0000a03c       ??_C@_0BE@DFLMECJA@LS_PULL_ATTACK_STAB?$AA@ 300a803c     bg_saberLoad.obj
 0002:0000a050       ??_C@_0BF@MEAMFNJP@LS_PULL_ATTACK_SWING?$AA@ 300a8050     bg_saberLoad.obj
 0002:0000a068       ??_C@_0BE@NCPALCCM@LS_SPINATTACK_ALORA?$AA@ 300a8068     bg_saberLoad.obj
 0002:0000a07c       ??_C@_0L@BHOJNDFA@LS_DUAL_FB?$AA@ 300a807c     bg_saberLoad.obj
 0002:0000a088       ??_C@_0L@FALMEENH@LS_DUAL_LR?$AA@ 300a8088     bg_saberLoad.obj
 0002:0000a094       ??_C@_0N@ILPCADIK@LS_HILT_BASH?$AA@ 300a8094     bg_saberLoad.obj
 0002:0000a0a4       ??_C@_0L@BCHLLCFH@LS_S_TL2BR?$AA@ 300a80a4     bg_saberLoad.obj
 0002:0000a0b0       ??_C@_08GBJNLNNH@LS_S_L2R?$AA@ 300a80b0     bg_saberLoad.obj
 0002:0000a0bc       ??_C@_0L@NPFPIMBD@LS_S_BL2TR?$AA@ 300a80bc     bg_saberLoad.obj
 0002:0000a0c8       ??_C@_0L@NEMOJKCP@LS_S_BR2TL?$AA@ 300a80c8     bg_saberLoad.obj
 0002:0000a0d4       ??_C@_08FBKKCKE@LS_S_R2L?$AA@ 300a80d4     bg_saberLoad.obj
 0002:0000a0e0       ??_C@_0L@BJOKKEGL@LS_S_TR2BL?$AA@ 300a80e0     bg_saberLoad.obj
 0002:0000a0ec       ??_C@_08LOPCNAPG@LS_S_T2B?$AA@ 300a80ec     bg_saberLoad.obj
 0002:0000a0f8       ??_C@_0L@NONBLCMJ@LS_R_TL2BR?$AA@ 300a80f8     bg_saberLoad.obj
 0002:0000a104       ??_C@_08KKMBGOHC@LS_R_L2R?$AA@ 300a8104     bg_saberLoad.obj
 0002:0000a110       ??_C@_0L@BDPFIMIN@LS_R_BL2TR?$AA@ 300a8110     bg_saberLoad.obj
 0002:0000a11c       ??_C@_0L@BIGEJKLB@LS_R_BR2TL?$AA@ 300a811c     bg_saberLoad.obj
 0002:0000a128       ??_C@_08MOEGHBAB@LS_R_R2L?$AA@ 300a8128     bg_saberLoad.obj
 0002:0000a134       ??_C@_0L@NFEAKEPF@LS_R_TR2BL?$AA@ 300a8134     bg_saberLoad.obj
 0002:0000a140       ??_C@_08HFKOADFD@LS_R_T2B?$AA@ 300a8140     bg_saberLoad.obj
 0002:0000a14c       ??_C@_0M@NHAEABKF@LS_T1_BR__R?$AA@ 300a814c     bg_saberLoad.obj
 0002:0000a158       ??_C@_0M@NLFBOOEE@LS_T1_BR_TR?$AA@ 300a8158     bg_saberLoad.obj
 0002:0000a164       ??_C@_0M@GOPPJAAJ@LS_T1_BR_T_?$AA@ 300a8164     bg_saberLoad.obj
 0002:0000a170       ??_C@_0M@PBANBJL@LS_T1_BR_TL?$AA@ 300a8170     bg_saberLoad.obj
 0002:0000a17c       ??_C@_0M@DEFDOHK@LS_T1_BR__L?$AA@ 300a817c     bg_saberLoad.obj
 0002:0000a188       ??_C@_0M@BHLLAOFJ@LS_T1_BR_BL?$AA@ 300a8188     bg_saberLoad.obj
 0002:0000a194       ??_C@_0M@HMLCCAMD@LS_T1__R_BR?$AA@ 300a8194     bg_saberLoad.obj
 0002:0000a1a0       ??_C@_0M@GEBJPPAB@LS_T1__R_TR?$AA@ 300a81a0     bg_saberLoad.obj
 0002:0000a1ac       ??_C@_0M@NBLHIBEM@LS_T1__R_T_?$AA@ 300a81ac     bg_saberLoad.obj
 0002:0000a1b8       ??_C@_0M@LAFIMANO@LS_T1__R_TL?$AA@ 300a81b8     bg_saberLoad.obj
 0002:0000a1c4       ??_C@_0M@LMANCPDP@LS_T1__R__L?$AA@ 300a81c4     bg_saberLoad.obj
 0002:0000a1d0       ??_C@_0M@KIPDBPBM@LS_T1__R_BL?$AA@ 300a81d0     bg_saberLoad.obj
 0002:0000a1dc       ??_C@_0M@BGHFNAAA@LS_T1_TR_BR?$AA@ 300a81dc     bg_saberLoad.obj
 0002:0000a1e8       ??_C@_0M@CILOACD@LS_T1_TR__R?$AA@ 300a81e8     bg_saberLoad.obj
 0002:0000a1f4       ??_C@_0M@LLHAHBIP@LS_T1_TR_T_?$AA@ 300a81f4     bg_saberLoad.obj
 0002:0000a200       ??_C@_0M@NKJPDABN@LS_T1_TR_TL?$AA@ 300a8200     bg_saberLoad.obj
 0002:0000a20c       ??_C@_0M@NGMKNPPM@LS_T1_TR__L?$AA@ 300a820c     bg_saberLoad.obj
 0002:0000a218       ??_C@_0M@MCDEOPNP@LS_T1_TR_BL?$AA@ 300a8218     bg_saberLoad.obj
 0002:0000a224       ??_C@_0M@OOOFBELB@LS_T1_T__BR?$AA@ 300a8224     bg_saberLoad.obj
 0002:0000a230       ??_C@_0M@PKBLCEJC@LS_T1_T___R?$AA@ 300a8230     bg_saberLoad.obj
 0002:0000a23c       ??_C@_0M@PGEOMLHD@LS_T1_T__TR?$AA@ 300a823c     bg_saberLoad.obj
 0002:0000a248       ??_C@_0M@CCAPPEKM@LS_T1_T__TL?$AA@ 300a8248     bg_saberLoad.obj
 0002:0000a254       ??_C@_0M@COFKBLEN@LS_T1_T___L?$AA@ 300a8254     bg_saberLoad.obj
 0002:0000a260       ??_C@_0M@DKKECLGO@LS_T1_T__BL?$AA@ 300a8260     bg_saberLoad.obj
 0002:0000a26c       ??_C@_0M@MJKFPJOD@LS_T1_TL_BR?$AA@ 300a826c     bg_saberLoad.obj
 0002:0000a278       ??_C@_0M@NNFLMJMA@LS_T1_TL__R?$AA@ 300a8278     bg_saberLoad.obj
 0002:0000a284       ??_C@_0M@NBAOCGCB@LS_T1_TL_TR?$AA@ 300a8284     bg_saberLoad.obj
 0002:0000a290       ??_C@_0M@GEKAFIGM@LS_T1_TL_T_?$AA@ 300a8290     bg_saberLoad.obj
 0002:0000a29c       ??_C@_0M@JBKPGBP@LS_T1_TL__L?$AA@ 300a829c     bg_saberLoad.obj
 0002:0000a2a8       ??_C@_0M@BNOEMGDM@LS_T1_TL_BL?$AA@ 300a82a8     bg_saberLoad.obj
 0002:0000a2b4       ??_C@_0M@KDGCAJCA@LS_T1__L_BR?$AA@ 300a82b4     bg_saberLoad.obj
 0002:0000a2c0       ??_C@_0M@LHJMDJAD@LS_T1__L__R?$AA@ 300a82c0     bg_saberLoad.obj
 0002:0000a2cc       ??_C@_0M@LLMJNGOC@LS_T1__L_TR?$AA@ 300a82cc     bg_saberLoad.obj
 0002:0000a2d8       ??_C@_0M@OGHKIKP@LS_T1__L_T_?$AA@ 300a82d8     bg_saberLoad.obj
 0002:0000a2e4       ??_C@_0M@GPIIOJDN@LS_T1__L_TL?$AA@ 300a82e4     bg_saberLoad.obj
 0002:0000a2f0       ??_C@_0M@HHCDDGPP@LS_T1__L_BL?$AA@ 300a82f0     bg_saberLoad.obj
 0002:0000a2fc       ??_C@_0M@BMCKBIGF@LS_T1_BL_BR?$AA@ 300a82fc     bg_saberLoad.obj
 0002:0000a308       ??_C@_0M@INECIEG@LS_T1_BL__R?$AA@ 300a8308     bg_saberLoad.obj
 0002:0000a314       ??_C@_0M@EIBMHKH@LS_T1_BL_TR?$AA@ 300a8314     bg_saberLoad.obj
 0002:0000a320       ??_C@_0M@LBCPLJOK@LS_T1_BL_T_?$AA@ 300a8320     bg_saberLoad.obj
 0002:0000a32c       ??_C@_0M@NAMAPIHI@LS_T1_BL_TL?$AA@ 300a832c     bg_saberLoad.obj
 0002:0000a338       ??_C@_0M@NMJFBHJJ@LS_T1_BL__L?$AA@ 300a8338     bg_saberLoad.obj
 0002:0000a344       ??_C@_08JJEIDFOE@LS_B1_BR?$AA@ 300a8344     bg_saberLoad.obj
 0002:0000a350       ??_C@_08INLGAFMH@LS_B1__R?$AA@ 300a8350     bg_saberLoad.obj
 0002:0000a35c       ??_C@_08IBODOKCG@LS_B1_TR?$AA@ 300a835c     bg_saberLoad.obj
 0002:0000a368       ??_C@_08DEENJEGL@LS_B1_T_?$AA@ 300a8368     bg_saberLoad.obj
 0002:0000a374       ??_C@_08FFKCNFPJ@LS_B1_TL?$AA@ 300a8374     bg_saberLoad.obj
 0002:0000a380       ??_C@_08FJPHDKBI@LS_B1__L?$AA@ 300a8380     bg_saberLoad.obj
 0002:0000a38c       ??_C@_08ENAJAKDL@LS_B1_BL?$AA@ 300a838c     bg_saberLoad.obj
 0002:0000a398       ??_C@_08EPBBNGPJ@LS_D1_BR?$AA@ 300a8398     bg_saberLoad.obj
 0002:0000a3a4       ??_C@_08FLOPOGNK@LS_D1__R?$AA@ 300a83a4     bg_saberLoad.obj
 0002:0000a3b0       ??_C@_08FHLKAJDL@LS_D1_TR?$AA@ 300a83b0     bg_saberLoad.obj
 0002:0000a3bc       ??_C@_08OCBEHHHG@LS_D1_T_?$AA@ 300a83bc     bg_saberLoad.obj
 0002:0000a3c8       ??_C@_08IDPLDGOE@LS_D1_TL?$AA@ 300a83c8     bg_saberLoad.obj
 0002:0000a3d4       ??_C@_08IPKONJAF@LS_D1__L?$AA@ 300a83d4     bg_saberLoad.obj
 0002:0000a3e0       ??_C@_08JLFAOJCG@LS_D1_BL?$AA@ 300a83e0     bg_saberLoad.obj
 0002:0000a3ec       ??_C@_08PKLPKILE@LS_D1_B_?$AA@ 300a83ec     bg_saberLoad.obj
 0002:0000a3f8       ??_C@_08BAPHFGJ@LS_V1_BR?$AA@ 300a83f8     bg_saberLoad.obj
 0002:0000a404       ??_C@_08BFPBEFEK@LS_V1__R?$AA@ 300a8404     bg_saberLoad.obj
 0002:0000a410       ??_C@_08BJKEKKKL@LS_V1_TR?$AA@ 300a8410     bg_saberLoad.obj
 0002:0000a41c       ??_C@_08KMAKNEOG@LS_V1_T_?$AA@ 300a841c     bg_saberLoad.obj
 0002:0000a428       ??_C@_08MNOFJFHE@LS_V1_TL?$AA@ 300a8428     bg_saberLoad.obj
 0002:0000a434       ??_C@_08MBLAHKJF@LS_V1__L?$AA@ 300a8434     bg_saberLoad.obj
 0002:0000a440       ??_C@_08NFEOEKLG@LS_V1_BL?$AA@ 300a8440     bg_saberLoad.obj
 0002:0000a44c       ??_C@_08LEKBALCE@LS_V1_B_?$AA@ 300a844c     bg_saberLoad.obj
 0002:0000a458       ??_C@_08JFNGLHAN@LS_H1_T_?$AA@ 300a8458     bg_saberLoad.obj
 0002:0000a464       ??_C@_08CAHIMJEA@LS_H1_TR?$AA@ 300a8464     bg_saberLoad.obj
 0002:0000a470       ??_C@_08PEDJPGJP@LS_H1_TL?$AA@ 300a8470     bg_saberLoad.obj
 0002:0000a47c       ??_C@_08DINDBGIC@LS_H1_BR?$AA@ 300a847c     bg_saberLoad.obj
 0002:0000a488       ??_C@_08INHNGIMP@LS_H1_B_?$AA@ 300a8488     bg_saberLoad.obj
 0002:0000a494       ??_C@_08OMJCCJFN@LS_H1_BL?$AA@ 300a8494     bg_saberLoad.obj
 0002:0000a4a0       ??_C@_08BDECMFKD@LS_K1_T_?$AA@ 300a84a0     bg_saberLoad.obj
 0002:0000a4ac       ??_C@_08KGOMLLOO@LS_K1_TR?$AA@ 300a84ac     bg_saberLoad.obj
 0002:0000a4b8       ??_C@_08HCKNIEDB@LS_K1_TL?$AA@ 300a84b8     bg_saberLoad.obj
 0002:0000a4c4       ??_C@_08LOEHGECM@LS_K1_BR?$AA@ 300a84c4     bg_saberLoad.obj
 0002:0000a4d0       ??_C@_08GKAGFLPD@LS_K1_BL?$AA@ 300a84d0     bg_saberLoad.obj
 0002:0000a4dc       ??_C@_0M@MMIHECH@LS_PARRY_UP?$AA@ 300a84dc     bg_saberLoad.obj
 0002:0000a4e8       ??_C@_0M@DOPOBGKF@LS_PARRY_UR?$AA@ 300a84e8     bg_saberLoad.obj
 0002:0000a4f4       ??_C@_0M@OKLPCJHK@LS_PARRY_UL?$AA@ 300a84f4     bg_saberLoad.obj
 0002:0000a500       ??_C@_0M@CNAJIOFK@LS_PARRY_LR?$AA@ 300a8500     bg_saberLoad.obj
 0002:0000a50c       ??_C@_0M@PJEILBIF@LS_PARRY_LL?$AA@ 300a850c     bg_saberLoad.obj
 0002:0000a518       ??_C@_0O@CFJCJOOE@LS_REFLECT_UP?$AA@ 300a8518     bg_saberLoad.obj
 0002:0000a528       ??_C@_0O@BHKEPMGG@LS_REFLECT_UR?$AA@ 300a8528     bg_saberLoad.obj
 0002:0000a538       ??_C@_0O@MDOFMDLJ@LS_REFLECT_UL?$AA@ 300a8538     bg_saberLoad.obj
 0002:0000a548       ??_C@_0O@EFDGEJJ@LS_REFLECT_LR?$AA@ 300a8548     bg_saberLoad.obj
 0002:0000a558       ??_C@_0O@NABCFLEG@LS_REFLECT_LL?$AA@ 300a8558     bg_saberLoad.obj
 0002:0000a568       ??_C@_0BA@FOCLBKAP@unexpected?5EOF?6?$AA@ 300a8568     bg_saberLoad.obj
 0002:0000a578       ??_C@_0BO@NBJEGAHB@required?5string?5?8?$CFs?8?5missing?6?$AA@ 300a8578     bg_saberLoad.obj
 0002:0000a598       ??_C@_06HDDOCMMN@orange?$AA@ 300a8598     bg_saberLoad.obj
 0002:0000a5a0       ??_C@_06ENJNJKEL@yellow?$AA@ 300a85a0     bg_saberLoad.obj
 0002:0000a5a8       ??_C@_05GBEEJKMC@green?$AA@ 300a85a8     bg_saberLoad.obj
 0002:0000a5b0       ??_C@_06GEHONCEN@purple?$AA@ 300a85b0     bg_saberLoad.obj
 0002:0000a5b8       ??_C@_06NLFCANPD@random?$AA@ 300a85b8     bg_saberLoad.obj
 0002:0000a5c0       ??_C@_04LBNBHAJC@fast?$AA@ 300a85c0     bg_saberLoad.obj
 0002:0000a5c8       ??_C@_06HIDOEFBI@medium?$AA@ 300a85c8     bg_saberLoad.obj
 0002:0000a5d0       ??_C@_06KHACOKFA@strong?$AA@ 300a85d0     bg_saberLoad.obj
 0002:0000a5d8       ??_C@_06MBIMHMOE@desann?$AA@ 300a85d8     bg_saberLoad.obj
 0002:0000a5e0       ??_C@_06DBFFGPJE@tavion?$AA@ 300a85e0     bg_saberLoad.obj
 0002:0000a5e8       ??_C@_04IJNDAMHN@dual?$AA@ 300a85e8     bg_saberLoad.obj
 0002:0000a5f0       ??_C@_05DDLOIMOJ@staff?$AA@ 300a85f0     bg_saberLoad.obj
 0002:0000a5f8       ??_C@_0L@CLLBMKKI@lightsaber?$AA@ 300a85f8     bg_saberLoad.obj
 0002:0000a604       ??_C@_0CJ@PIIDACPD@models?1weapons2?1saber_reborn?1sab@ 300a8604     bg_saberLoad.obj
 0002:0000a630       ??_C@_0CH@BHNNODOL@sound?1weapons?1saber?1enemy_saber_@ 300a8630     bg_saberLoad.obj
 0002:0000a658       ??_C@_0CC@LJCDHDAP@sound?1weapons?1saber?1saberhum3?4wa@ 300a8658     bg_saberLoad.obj
 0002:0000a67c       ??_C@_0CI@MHFGOOAJ@sound?1weapons?1saber?1enemy_saber_@ 300a867c     bg_saberLoad.obj
 0002:0000a6a4       ??_C@_04FJIOCDAK@Kyle?$AA@ 300a86a4     bg_saberLoad.obj
 0002:0000a6ac       ??_C@_09KGFNABEN@saberinfo?$AA@ 300a86ac     bg_saberLoad.obj
 0002:0000a6b8       ??_C@_01HCONENDN@?$HL?$AA@ 300a86b8     bg_saberLoad.obj
 0002:0000a6bc       ??_C@_0CM@LKMGCIC@?$FO1ERROR?3?5unexpected?5EOF?5while?5pa@ 300a86bc     bg_saberLoad.obj
 0002:0000a6e8       ??_C@_01CELHOKLL@?$HN?$AA@ 300a86e8     bg_saberLoad.obj
 0002:0000a6ec       ??_C@_04MEMAJGDJ@name?$AA@ 300a86ec     bg_saberLoad.obj
 0002:0000a6f4       ??_C@_09NAGGCFBE@saberType?$AA@ 300a86f4     bg_saberLoad.obj
 0002:0000a700       ??_C@_0L@MHEAGHEK@saberModel?$AA@ 300a8700     bg_saberLoad.obj
 0002:0000a70c       ??_C@_0L@EKGCMDJL@customSkin?$AA@ 300a870c     bg_saberLoad.obj
 0002:0000a718       ??_C@_07IMONDDDH@soundOn?$AA@ 300a8718     bg_saberLoad.obj
 0002:0000a720       ??_C@_09LMHPKFJB@soundLoop?$AA@ 300a8720     bg_saberLoad.obj
 0002:0000a72c       ??_C@_08IFIFNFKF@soundOff?$AA@ 300a872c     bg_saberLoad.obj
 0002:0000a738       ??_C@_09NEDLCGJM@numBlades?$AA@ 300a8738     bg_saberLoad.obj
 0002:0000a748       ??_C@_0EH@EGIFGFD@WP_SaberParseParms?3?5saber?5?$CFs?5has@ 300a8748     bg_saberLoad.obj
 0002:0000a790       ??_C@_0L@OBCIJENM@saberColor?$AA@ 300a8790     bg_saberLoad.obj
 0002:0000a79c       ??_C@_0CG@CGJEPIIF@?$FO3WARNING?3?5bad?5saberColor?5?8?$CFs?8?5i@ 300a879c     bg_saberLoad.obj
 0002:0000a7c4       ??_C@_0M@MOIKADHG@saberLength?$AA@ 300a87c4     bg_saberLoad.obj
 0002:0000a7d0       ??_C@_0CH@KPGIKOPP@?$FO3WARNING?3?5bad?5saberLength?5?8?$CFs?8?5@ 300a87d0     bg_saberLoad.obj
 0002:0000a7f8       ??_C@_0M@GAGBGIMM@saberRadius?$AA@ 300a87f8     bg_saberLoad.obj
 0002:0000a804       ??_C@_0CH@KBCAKBPO@?$FO3WARNING?3?5bad?5saberRadius?5?8?$CFs?8?5@ 300a8804     bg_saberLoad.obj
 0002:0000a82c       ??_C@_0L@JFMMKNLG@saberStyle?$AA@ 300a882c     bg_saberLoad.obj
 0002:0000a838       ??_C@_0BC@DDCOJAAO@saberStyleLearned?$AA@ 300a8838     bg_saberLoad.obj
 0002:0000a84c       ??_C@_0BE@OMGNGLFP@saberStyleForbidden?$AA@ 300a884c     bg_saberLoad.obj
 0002:0000a860       ??_C@_08GIHANBGF@maxChain?$AA@ 300a8860     bg_saberLoad.obj
 0002:0000a86c       ??_C@_08BODNEOME@lockable?$AA@ 300a886c     bg_saberLoad.obj
 0002:0000a878       ??_C@_09ONPKMKJM@throwable?$AA@ 300a8878     bg_saberLoad.obj
 0002:0000a884       ??_C@_0L@CPEPMKHD@disarmable?$AA@ 300a8884     bg_saberLoad.obj
 0002:0000a890       ??_C@_08NPIAFDOA@blocking?$AA@ 300a8890     bg_saberLoad.obj
 0002:0000a89c       ??_C@_09BHFJEHJB@twoHanded?$AA@ 300a889c     bg_saberLoad.obj
 0002:0000a8a8       ??_C@_0O@IDDONEJ@forceRestrict?$AA@ 300a88a8     bg_saberLoad.obj
 0002:0000a8b8       ??_C@_09FHICMJAA@lockBonus?$AA@ 300a88b8     bg_saberLoad.obj
 0002:0000a8c4       ??_C@_0L@MJIMNAKN@parryBonus?$AA@ 300a88c4     bg_saberLoad.obj
 0002:0000a8d0       ??_C@_0BA@FKMMEMID@breakParryBonus?$AA@ 300a88d0     bg_saberLoad.obj
 0002:0000a8e0       ??_C@_0BB@JJJLEKKH@breakParryBonus2?$AA@ 300a88e0     bg_saberLoad.obj
 0002:0000a8f4       ??_C@_0M@CLGJNKL@disarmBonus?$AA@ 300a88f4     bg_saberLoad.obj
 0002:0000a900       ??_C@_0N@KMHGJIIM@disarmBonus2?$AA@ 300a8900     bg_saberLoad.obj
 0002:0000a910       ??_C@_0BB@MNBBHKPM@singleBladeStyle?$AA@ 300a8910     bg_saberLoad.obj
 0002:0000a924       ??_C@_0BF@MFFEBKBA@singleBladeThrowable?$AA@ 300a8924     bg_saberLoad.obj
 0002:0000a93c       ??_C@_0N@MAFMJFFN@brokenSaber1?$AA@ 300a893c     bg_saberLoad.obj
 0002:0000a94c       ??_C@_0N@OLHBMGJO@brokenSaber2?$AA@ 300a894c     bg_saberLoad.obj
 0002:0000a95c       ??_C@_0N@BLLLLBJF@returnDamage?$AA@ 300a895c     bg_saberLoad.obj
 0002:0000a96c       ??_C@_09GLMEGEAN@spinSound?$AA@ 300a896c     bg_saberLoad.obj
 0002:0000a978       ??_C@_0M@OLENDEKO@swingSound1?$AA@ 300a8978     bg_saberLoad.obj
 0002:0000a984       ??_C@_0M@MAGAGHGN@swingSound2?$AA@ 300a8984     bg_saberLoad.obj
 0002:0000a990       ??_C@_0M@NJHLFGCM@swingSound3?$AA@ 300a8990     bg_saberLoad.obj
 0002:0000a99c       ??_C@_0P@IOPDDOBC@moveSpeedScale?$AA@ 300a899c     bg_saberLoad.obj
 0002:0000a9ac       ??_C@_0P@MDHCHDJB@animSpeedScale?$AA@ 300a89ac     bg_saberLoad.obj
 0002:0000a9bc       ??_C@_0O@FCNJCDBE@bounceOnWalls?$AA@ 300a89bc     bg_saberLoad.obj
 0002:0000a9cc       ??_C@_0M@IADKEHHM@boltToWrist?$AA@ 300a89cc     bg_saberLoad.obj
 0002:0000a9d8       ??_C@_08ILNOIMGH@kataMove?$AA@ 300a89d8     bg_saberLoad.obj
 0002:0000a9e4       ??_C@_0N@OLLFHDJP@lungeAtkMove?$AA@ 300a89e4     bg_saberLoad.obj
 0002:0000a9f4       ??_C@_0O@DPADFKNO@jumpAtkUpMove?$AA@ 300a89f4     bg_saberLoad.obj
 0002:0000aa04       ??_C@_0P@OGJOEGIL@jumpAtkFwdMove?$AA@ 300a8a04     bg_saberLoad.obj
 0002:0000aa14       ??_C@_0BA@BJBMJDFB@jumpAtkBackMove?$AA@ 300a8a14     bg_saberLoad.obj
 0002:0000aa24       ??_C@_0BB@IGCOPKLJ@jumpAtkRightMove?$AA@ 300a8a24     bg_saberLoad.obj
 0002:0000aa38       ??_C@_0BA@PFCMNJNA@jumpAtkLeftMove?$AA@ 300a8a38     bg_saberLoad.obj
 0002:0000aa48       ??_C@_09JOJHIGJB@readyAnim?$AA@ 300a8a48     bg_saberLoad.obj
 0002:0000aa54       ??_C@_08OENFMDLA@drawAnim?$AA@ 300a8a54     bg_saberLoad.obj
 0002:0000aa60       ??_C@_0M@BFOJGBIN@putawayAnim?$AA@ 300a8a60     bg_saberLoad.obj
 0002:0000aa6c       ??_C@_09COHKNEJL@tauntAnim?$AA@ 300a8a6c     bg_saberLoad.obj
 0002:0000aa78       ??_C@_07EKPFJCKJ@bowAnim?$AA@ 300a8a78     bg_saberLoad.obj
 0002:0000aa80       ??_C@_0N@BMHFJOOE@meditateAnim?$AA@ 300a8a80     bg_saberLoad.obj
 0002:0000aa90       ??_C@_0N@KBGALCJL@flourishAnim?$AA@ 300a8a90     bg_saberLoad.obj
 0002:0000aaa0       ??_C@_09IJPFECN@gloatAnim?$AA@ 300a8aa0     bg_saberLoad.obj
 0002:0000aaac       ??_C@_0L@FFEJLEGF@noRollStab?$AA@ 300a8aac     bg_saberLoad.obj
 0002:0000aab8       ??_C@_0N@DKAKOIDA@noPullAttack?$AA@ 300a8ab8     bg_saberLoad.obj
 0002:0000aac8       ??_C@_0N@DHKJHCGA@noBackAttack?$AA@ 300a8ac8     bg_saberLoad.obj
 0002:0000aad8       ??_C@_0L@NJPIIGCJ@noStabDown?$AA@ 300a8ad8     bg_saberLoad.obj
 0002:0000aae4       ??_C@_0L@NHANMJOA@noWallRuns?$AA@ 300a8ae4     bg_saberLoad.obj
 0002:0000aaf0       ??_C@_0M@MOOJPGBK@noWallFlips?$AA@ 300a8af0     bg_saberLoad.obj
 0002:0000aafc       ??_C@_0L@LKFPINIG@noWallGrab?$AA@ 300a8afc     bg_saberLoad.obj
 0002:0000ab08       ??_C@_07EMEJLHLJ@noRolls?$AA@ 300a8b08     bg_saberLoad.obj
 0002:0000ab10       ??_C@_07LBEMCHMC@noFlips?$AA@ 300a8b10     bg_saberLoad.obj
 0002:0000ab18       ??_C@_0N@MAFHMJM@noCartwheels?$AA@ 300a8b18     bg_saberLoad.obj
 0002:0000ab28       ??_C@_07LKPMBHJJ@noKicks?$AA@ 300a8b28     bg_saberLoad.obj
 0002:0000ab30       ??_C@_0BA@FDGACPGL@noMirrorAttacks?$AA@ 300a8b30     bg_saberLoad.obj
 0002:0000ab40       ??_C@_09EHPCDPPK@onInWater?$AA@ 300a8b40     bg_saberLoad.obj
 0002:0000ab4c       ??_C@_07POBCBIAL@notInMP?$AA@ 300a8b4c     bg_saberLoad.obj
 0002:0000ab54       ??_C@_0BB@HJNEKDIH@bladeStyle2Start?$AA@ 300a8b54     bg_saberLoad.obj
 0002:0000ab68       ??_C@_0M@MLNFFOGH@noWallMarks?$AA@ 300a8b68     bg_saberLoad.obj
 0002:0000ab74       ??_C@_08HEKKGBNH@noDlight?$AA@ 300a8b74     bg_saberLoad.obj
 0002:0000ab80       ??_C@_07OINOPDEA@noBlade?$AA@ 300a8b80     bg_saberLoad.obj
 0002:0000ab88       ??_C@_0L@CJKNEMMH@trailStyle?$AA@ 300a8b88     bg_saberLoad.obj
 0002:0000ab94       ??_C@_0O@CECLIKPH@g2MarksShader?$AA@ 300a8b94     bg_saberLoad.obj
 0002:0000aba4       ??_C@_0BD@GHBHNLDP@g2WeaponMarkShader?$AA@ 300a8ba4     bg_saberLoad.obj
 0002:0000abb8       ??_C@_0P@DBJANBKK@knockbackScale?$AA@ 300a8bb8     bg_saberLoad.obj
 0002:0000abc8       ??_C@_0M@NMNALNNM@damageScale?$AA@ 300a8bc8     bg_saberLoad.obj
 0002:0000abd4       ??_C@_0BA@PGNOEGAD@noDismemberment?$AA@ 300a8bd4     bg_saberLoad.obj
 0002:0000abe4       ??_C@_0N@NKNLDJCL@noIdleEffect?$AA@ 300a8be4     bg_saberLoad.obj
 0002:0000abf4       ??_C@_0M@ONIOEHGI@alwaysBlock?$AA@ 300a8bf4     bg_saberLoad.obj
 0002:0000ac00       ??_C@_0BD@OBFKEJDF@noManualDeactivate?$AA@ 300a8c00     bg_saberLoad.obj
 0002:0000ac14       ??_C@_0BB@JGFIGNIK@transitionDamage?$AA@ 300a8c14     bg_saberLoad.obj
 0002:0000ac28       ??_C@_0N@HGGCMKIH@splashRadius?$AA@ 300a8c28     bg_saberLoad.obj
 0002:0000ac38       ??_C@_0N@LJPCOLCE@splashDamage?$AA@ 300a8c38     bg_saberLoad.obj
 0002:0000ac48       ??_C@_0BA@KAJFJOIC@splashKnockback?$AA@ 300a8c48     bg_saberLoad.obj
 0002:0000ac58       ??_C@_09IOEILOPM@hitSound1?$AA@ 300a8c58     bg_saberLoad.obj
 0002:0000ac64       ??_C@_09KFGFONDP@hitSound2?$AA@ 300a8c64     bg_saberLoad.obj
 0002:0000ac70       ??_C@_09LMHONMHO@hitSound3?$AA@ 300a8c70     bg_saberLoad.obj
 0002:0000ac7c       ??_C@_0M@FKNJFEON@blockSound1?$AA@ 300a8c7c     bg_saberLoad.obj
 0002:0000ac88       ??_C@_0M@HBPEAHCO@blockSound2?$AA@ 300a8c88     bg_saberLoad.obj
 0002:0000ac94       ??_C@_0M@GIOPDGGP@blockSound3?$AA@ 300a8c94     bg_saberLoad.obj
 0002:0000aca0       ??_C@_0N@PBILDJLJ@bounceSound1?$AA@ 300a8ca0     bg_saberLoad.obj
 0002:0000acb0       ??_C@_0N@NKKGGKHK@bounceSound2?$AA@ 300a8cb0     bg_saberLoad.obj
 0002:0000acc0       ??_C@_0N@MDLNFLDL@bounceSound3?$AA@ 300a8cc0     bg_saberLoad.obj
 0002:0000acd0       ??_C@_0M@BNIGLEH@blockEffect?$AA@ 300a8cd0     bg_saberLoad.obj
 0002:0000acdc       ??_C@_0BA@JLPDHEC@hitPersonEffect?$AA@ 300a8cdc     bg_saberLoad.obj
 0002:0000acec       ??_C@_0P@BIDGPGLL@hitOtherEffect?$AA@ 300a8cec     bg_saberLoad.obj
 0002:0000acfc       ??_C@_0M@GOPKCEAP@bladeEffect?$AA@ 300a8cfc     bg_saberLoad.obj
 0002:0000ad08       ??_C@_0N@ECBBMGGL@noClashFlare?$AA@ 300a8d08     bg_saberLoad.obj
 0002:0000ad18       ??_C@_0N@DOGNHFNE@noWallMarks2?$AA@ 300a8d18     bg_saberLoad.obj
 0002:0000ad28       ??_C@_09PFLDLJGH@noDlight2?$AA@ 300a8d28     bg_saberLoad.obj
 0002:0000ad34       ??_C@_08JLEEMLBC@noBlade2?$AA@ 300a8d34     bg_saberLoad.obj
 0002:0000ad40       ??_C@_0M@OIFJKOCO@trailStyle2?$AA@ 300a8d40     bg_saberLoad.obj
 0002:0000ad4c       ??_C@_0P@MOINBIEE@g2MarksShader2?$AA@ 300a8d4c     bg_saberLoad.obj
 0002:0000ad5c       ??_C@_0BE@FLHBGOJH@g2WeaponMarkShader2?$AA@ 300a8d5c     bg_saberLoad.obj
 0002:0000ad70       ??_C@_0BA@NLECIOFG@knockbackScale2?$AA@ 300a8d70     bg_saberLoad.obj
 0002:0000ad80       ??_C@_0N@GCMJBKDD@damageScale2?$AA@ 300a8d80     bg_saberLoad.obj
 0002:0000ad90       ??_C@_0BB@HEIPNLIN@noDismemberment2?$AA@ 300a8d90     bg_saberLoad.obj
 0002:0000ada4       ??_C@_0O@EBBGHGAI@noIdleEffect2?$AA@ 300a8da4     bg_saberLoad.obj
 0002:0000adb4       ??_C@_0N@KOPEDDFM@alwaysBlock2?$AA@ 300a8db4     bg_saberLoad.obj
 0002:0000adc4       ??_C@_0BE@LLCCMKBL@noManualDeactivate2?$AA@ 300a8dc4     bg_saberLoad.obj
 0002:0000add8       ??_C@_0BC@OAILGGCC@transitionDamage2?$AA@ 300a8dd8     bg_saberLoad.obj
 0002:0000adec       ??_C@_0O@JONKCADI@splashRadius2?$AA@ 300a8dec     bg_saberLoad.obj
 0002:0000adfc       ??_C@_0O@NBMKECEL@splashDamage2?$AA@ 300a8dfc     bg_saberLoad.obj
 0002:0000ae0c       ??_C@_0BB@OOGGCDOD@splashKnockback2?$AA@ 300a8e0c     bg_saberLoad.obj
 0002:0000ae20       ??_C@_0L@LBONBFGJ@hit2Sound1?$AA@ 300a8e20     bg_saberLoad.obj
 0002:0000ae2c       ??_C@_0L@JKMAEGKK@hit2Sound2?$AA@ 300a8e2c     bg_saberLoad.obj
 0002:0000ae38       ??_C@_0L@IDNLHHOL@hit2Sound3?$AA@ 300a8e38     bg_saberLoad.obj
 0002:0000ae44       ??_C@_0N@NLIJKEHB@block2Sound1?$AA@ 300a8e44     bg_saberLoad.obj
 0002:0000ae54       ??_C@_0N@PAKEPHLC@block2Sound2?$AA@ 300a8e54     bg_saberLoad.obj
 0002:0000ae64       ??_C@_0N@OJLPMGPD@block2Sound3?$AA@ 300a8e64     bg_saberLoad.obj
 0002:0000ae74       ??_C@_0O@LHCEGDPB@bounce2Sound1?$AA@ 300a8e74     bg_saberLoad.obj
 0002:0000ae84       ??_C@_0O@JMAJDADC@bounce2Sound2?$AA@ 300a8e84     bg_saberLoad.obj
 0002:0000ae94       ??_C@_0O@IFBCABHD@bounce2Sound3?$AA@ 300a8e94     bg_saberLoad.obj
 0002:0000aea4       ??_C@_0N@FMJFICJ@blockEffect2?$AA@ 300a8ea4     bg_saberLoad.obj
 0002:0000aeb4       ??_C@_0BB@HFKLMLPK@hitPersonEffect2?$AA@ 300a8eb4     bg_saberLoad.obj
 0002:0000aec8       ??_C@_0BA@LBNLAIID@hitOtherEffect2?$AA@ 300a8ec8     bg_saberLoad.obj
 0002:0000aed8       ??_C@_0N@HNKBLDME@bladeEffect2?$AA@ 300a8ed8     bg_saberLoad.obj
 0002:0000aee8       ??_C@_0O@DHFCPNGH@noClashFlare2?$AA@ 300a8ee8     bg_saberLoad.obj
 0002:0000aef8       ??_C@_04CGFJFPFD@none?$AA@ 300a8ef8     bg_saberLoad.obj
 0002:0000af00       ??_C@_06LEMKAMD@remove?$AA@ 300a8f00     bg_saberLoad.obj
 0002:0000af08       ??_C@_04CAHIDOMH@?4sab?$AA@ 300a8f08     bg_saberLoad.obj
 0002:0000af10       ??_C@_0BA@MIBHFBCE@ext_data?1sabers?$AA@ 300a8f10     bg_saberLoad.obj
 0002:0000af20       ??_C@_0BD@NNPCBGHA@ext_data?1sabers?1?$CFs?$AA@ 300a8f20     bg_saberLoad.obj
 0002:0000af34       ??_C@_0BE@DJGNLOAI@error?5reading?5file?6?$AA@ 300a8f34     bg_saberLoad.obj
 0002:0000af48       ??_C@_0CH@GILDEJCA@Saber?5extensions?5?$CI?$CK?4sab?$CJ?5are?5too@ 300a8f48     bg_saberLoad.obj
 0002:0000af70       ??_C@_01EEMJAFIK@?6?$AA@   300a8f70     bg_saberLoad.obj
 0002:0000af78       __real@3f847ae147ae147b    300a8f78     bg_saberLoad.obj
 0002:0000af80       ??_C@_0BB@OIJDKHFE@CFL_MORESABERDMG?$AA@ 300a8f80     bg_saga.obj
 0002:0000af94       ??_C@_0BK@JLDBMALB@CFL_STRONGAGAINSTPHYSICAL?$AA@ 300a8f94     bg_saga.obj
 0002:0000afb0       ??_C@_0BD@DNMLPLIL@CFL_FASTFORCEREGEN?$AA@ 300a8fb0     bg_saga.obj
 0002:0000afc4       ??_C@_0P@DKGINMOP@CFL_STATVIEWER?$AA@ 300a8fc4     bg_saga.obj
 0002:0000afd4       ??_C@_0P@NCLEBEDM@CFL_HEAVYMELEE?$AA@ 300a8fd4     bg_saga.obj
 0002:0000afe4       ??_C@_0BC@LICHKKD@CFL_SINGLE_ROCKET?$AA@ 300a8fe4     bg_saga.obj
 0002:0000aff8       ??_C@_0P@LBJDDHDM@CFL_CUSTOMSKEL?$AA@ 300a8ff8     bg_saga.obj
 0002:0000b008       ??_C@_0P@KICFDAJ@CFL_EXTRA_AMMO?$AA@ 300a9008     bg_saga.obj
 0002:0000b018       ??_C@_07HNCPCIHC@SS_NONE?$AA@ 300a9018     bg_saga.obj
 0002:0000b020       ??_C@_07OKKHAHLD@SS_FAST?$AA@ 300a9020     bg_saga.obj
 0002:0000b028       ??_C@_09JHAJINFA@SS_MEDIUM?$AA@ 300a9028     bg_saga.obj
 0002:0000b034       ??_C@_09EIDFCCBI@SS_STRONG?$AA@ 300a9034     bg_saga.obj
 0002:0000b040       ??_C@_09COLLLEKM@SS_DESANN?$AA@ 300a9040     bg_saga.obj
 0002:0000b04c       ??_C@_09NOGCKHNM@SS_TAVION?$AA@ 300a904c     bg_saga.obj
 0002:0000b058       ??_C@_07NCKFHLFM@SS_DUAL?$AA@ 300a9058     bg_saga.obj
 0002:0000b060       ??_C@_08OKAIMOGC@SS_STAFF?$AA@ 300a9060     bg_saga.obj
 0002:0000b06c       ??_C@_04HIBGFPH@NULL?$AA@  300a906c     bg_saga.obj
 0002:0000b074       ??_C@_07MIINDMBF@WP_NONE?$AA@ 300a9074     bg_saga.obj
 0002:0000b07c       ??_C@_0O@NNFLCPNL@WP_STUN_BATON?$AA@ 300a907c     bg_saga.obj
 0002:0000b08c       ??_C@_08IGDGHABD@WP_MELEE?$AA@ 300a908c     bg_saga.obj
 0002:0000b098       ??_C@_08KPDGEGJN@WP_SABER?$AA@ 300a9098     bg_saga.obj
 0002:0000b0a4       ??_C@_0BA@GBAOKNDN@WP_BRYAR_PISTOL?$AA@ 300a90a4     bg_saga.obj
 0002:0000b0b4       ??_C@_0BC@LEINJGEK@WP_BLASTER_PISTOL?$AA@ 300a90b4     bg_saga.obj
 0002:0000b0c8       ??_C@_0L@DIBFNABM@WP_BLASTER?$AA@ 300a90c8     bg_saga.obj
 0002:0000b0d4       ??_C@_0N@KLINONG@WP_DISRUPTOR?$AA@ 300a90d4     bg_saga.obj
 0002:0000b0e4       ??_C@_0N@ODCPPBBA@WP_BOWCASTER?$AA@ 300a90e4     bg_saga.obj
 0002:0000b0f4       ??_C@_0M@GCNBMEBC@WP_REPEATER?$AA@ 300a90f4     bg_saga.obj
 0002:0000b100       ??_C@_08GDBGMIBE@WP_DEMP2?$AA@ 300a9100     bg_saga.obj
 0002:0000b10c       ??_C@_0N@DNBPCFMC@WP_FLECHETTE?$AA@ 300a910c     bg_saga.obj
 0002:0000b11c       ??_C@_0BD@JBJHCOEB@WP_ROCKET_LAUNCHER?$AA@ 300a911c     bg_saga.obj
 0002:0000b130       ??_C@_0L@COCGCIBD@WP_THERMAL?$AA@ 300a9130     bg_saga.obj
 0002:0000b13c       ??_C@_0N@OGLOKOOO@WP_TRIP_MINE?$AA@ 300a913c     bg_saga.obj
 0002:0000b14c       ??_C@_0M@EOMDDGDC@WP_DET_PACK?$AA@ 300a914c     bg_saga.obj
 0002:0000b158       ??_C@_0O@MNNKJNKC@WP_CONCUSSION?$AA@ 300a9158     bg_saga.obj
 0002:0000b168       ??_C@_0N@OIFGJENP@WP_BRYAR_OLD?$AA@ 300a9168     bg_saga.obj
 0002:0000b178       ??_C@_0BA@HPLIMHOO@WP_EMPLACED_GUN?$AA@ 300a9178     bg_saga.obj
 0002:0000b188       ??_C@_09LJGBHCLN@WP_TURRET?$AA@ 300a9188     bg_saga.obj
 0002:0000b194       ??_C@_07ECPPOEBA@FP_HEAL?$AA@ 300a9194     bg_saga.obj
 0002:0000b19c       ??_C@_0O@GOCMKMCC@FP_LEVITATION?$AA@ 300a919c     bg_saga.obj
 0002:0000b1ac       ??_C@_08MIECCDPD@FP_SPEED?$AA@ 300a91ac     bg_saga.obj
 0002:0000b1b8       ??_C@_07DJLINNNG@FP_PUSH?$AA@ 300a91b8     bg_saga.obj
 0002:0000b1c0       ??_C@_07EKKOPMJP@FP_PULL?$AA@ 300a91c0     bg_saga.obj
 0002:0000b1c8       ??_C@_0N@EOKHLCHN@FP_TELEPATHY?$AA@ 300a91c8     bg_saga.obj
 0002:0000b1d8       ??_C@_07OFAFBAAC@FP_GRIP?$AA@ 300a91d8     bg_saga.obj
 0002:0000b1e0       ??_C@_0N@MLCJOEAL@FP_LIGHTNING?$AA@ 300a91e0     bg_saga.obj
 0002:0000b1f0       ??_C@_07DCICDLJP@FP_RAGE?$AA@ 300a91f0     bg_saga.obj
 0002:0000b1f8       ??_C@_0L@GMEKEMHM@FP_PROTECT?$AA@ 300a91f8     bg_saga.obj
 0002:0000b204       ??_C@_09MANKLPPB@FP_ABSORB?$AA@ 300a9204     bg_saga.obj
 0002:0000b210       ??_C@_0N@MKMKNEAO@FP_TEAM_HEAL?$AA@ 300a9210     bg_saga.obj
 0002:0000b220       ??_C@_0O@FDDGJKAO@FP_TEAM_FORCE?$AA@ 300a9220     bg_saga.obj
 0002:0000b230       ??_C@_08NAMGMEAJ@FP_DRAIN?$AA@ 300a9230     bg_saga.obj
 0002:0000b23c       ??_C@_06NBGCGEAI@FP_SEE?$AA@ 300a923c     bg_saga.obj
 0002:0000b244       ??_C@_0BB@IIFNHLOA@FP_SABER_OFFENSE?$AA@ 300a9244     bg_saga.obj
 0002:0000b258       ??_C@_0BB@OENPHNCL@FP_SABER_DEFENSE?$AA@ 300a9258     bg_saga.obj
 0002:0000b26c       ??_C@_0O@HFIJJPHA@FP_SABERTHROW?$AA@ 300a926c     bg_saga.obj
 0002:0000b27c       ??_C@_07JPFAMGIP@HI_NONE?$AA@ 300a927c     bg_saga.obj
 0002:0000b284       ??_C@_09FNJEOG@HI_SEEKER?$AA@ 300a9284     bg_saga.obj
 0002:0000b290       ??_C@_09IKKFJDFC@HI_SHIELD?$AA@ 300a9290     bg_saga.obj
 0002:0000b29c       ??_C@_09NJBEABJH@HI_MEDPAC?$AA@ 300a929c     bg_saga.obj
 0002:0000b2a8       ??_C@_0O@LLNJKJCO@HI_MEDPAC_BIG?$AA@ 300a92a8     bg_saga.obj
 0002:0000b2b8       ??_C@_0O@ELJADNKI@HI_BINOCULARS?$AA@ 300a92b8     bg_saga.obj
 0002:0000b2c8       ??_C@_0O@FBGGHEEG@HI_SENTRY_GUN?$AA@ 300a92c8     bg_saga.obj
 0002:0000b2d8       ??_C@_0L@HECMIPKK@HI_JETPACK?$AA@ 300a92d8     bg_saga.obj
 0002:0000b2e4       ??_C@_0O@CACPKEEP@HI_HEALTHDISP?$AA@ 300a92e4     bg_saga.obj
 0002:0000b2f4       ??_C@_0M@GINCEKMK@HI_AMMODISP?$AA@ 300a92f4     bg_saga.obj
 0002:0000b300       ??_C@_07DODJPBMI@HI_EWEB?$AA@ 300a9300     bg_saga.obj
 0002:0000b308       ??_C@_08CKJOPOAO@HI_CLOAK?$AA@ 300a9308     bg_saga.obj
 0002:0000b314       ??_C@_07HOPALIC@PW_NONE?$AA@ 300a9314     bg_saga.obj
 0002:0000b31c       ??_C@_07MILMMKFG@PW_QUAD?$AA@ 300a931c     bg_saga.obj
 0002:0000b324       ??_C@_0O@MMBFHIEB@PW_BATTLESUIT?$AA@ 300a9324     bg_saga.obj
 0002:0000b334       ??_C@_07DFNNPKLN@PW_PULL?$AA@ 300a9334     bg_saga.obj
 0002:0000b33c       ??_C@_0L@EHANBCOH@PW_REDFLAG?$AA@ 300a933c     bg_saga.obj
 0002:0000b348       ??_C@_0M@MJPEKDEL@PW_BLUEFLAG?$AA@ 300a9348     bg_saga.obj
 0002:0000b354       ??_C@_0P@IBLDCDDO@PW_NEUTRALFLAG?$AA@ 300a9354     bg_saga.obj
 0002:0000b364       ??_C@_0N@GHPJGBHC@PW_SHIELDHIT?$AA@ 300a9364     bg_saga.obj
 0002:0000b374       ??_C@_0O@ENGHHLHL@PW_SPEEDBURST?$AA@ 300a9374     bg_saga.obj
 0002:0000b384       ??_C@_0M@FBGLLBBK@PW_DISINT_4?$AA@ 300a9384     bg_saga.obj
 0002:0000b390       ??_C@_08BNFNBBBB@PW_SPEED?$AA@ 300a9390     bg_saga.obj
 0002:0000b39c       ??_C@_0L@LJAIJPE@PW_CLOAKED?$AA@ 300a939c     bg_saga.obj
 0002:0000b3a8       ??_C@_0BL@EBGCPDCI@PW_FORCE_ENLIGHTENED_LIGHT?$AA@ 300a93a8     bg_saga.obj
 0002:0000b3c4       ??_C@_0BK@MOILIMDA@PW_FORCE_ENLIGHTENED_DARK?$AA@ 300a93c4     bg_saga.obj
 0002:0000b3e0       ??_C@_0O@IGDAJBEG@PW_FORCE_BOON?$AA@ 300a93e0     bg_saga.obj
 0002:0000b3f0       ??_C@_0N@POBOEFDG@PW_YSALAMIRI?$AA@ 300a93f0     bg_saga.obj
 0002:0000b400       ??_C@_08GMEOELGB@infantry?$AA@ 300a9400     bg_saga.obj
 0002:0000b40c       ??_C@_08KMDKBEDF@vanguard?$AA@ 300a940c     bg_saga.obj
 0002:0000b418       ??_C@_07ILMBEDPO@support?$AA@ 300a9418     bg_saga.obj
 0002:0000b420       ??_C@_0N@DFCFOLOG@jedi_general?$AA@ 300a9420     bg_saga.obj
 0002:0000b430       ??_C@_0O@FEHNADND@demolitionist?$AA@ 300a9430     bg_saga.obj
 0002:0000b440       ??_C@_0O@OALEAKPJ@heavy_weapons?$AA@ 300a9440     bg_saga.obj
 0002:0000b450       ??_C@_0EE@DLMGDLJO@BG_GetNextValueGroup?5couldn?8t?5fi@ 300a9450     bg_saga.obj
 0002:0000b494       ??_C@_0CM@DMIPCGDB@Unexpected?5EOF?5while?5looking?5for@ 300a9494     bg_saga.obj
 0002:0000b4c0       ??_C@_0FA@EHNNLFND@Found?5a?5closing?5bracket?5without?5@ 300a94c0     bg_saga.obj
 0002:0000b510       ??_C@_0CI@BBIKCBO@Group?5?8?$CFs?8?5is?5missing?5a?5closing?5@ 300a9510     bg_saga.obj
 0002:0000b538       ??_C@_0GA@DIGHOEOC@Error?5parsing?5group?5in?5file?0?5une@ 300a9538     bg_saga.obj
 0002:0000b598       ??_C@_0FJ@KOGMAIHK@Found?5an?5opening?5bracket?5without@ 300a9598     bg_saga.obj
 0002:0000b5f8       ??_C@_0EJ@GJJGBCAC@Unexpected?5closing?5bracket?5?$CItoo?5@ 300a95f8     bg_saga.obj
 0002:0000b648       ??_C@_0EP@OCHOIPPN@Unexpected?5EOF?5while?5looking?5for@ 300a9648     bg_saga.obj
 0002:0000b698       ??_C@_0FH@PHDPJEBI@Unexpected?5EOF?5while?5looking?5for@ 300a9698     bg_saga.obj
 0002:0000b6f0       ??_C@_0EA@CICFFHLL@Error?5parsing?5file?0?5unexpected?5E@ 300a96f0     bg_saga.obj
 0002:0000b730       ??_C@_0DL@MANGCKOJ@Error?5parsing?5file?0?5found?5commen@ 300a9730     bg_saga.obj
 0002:0000b76c       ??_C@_06PFGBHLNK@FP_ALL?$AA@ 300a976c     bg_saga.obj
 0002:0000b774       ??_C@_07IHELEENG@FP_JUMP?$AA@ 300a9774     bg_saga.obj
 0002:0000b77c       ??_C@_0M@PPJNHBMP@description?$AA@ 300a977c     bg_saga.obj
 0002:0000b788       ??_C@_0BI@JBHHAHFA@DESCRIPTION?5UNAVAILABLE?$AA@ 300a9788     bg_saga.obj
 0002:0000b7a0       ??_C@_09LPPNDGJE@ClassInfo?$AA@ 300a97a0     bg_saga.obj
 0002:0000b7ac       ??_C@_0BP@JPFHBDB@Siege?5class?5without?5name?5entry?$AA@ 300a97ac     bg_saga.obj
 0002:0000b7cc       ??_C@_05NCCFOPHA@model?$AA@ 300a97cc     bg_saga.obj
 0002:0000b7d4       ??_C@_04NHPAFEHJ@skin?$AA@ 300a97d4     bg_saga.obj
 0002:0000b7dc       ??_C@_06CJJKOFI@saber1?$AA@ 300a97dc     bg_saga.obj
 0002:0000b7e4       ??_C@_06CJLEPNJL@saber2?$AA@ 300a97e4     bg_saga.obj
 0002:0000b7ec       ??_C@_0L@JCGAKIIA@saberstyle?$AA@ 300a97ec     bg_saga.obj
 0002:0000b7f8       ??_C@_0L@OGIEJBOK@sabercolor?$AA@ 300a97f8     bg_saga.obj
 0002:0000b804       ??_C@_0M@OOLLFDOG@saber2color?$AA@ 300a9804     bg_saga.obj
 0002:0000b810       ??_C@_07PKKCMMCH@weapons?$AA@ 300a9810     bg_saga.obj
 0002:0000b818       ??_C@_0CC@FAKKFGGN@Siege?5class?5without?5weapons?5entr@ 300a9818     bg_saga.obj
 0002:0000b83c       ??_C@_0M@IOJHBENM@forcepowers?$AA@ 300a983c     bg_saga.obj
 0002:0000b848       ??_C@_0L@GKKNICAL@classflags?$AA@ 300a9848     bg_saga.obj
 0002:0000b854       ??_C@_09MHNPKMIF@maxhealth?$AA@ 300a9854     bg_saga.obj
 0002:0000b860       ??_C@_0M@JKHBPLJM@starthealth?$AA@ 300a9860     bg_saga.obj
 0002:0000b86c       ??_C@_08KAGIGECM@maxarmor?$AA@ 300a986c     bg_saga.obj
 0002:0000b878       ??_C@_0L@GGCEHPNG@startarmor?$AA@ 300a9878     bg_saga.obj
 0002:0000b884       ??_C@_05HJCMGBKF@speed?$AA@ 300a9884     bg_saga.obj
 0002:0000b88c       ??_C@_08BGECLNMM@uishader?$AA@ 300a988c     bg_saga.obj
 0002:0000b898       ??_C@_0CD@GDIFDMKP@Siege?5class?5without?5uishader?5ent@ 300a9898     bg_saga.obj
 0002:0000b8bc       ??_C@_0N@NNMCCMOK@class_shader?$AA@ 300a98bc     bg_saga.obj
 0002:0000b8cc       ??_C@_0DE@BHILLBOP@ERROR?3?5could?5not?5find?5class_shad@ 300a98cc     bg_saga.obj
 0002:0000b900       ??_C@_0CN@HKDFKNIC@ERROR?3?5no?5class_shader?5defined?5f@ 300a9900     bg_saga.obj
 0002:0000b930       ??_C@_09LOIGNDON@holdables?$AA@ 300a9930     bg_saga.obj
 0002:0000b93c       ??_C@_08BOHIELLL@powerups?$AA@ 300a993c     bg_saga.obj
 0002:0000b948       ??_C@_04LNHPMHCH@?4scl?$AA@ 300a9948     bg_saga.obj
 0002:0000b950       ??_C@_0BH@NCMEBBFN@ext_data?1Siege?1Classes?$AA@ 300a9950     bg_saga.obj
 0002:0000b968       ??_C@_0BI@HBENBDF@ext_data?1Siege?1Classes?1?$AA@ 300a9968     bg_saga.obj
 0002:0000b980       ??_C@_0CD@FDGFFIBB@Siege?5team?5with?5no?5name?5definiti@ 300a9980     bg_saga.obj
 0002:0000b9a4       ??_C@_0P@JEMEFMOF@FriendlyShader?$AA@ 300a99a4     bg_saga.obj
 0002:0000b9b4       ??_C@_07DPIHKJGF@Classes?$AA@ 300a99b4     bg_saga.obj
 0002:0000b9bc       ??_C@_07GEGLMCI@class?$CFi?$AA@ 300a99bc     bg_saga.obj
 0002:0000b9c4       ??_C@_0BO@LFIIBAMC@Invalid?5class?5specified?3?5?8?$CFs?8?$AA@ 300a99c4     bg_saga.obj
 0002:0000b9e4       ??_C@_0CI@JBGGEKDP@Team?5defined?5with?5no?5allowable?5c@ 300a99e4     bg_saga.obj
 0002:0000ba0c       ??_C@_05OKHHMPNJ@?4team?$AA@ 300a9a0c     bg_saga.obj
 0002:0000ba14       ??_C@_0BF@KACDOLPP@ext_data?1Siege?1Teams?$AA@ 300a9a14     bg_saga.obj
 0002:0000ba2c       ??_C@_0BG@DPLOPEAL@ext_data?1Siege?1Teams?1?$AA@ 300a9a2c     bg_saga.obj
 0002:0000ba44       ??_C@_0BE@FLPNHHPN@?$CFi?3bend?5can?8t?5step?6?$AA@ 300a9a44     bg_slidemove.obj
 0002:0000ba58       ??_C@_0M@CDHDENEF@?$CFi?3stepped?6?$AA@ 300a9a58     bg_slidemove.obj
 0002:0000ba64       __real@41300000            300a9a64     bg_slidemove.obj
 0002:0000ba68       __real@42340000            300a9a68     bg_slidemove.obj
 0002:0000ba6c       __real@42840000            300a9a6c     bg_slidemove.obj
 0002:0000ba70       __real@44fa0000            300a9a70     bg_slidemove.obj
 0002:0000ba74       __real@c2c80000            300a9a74     bg_slidemove.obj
 0002:0000ba78       ??_C@_0L@BOMCPGNF@projectile?$AA@ 300a9a78     bg_vehicleLoad.obj
 0002:0000ba84       ??_C@_0L@IPNKNAOM@hasGravity?$AA@ 300a9a84     bg_vehicleLoad.obj
 0002:0000ba90       ??_C@_09LOOPDJEK@ionWeapon?$AA@ 300a9a90     bg_vehicleLoad.obj
 0002:0000ba9c       ??_C@_0P@MLELMPKF@saberBlockable?$AA@ 300a9a9c     bg_vehicleLoad.obj
 0002:0000baac       ??_C@_08OEIEAIMH@muzzleFX?$AA@ 300a9aac     bg_vehicleLoad.obj
 0002:0000bab8       ??_C@_06KCPOJGHJ@shotFX?$AA@ 300a9ab8     bg_vehicleLoad.obj
 0002:0000bac0       ??_C@_08LBKCHJGI@impactFX?$AA@ 300a9ac0     bg_vehicleLoad.obj
 0002:0000bacc       ??_C@_0N@LOKNPDPD@g2MarkShader?$AA@ 300a9acc     bg_vehicleLoad.obj
 0002:0000badc       ??_C@_0L@NDLIJKLF@g2MarkSize?$AA@ 300a9adc     bg_vehicleLoad.obj
 0002:0000bae8       ??_C@_09DPJGNNNM@loopSound?$AA@ 300a9ae8     bg_vehicleLoad.obj
 0002:0000baf4       ??_C@_06GMBBIPLD@homing?$AA@ 300a9af4     bg_vehicleLoad.obj
 0002:0000bafc       ??_C@_09DIOLNDJN@homingFOV?$AA@ 300a9afc     bg_vehicleLoad.obj
 0002:0000bb08       ??_C@_0L@FFLAGJDE@lockOnTime?$AA@ 300a9b08     bg_vehicleLoad.obj
 0002:0000bb14       ??_C@_06GJOIPFFF@damage?$AA@ 300a9b14     bg_vehicleLoad.obj
 0002:0000bb1c       ??_C@_0M@EIOFGFCL@ammoPerShot?$AA@ 300a9b1c     bg_vehicleLoad.obj
 0002:0000bb28       ??_C@_06KJINILIP@health?$AA@ 300a9b28     bg_vehicleLoad.obj
 0002:0000bb30       ??_C@_05IGKADHGO@width?$AA@ 300a9b30     bg_vehicleLoad.obj
 0002:0000bb38       ??_C@_06LNLHEAAG@height?$AA@ 300a9b38     bg_vehicleLoad.obj
 0002:0000bb40       ??_C@_08MOKDPMFA@lifetime?$AA@ 300a9b40     bg_vehicleLoad.obj
 0002:0000bb4c       ??_C@_0BA@KPKBCLLA@explodeOnExpire?$AA@ 300a9b4c     bg_vehicleLoad.obj
 0002:0000bb5c       ??_C@_04GPMDFGEJ@type?$AA@ 300a9b5c     bg_vehicleLoad.obj
 0002:0000bb64       ??_C@_08FEOKBMLD@numHands?$AA@ 300a9b64     bg_vehicleLoad.obj
 0002:0000bb70       ??_C@_09EPEKCJNM@lookPitch?$AA@ 300a9b70     bg_vehicleLoad.obj
 0002:0000bb7c       ??_C@_07OIEJFMLD@lookYaw?$AA@ 300a9b7c     bg_vehicleLoad.obj
 0002:0000bb84       ??_C@_06IJDLPEM@length?$AA@ 300a9b84     bg_vehicleLoad.obj
 0002:0000bb8c       ??_C@_0BA@BPLGJHPJ@centerOfGravity?$AA@ 300a9b8c     bg_vehicleLoad.obj
 0002:0000bb9c       ??_C@_08FGAAHLPO@speedMax?$AA@ 300a9b9c     bg_vehicleLoad.obj
 0002:0000bba8       ??_C@_0L@MLDLGLOI@turboSpeed?$AA@ 300a9ba8     bg_vehicleLoad.obj
 0002:0000bbb4       ??_C@_08EEILJPJB@speedMin?$AA@ 300a9bb4     bg_vehicleLoad.obj
 0002:0000bbc0       ??_C@_09JLKIBNNM@speedIdle?$AA@ 300a9bc0     bg_vehicleLoad.obj
 0002:0000bbcc       ??_C@_09HICLJFH@accelIdle?$AA@ 300a9bcc     bg_vehicleLoad.obj
 0002:0000bbd8       ??_C@_0N@OKFAMOHD@acceleration?$AA@ 300a9bd8     bg_vehicleLoad.obj
 0002:0000bbe8       ??_C@_09JCLBALJJ@decelIdle?$AA@ 300a9be8     bg_vehicleLoad.obj
 0002:0000bbf4       ??_C@_0P@HHEMMPFK@throttleSticks?$AA@ 300a9bf4     bg_vehicleLoad.obj
 0002:0000bc04       ??_C@_0L@FDBPLPOD@strafePerc?$AA@ 300a9c04     bg_vehicleLoad.obj
 0002:0000bc10       ??_C@_0N@ENHLHJGE@bankingSpeed?$AA@ 300a9c10     bg_vehicleLoad.obj
 0002:0000bc20       ??_C@_0L@CFHLLIPB@pitchLimit?$AA@ 300a9c20     bg_vehicleLoad.obj
 0002:0000bc2c       ??_C@_09IPOAKDJE@rollLimit?$AA@ 300a9c2c     bg_vehicleLoad.obj
 0002:0000bc38       ??_C@_07HAHFHPDC@braking?$AA@ 300a9c38     bg_vehicleLoad.obj
 0002:0000bc40       ??_C@_08EAELEJGF@mouseYaw?$AA@ 300a9c40     bg_vehicleLoad.obj
 0002:0000bc4c       ??_C@_0L@PFPFAHKM@mousePitch?$AA@ 300a9c4c     bg_vehicleLoad.obj
 0002:0000bc58       ??_C@_0N@BEECELKI@turningSpeed?$AA@ 300a9c58     bg_vehicleLoad.obj
 0002:0000bc68       ??_C@_0BA@DEALIFEA@turnWhenStopped?$AA@ 300a9c68     bg_vehicleLoad.obj
 0002:0000bc78       ??_C@_08LOEOBHC@traction?$AA@ 300a9c78     bg_vehicleLoad.obj
 0002:0000bc84       ??_C@_08LKDNMFOC@friction?$AA@ 300a9c84     bg_vehicleLoad.obj
 0002:0000bc90       ??_C@_08IOPKEDDJ@maxSlope?$AA@ 300a9c90     bg_vehicleLoad.obj
 0002:0000bc9c       ??_C@_0BG@HOKPMJKB@speedDependantTurning?$AA@ 300a9c9c     bg_vehicleLoad.obj
 0002:0000bcb4       ??_C@_04IJEANHEE@mass?$AA@ 300a9cb4     bg_vehicleLoad.obj
 0002:0000bcbc       ??_C@_05JJEJIJLL@armor?$AA@ 300a9cbc     bg_vehicleLoad.obj
 0002:0000bcc4       ??_C@_07EEEOBDLK@shields?$AA@ 300a9cc4     bg_vehicleLoad.obj
 0002:0000bccc       ??_C@_0BB@BMKKPECK@shieldRechargeMS?$AA@ 300a9ccc     bg_vehicleLoad.obj
 0002:0000bce0       ??_C@_09FGFEKOJH@toughness?$AA@ 300a9ce0     bg_vehicleLoad.obj
 0002:0000bcec       ??_C@_0BG@ICOPODEK@malfunctionArmorLevel?$AA@ 300a9cec     bg_vehicleLoad.obj
 0002:0000bd04       ??_C@_0BA@PLDNJPJN@surfDestruction?$AA@ 300a9d04     bg_vehicleLoad.obj
 0002:0000bd14       ??_C@_08CCPHKHEL@g2radius?$AA@ 300a9d14     bg_vehicleLoad.obj
 0002:0000bd20       ??_C@_09PMPDIAJG@riderAnim?$AA@ 300a9d20     bg_vehicleLoad.obj
 0002:0000bd2c       ??_C@_08EJIADHP@droidNPC?$AA@ 300a9d2c     bg_vehicleLoad.obj
 0002:0000bd38       ??_C@_09FONOLKPA@radarIcon?$AA@ 300a9d38     bg_vehicleLoad.obj
 0002:0000bd44       ??_C@_0O@DJHCJKGN@dmgIndicFrame?$AA@ 300a9d44     bg_vehicleLoad.obj
 0002:0000bd54       ??_C@_0P@FPBFALOJ@dmgIndicShield?$AA@ 300a9d54     bg_vehicleLoad.obj
 0002:0000bd64       ??_C@_0BD@KLFJKOII@dmgIndicBackground?$AA@ 300a9d64     bg_vehicleLoad.obj
 0002:0000bd78       ??_C@_0L@CBPHNOBK@icon_front?$AA@ 300a9d78     bg_vehicleLoad.obj
 0002:0000bd84       ??_C@_09NHADEJIB@icon_back?$AA@ 300a9d84     bg_vehicleLoad.obj
 0002:0000bd90       ??_C@_0L@GPLJGMFJ@icon_right?$AA@ 300a9d90     bg_vehicleLoad.obj
 0002:0000bd9c       ??_C@_09CMMAKMMC@icon_left?$AA@ 300a9d9c     bg_vehicleLoad.obj
 0002:0000bda8       ??_C@_0BA@FMKKHFFJ@crosshairShader?$AA@ 300a9da8     bg_vehicleLoad.obj
 0002:0000bdb8       ??_C@_0N@JONDFKLC@shieldShader?$AA@ 300a9db8     bg_vehicleLoad.obj
 0002:0000bdc8       ??_C@_0N@CDHFELM@health_front?$AA@ 300a9dc8     bg_vehicleLoad.obj
 0002:0000bdd8       ??_C@_0M@MOOOFAHG@health_back?$AA@ 300a9dd8     bg_vehicleLoad.obj
 0002:0000bde4       ??_C@_0N@EMHJOGPP@health_right?$AA@ 300a9de4     bg_vehicleLoad.obj
 0002:0000bdf4       ??_C@_0M@DFCNLFDF@health_left?$AA@ 300a9df4     bg_vehicleLoad.obj
 0002:0000be00       ??_C@_0N@JPGBMOIF@soundTakeOff?$AA@ 300a9e00     bg_vehicleLoad.obj
 0002:0000be10       ??_C@_0BB@GGMAFHFB@soundEngineStart?$AA@ 300a9e10     bg_vehicleLoad.obj
 0002:0000be24       ??_C@_09IGHJKBGG@soundSpin?$AA@ 300a9e24     bg_vehicleLoad.obj
 0002:0000be30       ??_C@_0L@BNNFFMJG@soundTurbo?$AA@ 300a9e30     bg_vehicleLoad.obj
 0002:0000be3c       ??_C@_0L@PMBLMBGF@soundHyper?$AA@ 300a9e3c     bg_vehicleLoad.obj
 0002:0000be48       ??_C@_09HDMMGPMA@soundLand?$AA@ 300a9e48     bg_vehicleLoad.obj
 0002:0000be54       ??_C@_0L@MNOPHOMD@soundFlyBy?$AA@ 300a9e54     bg_vehicleLoad.obj
 0002:0000be60       ??_C@_0M@OPNACIAF@soundFlyBy2?$AA@ 300a9e60     bg_vehicleLoad.obj
 0002:0000be6c       ??_C@_0M@CNOCLGAB@soundShift1?$AA@ 300a9e6c     bg_vehicleLoad.obj
 0002:0000be78       ??_C@_0M@GMPOFMC@soundShift2?$AA@ 300a9e78     bg_vehicleLoad.obj
 0002:0000be84       ??_C@_0M@BPNENEID@soundShift3?$AA@ 300a9e84     bg_vehicleLoad.obj
 0002:0000be90       ??_C@_0M@FAJFECEE@soundShift4?$AA@ 300a9e90     bg_vehicleLoad.obj
 0002:0000be9c       ??_C@_09EJLKNCKH@exhaustFX?$AA@ 300a9e9c     bg_vehicleLoad.obj
 0002:0000bea8       ??_C@_07MMLPAJOM@turboFX?$AA@ 300a9ea8     bg_vehicleLoad.obj
 0002:0000beb0       ??_C@_0N@KHLFFGCJ@turboStartFX?$AA@ 300a9eb0     bg_vehicleLoad.obj
 0002:0000bec0       ??_C@_07OJDPNJKI@trailFX?$AA@ 300a9ec0     bg_vehicleLoad.obj
 0002:0000bec8       ??_C@_09BPBLMDGM@explodeFX?$AA@ 300a9ec8     bg_vehicleLoad.obj
 0002:0000bed4       ??_C@_06GMJLHFJI@wakeFX?$AA@ 300a9ed4     bg_vehicleLoad.obj
 0002:0000bedc       ??_C@_05BMHOEJHI@dmgFX?$AA@ 300a9edc     bg_vehicleLoad.obj
 0002:0000bee4       ??_C@_08NBOBHDEO@injureFX?$AA@ 300a9ee4     bg_vehicleLoad.obj
 0002:0000bef0       ??_C@_06PEEHBBLG@noseFX?$AA@ 300a9ef0     bg_vehicleLoad.obj
 0002:0000bef8       ??_C@_07JNCLAFON@lwingFX?$AA@ 300a9ef8     bg_vehicleLoad.obj
 0002:0000bf00       ??_C@_07PEBKCGPE@rwingFX?$AA@ 300a9f00     bg_vehicleLoad.obj
 0002:0000bf08       ??_C@_05BIPOGEJM@weap1?$AA@ 300a9f08     bg_vehicleLoad.obj
 0002:0000bf10       ??_C@_05DDNDDHFP@weap2?$AA@ 300a9f10     bg_vehicleLoad.obj
 0002:0000bf18       ??_C@_0L@JOPAPHJC@weap1Delay?$AA@ 300a9f18     bg_vehicleLoad.obj
 0002:0000bf24       ??_C@_0L@KPBIONAP@weap2Delay?$AA@ 300a9f24     bg_vehicleLoad.obj
 0002:0000bf30       ??_C@_09DOHGDAAC@weap1Link?$AA@ 300a9f30     bg_vehicleLoad.obj
 0002:0000bf3c       ??_C@_09LIOCECKM@weap2Link?$AA@ 300a9f3c     bg_vehicleLoad.obj
 0002:0000bf48       ??_C@_08BLGAOKCJ@weap1Aim?$AA@ 300a9f48     bg_vehicleLoad.obj
 0002:0000bf54       ??_C@_08FMMAJAPJ@weap2Aim?$AA@ 300a9f54     bg_vehicleLoad.obj
 0002:0000bf60       ??_C@_0N@LOHHABAP@weap1AmmoMax?$AA@ 300a9f60     bg_vehicleLoad.obj
 0002:0000bf70       ??_C@_0N@IHPKDNMK@weap2AmmoMax?$AA@ 300a9f70     bg_vehicleLoad.obj
 0002:0000bf80       ??_C@_0BE@DHCAAGBM@weap1AmmoRechargeMS?$AA@ 300a9f80     bg_vehicleLoad.obj
 0002:0000bf94       ??_C@_0BE@BOOILCOO@weap2AmmoRechargeMS?$AA@ 300a9f94     bg_vehicleLoad.obj
 0002:0000bfa8       ??_C@_0BB@EBOBGHDB@weap1SoundNoAmmo?$AA@ 300a9fa8     bg_vehicleLoad.obj
 0002:0000bfbc       ??_C@_0BB@PMCLALPP@weap2SoundNoAmmo?$AA@ 300a9fbc     bg_vehicleLoad.obj
 0002:0000bfd0       ??_C@_0M@NHFPHPLB@weapMuzzle1?$AA@ 300a9fd0     bg_vehicleLoad.obj
 0002:0000bfdc       ??_C@_0M@PMHCCMHC@weapMuzzle2?$AA@ 300a9fdc     bg_vehicleLoad.obj
 0002:0000bfe8       ??_C@_0M@OFGJBNDD@weapMuzzle3?$AA@ 300a9fe8     bg_vehicleLoad.obj
 0002:0000bff4       ??_C@_0M@KKCIILPE@weapMuzzle4?$AA@ 300a9ff4     bg_vehicleLoad.obj
 0002:0000c000       ??_C@_0M@LDDDLKLF@weapMuzzle5?$AA@ 300aa000     bg_vehicleLoad.obj
 0002:0000c00c       ??_C@_0M@JIBOOJHG@weapMuzzle6?$AA@ 300aa00c     bg_vehicleLoad.obj
 0002:0000c018       ??_C@_0M@IBAFNIDH@weapMuzzle7?$AA@ 300aa018     bg_vehicleLoad.obj
 0002:0000c024       ??_C@_0M@GJNMEPI@weapMuzzle8?$AA@ 300aa024     bg_vehicleLoad.obj
 0002:0000c030       ??_C@_0M@BPIGPFLJ@weapMuzzle9?$AA@ 300aa030     bg_vehicleLoad.obj
 0002:0000c03c       ??_C@_0N@GDPHOKJG@weapMuzzle10?$AA@ 300aa03c     bg_vehicleLoad.obj
 0002:0000c04c       ??_C@_0O@JIDEEHO@landingHeight?$AA@ 300aa04c     bg_vehicleLoad.obj
 0002:0000c05c       ??_C@_07GFBFDLBM@gravity?$AA@ 300aa05c     bg_vehicleLoad.obj
 0002:0000c064       ??_C@_0M@HKBHLPFK@hoverHeight?$AA@ 300aa064     bg_vehicleLoad.obj
 0002:0000c070       ??_C@_0O@JOCPMJAA@hoverStrength?$AA@ 300aa070     bg_vehicleLoad.obj
 0002:0000c080       ??_C@_0L@KPACIHBI@waterProof?$AA@ 300aa080     bg_vehicleLoad.obj
 0002:0000c08c       ??_C@_08DLBCDKOK@bouyancy?$AA@ 300aa08c     bg_vehicleLoad.obj
 0002:0000c098       ??_C@_07PBHPKAIK@fuelMax?$AA@ 300aa098     bg_vehicleLoad.obj
 0002:0000c0a0       ??_C@_08POLMHDEL@fuelRate?$AA@ 300aa0a0     bg_vehicleLoad.obj
 0002:0000c0ac       ??_C@_0O@LHGBPOCO@turboDuration?$AA@ 300aa0ac     bg_vehicleLoad.obj
 0002:0000c0bc       ??_C@_0O@DAFJHCFD@turboRecharge?$AA@ 300aa0bc     bg_vehicleLoad.obj
 0002:0000c0cc       ??_C@_0L@CNKMJODB@visibility?$AA@ 300aa0cc     bg_vehicleLoad.obj
 0002:0000c0d8       ??_C@_08PPAAKLBH@loudness?$AA@ 300aa0d8     bg_vehicleLoad.obj
 0002:0000c0e4       ??_C@_0BA@LKLGPLNG@explosionRadius?$AA@ 300aa0e4     bg_vehicleLoad.obj
 0002:0000c0f4       ??_C@_0BA@HFCGNKHF@explosionDamage?$AA@ 300aa0f4     bg_vehicleLoad.obj
 0002:0000c104       ??_C@_0O@NGNHGBJN@maxPassengers?$AA@ 300aa104     bg_vehicleLoad.obj
 0002:0000c114       ??_C@_09JBJPOHNK@hideRider?$AA@ 300aa114     bg_vehicleLoad.obj
 0002:0000c120       ??_C@_0BB@PDHEMPIJ@killRiderOnDeath?$AA@ 300aa120     bg_vehicleLoad.obj
 0002:0000c134       ??_C@_09FEKLMMFJ@flammable?$AA@ 300aa134     bg_vehicleLoad.obj
 0002:0000c140       ??_C@_0P@OINMICGP@explosionDelay?$AA@ 300aa140     bg_vehicleLoad.obj
 0002:0000c150       ??_C@_0BL@MPFJFOIP@VehicleMovementModesActive?$AA@ 300aa150     bg_vehicleLoad.obj
 0002:0000c16c       ??_C@_0BF@GPMLJGFL@MBFstopprimaryfiring?$AA@ 300aa16c     bg_vehicleLoad.obj
 0002:0000c184       ??_C@_0BB@LGKMCAAB@MBFstopaltfiring?$AA@ 300aa184     bg_vehicleLoad.obj
 0002:0000c198       ??_C@_0BC@HAFDLJBA@MBFdisableshields?$AA@ 300aa198     bg_vehicleLoad.obj
 0002:0000c1ac       ??_C@_0BE@INPBIKLG@CantKnockoutShields?$AA@ 300aa1ac     bg_vehicleLoad.obj
 0002:0000c1c0       ??_C@_0BK@HMHIDDFE@AllWeaponsDoDamageToArmor?$AA@ 300aa1c0     bg_vehicleLoad.obj
 0002:0000c1dc       ??_C@_0BM@LGBMEDDK@AllWeaponsDoDamageToShields?$AA@ 300aa1dc     bg_vehicleLoad.obj
 0002:0000c1f8       ??_C@_0P@PMEODJBE@ResistsMarking?$AA@ 300aa1f8     bg_vehicleLoad.obj
 0002:0000c208       ??_C@_0BM@FOOHJKCD@SpeedMultiplierForRamDamage?$AA@ 300aa208     bg_vehicleLoad.obj
 0002:0000c224       ??_C@_0P@FFKEJJLI@CloakingDevice?$AA@ 300aa224     bg_vehicleLoad.obj
 0002:0000c234       ??_C@_0BG@PFPCOFJB@CloakingDeviceOnSound?$AA@ 300aa234     bg_vehicleLoad.obj
 0002:0000c24c       ??_C@_0BH@HMLFHDGJ@CloakingDeviceOffSound?$AA@ 300aa24c     bg_vehicleLoad.obj
 0002:0000c264       ??_C@_0P@GNOAPEOI@cameraOverride?$AA@ 300aa264     bg_vehicleLoad.obj
 0002:0000c274       ??_C@_0M@NABKGBHB@cameraRange?$AA@ 300aa274     bg_vehicleLoad.obj
 0002:0000c280       ??_C@_0BB@JIEFMMG@cameraVertOffset?$AA@ 300aa280     bg_vehicleLoad.obj
 0002:0000c294       ??_C@_0BB@PHKMDBPA@cameraHorzOffset?$AA@ 300aa294     bg_vehicleLoad.obj
 0002:0000c2a8       ??_C@_0BC@HAMFPJAF@cameraPitchOffset?$AA@ 300aa2a8     bg_vehicleLoad.obj
 0002:0000c2bc       ??_C@_09DEDNKOMM@cameraFOV?$AA@ 300aa2bc     bg_vehicleLoad.obj
 0002:0000c2c8       ??_C@_0M@HCDOHHGA@cameraAlpha?$AA@ 300aa2c8     bg_vehicleLoad.obj
 0002:0000c2d4       ??_C@_0BP@GIMDHKNG@cameraPitchDependantVertOffset?$AA@ 300aa2d4     bg_vehicleLoad.obj
 0002:0000c2f4       ??_C@_0M@KPBBIBLI@turret1Weap?$AA@ 300aa2f4     bg_vehicleLoad.obj
 0002:0000c300       ??_C@_0N@FBCEIJCP@turret1Delay?$AA@ 300aa300     bg_vehicleLoad.obj
 0002:0000c310       ??_C@_0P@FIKBECBF@turret1AmmoMax?$AA@ 300aa310     bg_vehicleLoad.obj
 0002:0000c320       ??_C@_0BG@IIODCJED@turret1AmmoRechargeMS?$AA@ 300aa320     bg_vehicleLoad.obj
 0002:0000c338       ??_C@_0P@FFEIIECD@turret1YawBone?$AA@ 300aa338     bg_vehicleLoad.obj
 0002:0000c348       ??_C@_0BB@NILOLCBI@turret1PitchBone?$AA@ 300aa348     bg_vehicleLoad.obj
 0002:0000c35c       ??_C@_0P@MGPBDCIH@turret1YawAxis?$AA@ 300aa35c     bg_vehicleLoad.obj
 0002:0000c36c       ??_C@_0BB@ELAHAELM@turret1PitchAxis?$AA@ 300aa36c     bg_vehicleLoad.obj
 0002:0000c380       ??_C@_0BB@HFAPNPOM@turret1ClampYawL?$AA@ 300aa380     bg_vehicleLoad.obj
 0002:0000c394       ??_C@_0BB@KBEOOADD@turret1ClampYawR?$AA@ 300aa394     bg_vehicleLoad.obj
 0002:0000c3a8       ??_C@_0BD@KDJFDHCF@turret1ClampPitchU?$AA@ 300aa3a8     bg_vehicleLoad.obj
 0002:0000c3bc       ??_C@_0BD@PAEMBEDF@turret1ClampPitchD?$AA@ 300aa3bc     bg_vehicleLoad.obj
 0002:0000c3d0       ??_C@_0P@NDNADLOJ@turret1Muzzle1?$AA@ 300aa3d0     bg_vehicleLoad.obj
 0002:0000c3e0       ??_C@_0P@PIPNGICK@turret1Muzzle2?$AA@ 300aa3e0     bg_vehicleLoad.obj
 0002:0000c3f0       ??_C@_0BB@PDLGOJAM@turret1TurnSpeed?$AA@ 300aa3f0     bg_vehicleLoad.obj
 0002:0000c404       ??_C@_09IAHODHIH@turret1AI?$AA@ 300aa404     bg_vehicleLoad.obj
 0002:0000c410       ??_C@_0O@NENBBHAC@turret1AILead?$AA@ 300aa410     bg_vehicleLoad.obj
 0002:0000c420       ??_C@_0P@GACJEEPN@turret1AIRange?$AA@ 300aa420     bg_vehicleLoad.obj
 0002:0000c430       ??_C@_0BE@MNFKLHBD@turret1PassengerNum?$AA@ 300aa430     bg_vehicleLoad.obj
 0002:0000c444       ??_C@_0BF@EJJOIICO@turret1GunnerViewTag?$AA@ 300aa444     bg_vehicleLoad.obj
 0002:0000c45c       ??_C@_0M@CJIFPDBG@turret2Weap?$AA@ 300aa45c     bg_vehicleLoad.obj
 0002:0000c468       ??_C@_0N@GAMMJDLC@turret2Delay?$AA@ 300aa468     bg_vehicleLoad.obj
 0002:0000c478       ??_C@_0P@GBCMHONA@turret2AmmoMax?$AA@ 300aa478     bg_vehicleLoad.obj
 0002:0000c488       ??_C@_0BG@KBCLJNLB@turret2AmmoRechargeMS?$AA@ 300aa488     bg_vehicleLoad.obj
 0002:0000c4a0       ??_C@_0P@GMMFLIOG@turret2YawBone?$AA@ 300aa4a0     bg_vehicleLoad.obj
 0002:0000c4b0       ??_C@_0BB@EBFMNEBJ@turret2PitchBone?$AA@ 300aa4b0     bg_vehicleLoad.obj
 0002:0000c4c4       ??_C@_0P@PPHMAOEC@turret2YawAxis?$AA@ 300aa4c4     bg_vehicleLoad.obj
 0002:0000c4d4       ??_C@_0BB@NCOFGCLN@turret2PitchAxis?$AA@ 300aa4d4     bg_vehicleLoad.obj
 0002:0000c4e8       ??_C@_0BB@OMONLJON@turret2ClampYawL?$AA@ 300aa4e8     bg_vehicleLoad.obj
 0002:0000c4fc       ??_C@_0BB@DIKMIGDC@turret2ClampYawR?$AA@ 300aa4fc     bg_vehicleLoad.obj
 0002:0000c510       ??_C@_0BD@BOFPFLOL@turret2ClampPitchU?$AA@ 300aa510     bg_vehicleLoad.obj
 0002:0000c524       ??_C@_0BD@ENIGHIPL@turret2ClampPitchD?$AA@ 300aa524     bg_vehicleLoad.obj
 0002:0000c538       ??_C@_0P@OKFNAHCM@turret2Muzzle1?$AA@ 300aa538     bg_vehicleLoad.obj
 0002:0000c548       ??_C@_0P@MBHAFEOP@turret2Muzzle2?$AA@ 300aa548     bg_vehicleLoad.obj
 0002:0000c558       ??_C@_0BB@GKFEIPAN@turret2TurnSpeed?$AA@ 300aa558     bg_vehicleLoad.obj
 0002:0000c56c       ??_C@_09JCMLJIGJ@turret2AI?$AA@ 300aa56c     bg_vehicleLoad.obj
 0002:0000c578       ??_C@_0O@FKFOBAOB@turret2AILead?$AA@ 300aa578     bg_vehicleLoad.obj
 0002:0000c588       ??_C@_0P@FJKEHIDI@turret2AIRange?$AA@ 300aa588     bg_vehicleLoad.obj
 0002:0000c598       ??_C@_0BE@LBDLJCMI@turret2PassengerNum?$AA@ 300aa598     bg_vehicleLoad.obj
 0002:0000c5ac       ??_C@_0BF@FIODOCFH@turret2GunnerViewTag?$AA@ 300aa5ac     bg_vehicleLoad.obj
 0002:0000c5c4       ??_C@_07FABGOOCC@VH_NONE?$AA@ 300aa5c4     bg_vehicleLoad.obj
 0002:0000c5cc       ??_C@_09EMIPDFIK@VH_WALKER?$AA@ 300aa5cc     bg_vehicleLoad.obj
 0002:0000c5d8       ??_C@_0L@NKPJKKBD@VH_FIGHTER?$AA@ 300aa5d8     bg_vehicleLoad.obj
 0002:0000c5e4       ??_C@_0L@PJKFHOGE@VH_SPEEDER?$AA@ 300aa5e4     bg_vehicleLoad.obj
 0002:0000c5f0       ??_C@_09IHBEGJAE@VH_ANIMAL?$AA@ 300aa5f0     bg_vehicleLoad.obj
 0002:0000c5fc       ??_C@_08GLJJKINI@VH_FLIER?$AA@ 300aa5fc     bg_vehicleLoad.obj
 0002:0000c608       ??_C@_0FD@MDELBJLL@?$FO3BG_ParseVehWeaponParm?3?5VEC3?5ss@ 300aa608     bg_vehicleLoad.obj
 0002:0000c65c       ??_C@_0L@MLJDLEMM@vehWeapons?$AA@ 300aa65c     bg_vehicleLoad.obj
 0002:0000c668       ??_C@_0DL@FMGLONEB@?$FO1ERROR?3?5unexpected?5EOF?5while?5pa@ 300aa668     bg_vehicleLoad.obj
 0002:0000c6a4       ??_C@_0DC@DEIKKAAA@?$FO1ERROR?3?5Vehicle?5Weapon?5token?5?8?$CF@ 300aa6a4     bg_vehicleLoad.obj
 0002:0000c6d8       ??_C@_0DL@NMOBCAIH@?$FO1ERROR?3?5Unknown?5Vehicle?5Weapon?5@ 300aa6d8     bg_vehicleLoad.obj
 0002:0000c714       ??_C@_0CH@LCICPJML@sound?1vehicles?1weapons?1common?1ti@ 300aa714     bg_vehicleLoad.obj
 0002:0000c73c       ??_C@_0CH@GDPFBACF@sound?1vehicles?1weapons?1common?1lo@ 300aa73c     bg_vehicleLoad.obj
 0002:0000c764       ??_C@_0CF@GPLNCJPC@sound?1vehicles?1common?1lockalarm1@ 300aa764     bg_vehicleLoad.obj
 0002:0000c78c       ??_C@_0CF@OJCJFLFM@sound?1vehicles?1common?1lockalarm2@ 300aa78c     bg_vehicleLoad.obj
 0002:0000c7b4       ??_C@_0CF@CCHFIIPJ@sound?1vehicles?1common?1lockalarm3@ 300aa7b4     bg_vehicleLoad.obj
 0002:0000c7dc       ??_C@_0DG@NFPGFPBD@?$FO1ERROR?3?5Trying?5to?5read?5Vehicle?5@ 300aa7dc     bg_vehicleLoad.obj
 0002:0000c818       ??_C@_0EC@OJBJIBOI@?$FO1ERROR?3?5Too?5many?5Vehicle?5Weapon@ 300aa818     bg_vehicleLoad.obj
 0002:0000c85c       ??_C@_0CM@BOPHHAJF@?$FO1ERROR?3?5Could?5not?5find?5Vehicle?5@ 300aa85c     bg_vehicleLoad.obj
 0002:0000c888       ??_C@_0DA@LIKPIJOG@Can?8t?5set?5vehicle?5shared?5functio@ 300aa888     bg_vehicleLoad.obj
 0002:0000c8b8       ??_C@_0FB@JIOAPADB@?$FO3BG_ParseVehicleParm?3?5VEC3?5ssca@ 300aa8b8     bg_vehicleLoad.obj
 0002:0000c90c       ??_C@_08HAIKMFBJ@vehicles?$AA@ 300aa90c     bg_vehicleLoad.obj
 0002:0000c918       ??_C@_0DE@EKJMGPEC@?$FO1ERROR?3?5unexpected?5EOF?5while?5pa@ 300aa918     bg_vehicleLoad.obj
 0002:0000c94c       ??_C@_0CL@OGPLJEAB@?$FO1ERROR?3?5Vehicle?5token?5?8?$CFs?8?5has?5@ 300aa94c     bg_vehicleLoad.obj
 0002:0000c978       ??_C@_0BM@KNIODCMI@models?1players?1?$CFs?1model?4glm?$AA@ 300aa978     bg_vehicleLoad.obj
 0002:0000c994       ??_C@_0BK@NCALAGBO@ships?1ship_explosion_mark?$AA@ 300aa994     bg_vehicleLoad.obj
 0002:0000c9b0       ??_C@_0CC@DCOMBCFJ@sound?1vehicles?1common?1fire_lp?4wa@ 300aa9b0     bg_vehicleLoad.obj
 0002:0000c9d4       ??_C@_0BB@DNJHOLNH@ships?1swoop_dust?$AA@ 300aa9d4     bg_vehicleLoad.obj
 0002:0000c9e8       ??_C@_0BI@IOMIPFAI@gfx?1menus?1radar?1bracket?$AA@ 300aa9e8     bg_vehicleLoad.obj
 0002:0000ca00       ??_C@_0BF@FLALHJAP@gfx?1menus?1radar?1lead?$AA@ 300aaa00     bg_vehicleLoad.obj
 0002:0000ca18       ??_C@_0BJ@POPKHPP@gfx?1menus?1radar?1asteroid?$AA@ 300aaa18     bg_vehicleLoad.obj
 0002:0000ca34       ??_C@_0CG@LGHONDOI@sound?1vehicles?1common?1impactalar@ 300aaa34     bg_vehicleLoad.obj
 0002:0000ca5c       ??_C@_0CE@OLLPDHPF@sound?1vehicles?1common?1linkweaps?4@ 300aaa5c     bg_vehicleLoad.obj
 0002:0000ca80       ??_C@_0CC@FMEFNJAG@sound?1vehicles?1common?1release?4wa@ 300aaa80     bg_vehicleLoad.obj
 0002:0000caa4       ??_C@_0BP@DKDDAPFA@effects?1ships?1dest_burning?4efx?$AA@ 300aaaa4     bg_vehicleLoad.obj
 0002:0000cac4       ??_C@_0CB@PMCFCAHP@effects?1ships?1dest_destroyed?4efx@ 300aaac4     bg_vehicleLoad.obj
 0002:0000cae8       ??_C@_0BH@EGNCFGHP@volumetric?1black_smoke?$AA@ 300aaae8     bg_vehicleLoad.obj
 0002:0000cb00       ??_C@_0L@FJMBPMOH@ships?1fire?$AA@ 300aab00     bg_vehicleLoad.obj
 0002:0000cb0c       ??_C@_0BH@MJMHOIHM@ships?1hyperspace_stars?$AA@ 300aab0c     bg_vehicleLoad.obj
 0002:0000cb24       ??_C@_0BM@OMIIFOPC@gfx?1menus?1radar?1circle_base?$AA@ 300aab24     bg_vehicleLoad.obj
 0002:0000cb40       ??_C@_0CC@EFBOPOJ@gfx?1menus?1radar?1circle_base_fram@ 300aab40     bg_vehicleLoad.obj
 0002:0000cb64       ??_C@_0CD@LFPNGPKF@gfx?1menus?1radar?1circle_base_shie@ 300aab64     bg_vehicleLoad.obj
 0002:0000cb88       ??_C@_0CP@GGAMJIMN@?$FO1ERROR?3?5Trying?5to?5read?5Vehicle?5@ 300aab88     bg_vehicleLoad.obj
 0002:0000cbb8       ??_C@_0DL@LHHFHKNO@?$FO1ERROR?3?5Too?5many?5Vehicles?5?$CImax?5@ 300aabb8     bg_vehicleLoad.obj
 0002:0000cbf4       ??_C@_0CF@JDPFBFFF@?$FO1ERROR?3?5Could?5not?5find?5Vehicle?5@ 300aabf4     bg_vehicleLoad.obj
 0002:0000cc1c       ??_C@_04HHPJGBOE@?4vwp?$AA@ 300aac1c     bg_vehicleLoad.obj
 0002:0000cc24       ??_C@_0BK@NBKBPLIB@ext_data?1vehicles?1weapons?$AA@ 300aac24     bg_vehicleLoad.obj
 0002:0000cc40       ??_C@_0BN@HEKLMLDI@ext_data?1vehicles?1weapons?1?$CFs?$AA@ 300aac40     bg_vehicleLoad.obj
 0002:0000cc60       ??_C@_01CLKCMJKC@?5?$AA@   300aac60     bg_vehicleLoad.obj
 0002:0000cc64       ??_C@_0DA@KBNENJDB@Vehicle?5Weapon?5extensions?5?$CI?$CK?4vwp@ 300aac64     bg_vehicleLoad.obj
 0002:0000cc94       ??_C@_04OKEAIOKD@?4veh?$AA@ 300aac94     bg_vehicleLoad.obj
 0002:0000cc9c       ??_C@_0BC@OPBPEGFG@ext_data?1vehicles?$AA@ 300aac9c     bg_vehicleLoad.obj
 0002:0000ccb0       ??_C@_0BF@IBNPKGMN@ext_data?1vehicles?1?$CFs?$AA@ 300aacb0     bg_vehicleLoad.obj
 0002:0000ccc8       ??_C@_0CF@EBIOONKP@Unable?5to?5alloc?5memory?5for?5vehic@ 300aacc8     bg_vehicleLoad.obj
 0002:0000ccf0       ??_C@_0FG@LMELNMJI@Vehicle?5extensions?5?$CI?$CK?4veh?$CJ?5someh@ 300aacf0     bg_vehicleLoad.obj
 0002:0000cd48       ??_C@_0DC@CNDALACO@BG_GetVehicleModelName?3?5?5couldn?8@ 300aad48     bg_vehicleLoad.obj
 0002:0000cd7c       ??_C@_0DB@BEOAHFLB@BG_GetVehicleSkinName?3?5?5couldn?8t@ 300aad7c     bg_vehicleLoad.obj
 0002:0000cdb0       ??_C@_07ECBLGCPH@?$CKdriver?$AA@ 300aadb0     bg_vehicleLoad.obj
 0002:0000cdb8       ??_C@_06OFNJOBDK@enable?$AA@ 300aadb8     cg_camera.obj
 0002:0000cdc0       ??_C@_04HDMMNHEL@move?$AA@ 300aadc0     cg_camera.obj
 0002:0000cdc8       ??_C@_0BA@DOGJNJFB@?$CF?$CKs?5?$CFf?5?$CFf?5?$CFf?5?$CFf?$AA@ 300aadc8     cg_camera.obj
 0002:0000cdd8       ??_C@_03HOPGHEB@pan?$AA@   300aadd8     cg_camera.obj
 0002:0000cddc       ??_C@_0BJ@OOCHPCAJ@?$CF?$CKs?5?$CFf?5?$CFf?5?$CFf?5?$CFf?5?$CFf?5?$CFf?5?$CFf?$AA@ 300aaddc     cg_camera.obj
 0002:0000cdf8       ??_C@_04PLGBOGHH@fade?$AA@ 300aadf8     cg_camera.obj
 0002:0000ce00       ??_C@_0BP@KINPPADI@?$CF?$CKs?5?$CFf?5?$CFf?5?$CFf?5?$CFf?5?$CFf?5?$CFf?5?$CFf?5?$CFf?5?$CFf?$AA@ 300aae00     cg_camera.obj
 0002:0000ce20       ??_C@_04HKCCIOCO@zoom?$AA@ 300aae20     cg_camera.obj
 0002:0000ce28       ??_C@_09KDLMAJLD@?$CF?$CKs?5?$CFf?5?$CFf?$AA@ 300aae28     cg_camera.obj
 0002:0000ce34       ??_C@_07DBNODEFN@disable?$AA@ 300aae34     cg_camera.obj
 0002:0000ce3c       ??_C@_05LFFLDGPK@shake?$AA@ 300aae3c     cg_camera.obj
 0002:0000ce44       ??_C@_09CECEBFHM@?$CF?$CKs?5?$CFf?5?$CFi?$AA@ 300aae44     cg_camera.obj
 0002:0000ce50       ??_C@_06HNJAFFAK@follow?$AA@ 300aae50     cg_camera.obj
 0002:0000ce58       ??_C@_0DK@MNOPPNJO@?$CF?$CKs?5?$CFi?5?$CFi?5?$CFi?5?$CFi?5?$CFi?5?$CFi?5?$CFi?5?$CFi?5?$CFi?5?$CF@ 300aae58     cg_camera.obj
 0002:0000ce94       ??_C@_0DB@KOMHDDGO@Bad?5CS_CAMERA?5configstring?5in?5CG@ 300aae94     cg_camera.obj
 0002:0000cec8       __real@3d4ccccd            300aaec8     cg_camera.obj
 0002:0000ced0       __real@4000000000000000    300aaed0     cg_camera.obj
 0002:0000ced8       __real@46fffe00            300aaed8     cg_camera.obj
 0002:0000cee0       __xmm@ffffffffffffffffffffffffffffffff 300aaee0     cg_camera.obj
 0002:0000cef0       ??_C@_07OFBIMGPG@testgun?$AA@ 300aaef0     cg_consolecmds.obj
 0002:0000cef8       ??_C@_09FDMDKFOH@testmodel?$AA@ 300aaef8     cg_consolecmds.obj
 0002:0000cf04       ??_C@_09CEJNBBKD@nextframe?$AA@ 300aaf04     cg_consolecmds.obj
 0002:0000cf10       ??_C@_09KFHKLKJD@prevframe?$AA@ 300aaf10     cg_consolecmds.obj
 0002:0000cf1c       ??_C@_08LEEFJCLI@nextskin?$AA@ 300aaf1c     cg_consolecmds.obj
 0002:0000cf28       ??_C@_08ONPIGPGM@prevskin?$AA@ 300aaf28     cg_consolecmds.obj
 0002:0000cf34       ??_C@_07NBKBBFDF@viewpos?$AA@ 300aaf34     cg_consolecmds.obj
 0002:0000cf3c       ??_C@_07PNHLECKB@?$CLscores?$AA@ 300aaf3c     cg_consolecmds.obj
 0002:0000cf44       ??_C@_07DLBEELCG@?9scores?$AA@ 300aaf44     cg_consolecmds.obj
 0002:0000cf4c       ??_C@_06FCHHJILH@sizeup?$AA@ 300aaf4c     cg_consolecmds.obj
 0002:0000cf54       ??_C@_08KKGKLAHJ@sizedown?$AA@ 300aaf54     cg_consolecmds.obj
 0002:0000cf60       ??_C@_08IJHOKAF@weapnext?$AA@ 300aaf60     cg_consolecmds.obj
 0002:0000cf6c       ??_C@_08DMEBPOGB@weapprev?$AA@ 300aaf6c     cg_consolecmds.obj
 0002:0000cf78       ??_C@_06GEPNGEJI@weapon?$AA@ 300aaf78     cg_consolecmds.obj
 0002:0000cf80       ??_C@_0M@IFIOEFBC@weaponclean?$AA@ 300aaf80     cg_consolecmds.obj
 0002:0000cf8c       ??_C@_0M@IEEMCPKO@tell_target?$AA@ 300aaf8c     cg_consolecmds.obj
 0002:0000cf98       ??_C@_0O@CIPPGGPC@tell_attacker?$AA@ 300aaf98     cg_consolecmds.obj
 0002:0000cfa8       ??_C@_04FNICOANA@tcmd?$AA@ 300aafa8     cg_consolecmds.obj
 0002:0000cfb0       ??_C@_05NAPLEAGB@spWin?$AA@ 300aafb0     cg_consolecmds.obj
 0002:0000cfb8       ??_C@_06EEKPMAA@spLose?$AA@ 300aafb8     cg_consolecmds.obj
 0002:0000cfc0       ??_C@_0L@JEAJCAAH@scoresDown?$AA@ 300aafc0     cg_consolecmds.obj
 0002:0000cfcc       ??_C@_08NILIEBDN@scoresUp?$AA@ 300aafcc     cg_consolecmds.obj
 0002:0000cfd8       ??_C@_0L@FBDGNAPC@startOrbit?$AA@ 300aafd8     cg_consolecmds.obj
 0002:0000cfe4       ??_C@_0N@FDCACBMC@loaddeferred?$AA@ 300aafe4     cg_consolecmds.obj
 0002:0000cff4       ??_C@_07GIMAAJGF@invnext?$AA@ 300aaff4     cg_consolecmds.obj
 0002:0000cffc       ??_C@_07FMBGBNAB@invprev?$AA@ 300aaffc     cg_consolecmds.obj
 0002:0000d004       ??_C@_09HEAPLILA@forcenext?$AA@ 300ab004     cg_consolecmds.obj
 0002:0000d010       ??_C@_09EANJKMNE@forceprev?$AA@ 300ab010     cg_consolecmds.obj
 0002:0000d01c       ??_C@_08PLKIGCGP@briefing?$AA@ 300ab01c     cg_consolecmds.obj
 0002:0000d028       ??_C@_0BA@NFKMJLPI@siegeCvarUpdate?$AA@ 300ab028     cg_consolecmds.obj
 0002:0000d038       ??_C@_0BI@HDGHMOHC@siegeCompleteCvarUpdate?$AA@ 300ab038     cg_consolecmds.obj
 0002:0000d050       ??_C@_0O@OPDOLMPD@siegeCvarList?$AA@ 300ab050     cg_consolecmds.obj
 0002:0000d060       ??_C@_08FJOFODJK@gc?5?$CFi?5?$CFi?$AA@ 300ab060     cg_consolecmds.obj
 0002:0000d06c       ??_C@_0M@NABCNGBA@cg_viewsize?$AA@ 300ab06c     cg_consolecmds.obj
 0002:0000d078       ??_C@_0BE@LIFMFIFG@?$CFs?5?$CI?$CFi?5?$CFi?5?$CFi?$CJ?5?3?5?$CFi?6?$AA@ 300ab078     cg_consolecmds.obj
 0002:0000d08c       ??_C@_05DBKDOICH@score?$AA@ 300ab08c     cg_consolecmds.obj
 0002:0000d094       ??_C@_01FDFGLJHB@2?$AA@    300ab094     cg_consolecmds.obj
 0002:0000d098       ??_C@_0P@GDCMABHL@cg_cameraOrbit?$AA@ 300ab098     cg_consolecmds.obj
 0002:0000d0a8       ??_C@_02IEKCLPJC@35?$AA@   300ab0a8     cg_consolecmds.obj
 0002:0000d0ac       ??_C@_0BE@EKDKKKAP@cg_cameraOrbitDelay?$AA@ 300ab0ac     cg_consolecmds.obj
 0002:0000d0c0       ??_C@_01HIHLOKLC@1?$AA@    300ab0c0     cg_consolecmds.obj
 0002:0000d0c4       ??_C@_0P@OPFJLCMG@cg_thirdPerson?$AA@ 300ab0c4     cg_consolecmds.obj
 0002:0000d0d4       ??_C@_01GBGANLPD@0?$AA@    300ab0d4     cg_consolecmds.obj
 0002:0000d0d8       ??_C@_0BE@HGBFBDIP@cg_thirdPersonAngle?$AA@ 300ab0d8     cg_consolecmds.obj
 0002:0000d0ec       ??_C@_03GNABGMEE@100?$AA@  300ab0ec     cg_consolecmds.obj
 0002:0000d0f0       ??_C@_0BE@FKFEAA@cg_thirdPersonRange?$AA@ 300ab0f0     cg_consolecmds.obj
 0002:0000d104       ??_C@_07MDJMOPGK@YOU_WIN?$AA@ 300ab104     cg_consolecmds.obj
 0002:0000d10c       ??_C@_09FBJDPOOB@MP_INGAME?$AA@ 300ab10c     cg_consolecmds.obj
 0002:0000d118       ??_C@_08GAPGGIF@YOU_LOSE?$AA@ 300ab118     cg_consolecmds.obj
 0002:0000d124       ??_C@_0L@EGAGNODH@tell?5?$CFi?5?$CFs?$AA@ 300ab124     cg_consolecmds.obj
 0002:0000d130       ??_C@_09DNECJBKD@developer?$AA@ 300ab130     cg_consolecmds.obj
 0002:0000d13c       ??_C@_01BMBHCPLG@5?$AA@    300ab13c     cg_consolecmds.obj
 0002:0000d140       ??_C@_0N@GENKAHPG@forcechanged?$AA@ 300ab140     cg_consolecmds.obj
 0002:0000d150       ??_C@_0L@FHBJCIGK@sv_invnext?$AA@ 300ab150     cg_consolecmds.obj
 0002:0000d15c       ??_C@_0L@GDMPDMAO@sv_invprev?$AA@ 300ab15c     cg_consolecmds.obj
 0002:0000d168       ??_C@_0N@LPPOILPI@sv_forcenext?$AA@ 300ab168     cg_consolecmds.obj
 0002:0000d178       ??_C@_0N@ILCIJPJM@sv_forceprev?$AA@ 300ab178     cg_consolecmds.obj
 0002:0000d188       ??_C@_0P@LACKILCD@sv_saberswitch?$AA@ 300ab188     cg_consolecmds.obj
 0002:0000d198       ??_C@_0M@HCFMJNJ@engage_duel?$AA@ 300ab198     cg_consolecmds.obj
 0002:0000d1a4       ??_C@_0L@INHFGGPP@force_heal?$AA@ 300ab1a4     cg_consolecmds.obj
 0002:0000d1b0       ??_C@_0M@GNLMHCDK@force_speed?$AA@ 300ab1b0     cg_consolecmds.obj
 0002:0000d1bc       ??_C@_0M@IBJPDFKD@force_throw?$AA@ 300ab1bc     cg_consolecmds.obj
 0002:0000d1c8       ??_C@_0L@IFCEHOHA@force_pull?$AA@ 300ab1c8     cg_consolecmds.obj
 0002:0000d1d4       ??_C@_0P@PMALMCEF@force_distract?$AA@ 300ab1d4     cg_consolecmds.obj
 0002:0000d1e4       ??_C@_0L@PNAILJHA@force_rage?$AA@ 300ab1e4     cg_consolecmds.obj
 0002:0000d1f0       ??_C@_0O@MHNHIGKF@force_protect?$AA@ 300ab1f0     cg_consolecmds.obj
 0002:0000d200       ??_C@_0N@LHEDBPBG@force_absorb?$AA@ 300ab200     cg_consolecmds.obj
 0002:0000d210       ??_C@_0BA@FAEJBFDN@force_healother?$AA@ 300ab210     cg_consolecmds.obj
 0002:0000d220       ??_C@_0BG@IPJAFHDH@force_forcepowerother?$AA@ 300ab220     cg_consolecmds.obj
 0002:0000d238       ??_C@_0N@PIIHDBOG@force_seeing?$AA@ 300ab238     cg_consolecmds.obj
 0002:0000d248       ??_C@_0L@PHNIGFGH@use_seeker?$AA@ 300ab248     cg_consolecmds.obj
 0002:0000d254       ??_C@_09IOIGHDGJ@use_field?$AA@ 300ab254     cg_consolecmds.obj
 0002:0000d260       ??_C@_09GPEOCDOP@use_bacta?$AA@ 300ab260     cg_consolecmds.obj
 0002:0000d26c       ??_C@_0BG@OOGFIKBA@use_electrobinoculars?$AA@ 300ab26c     cg_consolecmds.obj
 0002:0000d284       ??_C@_0L@HCOPHPIB@use_sentry?$AA@ 300ab284     cg_consolecmds.obj
 0002:0000d290       ??_C@_09CKNLHHEO@bot_order?$AA@ 300ab290     cg_consolecmds.obj
 0002:0000d29c       ??_C@_0BB@CFPBIBMB@saberAttackCycle?$AA@ 300ab29c     cg_consolecmds.obj
 0002:0000d2b0       ??_C@_04BJJEOANI@kill?$AA@ 300ab2b0     cg_consolecmds.obj
 0002:0000d2b8       ??_C@_03BANJEMDJ@say?$AA@  300ab2b8     cg_consolecmds.obj
 0002:0000d2bc       ??_C@_08NBFNGOHN@say_team?$AA@ 300ab2bc     cg_consolecmds.obj
 0002:0000d2c8       ??_C@_04LBPCFPDD@tell?$AA@ 300ab2c8     cg_consolecmds.obj
 0002:0000d2d0       ??_C@_04BMBHJADG@give?$AA@ 300ab2d0     cg_consolecmds.obj
 0002:0000d2d8       ??_C@_03DKFAMNOH@god?$AA@  300ab2d8     cg_consolecmds.obj
 0002:0000d2dc       ??_C@_08HPLPOCJL@notarget?$AA@ 300ab2dc     cg_consolecmds.obj
 0002:0000d2e8       ??_C@_06IHODGGMJ@noclip?$AA@ 300ab2e8     cg_consolecmds.obj
 0002:0000d2f0       ??_C@_04KADBPNCB@team?$AA@ 300ab2f0     cg_consolecmds.obj
 0002:0000d2f8       ??_C@_09EFOFPGPE@levelshot?$AA@ 300ab2f8     cg_consolecmds.obj
 0002:0000d304       ??_C@_06CJHCPEHG@addbot?$AA@ 300ab304     cg_consolecmds.obj
 0002:0000d30c       ??_C@_0L@CCEFBCKP@setviewpos?$AA@ 300ab30c     cg_consolecmds.obj
 0002:0000d318       ??_C@_08NNMLCPB@callvote?$AA@ 300ab318     cg_consolecmds.obj
 0002:0000d324       ??_C@_04GHHIKFLG@vote?$AA@ 300ab324     cg_consolecmds.obj
 0002:0000d32c       ??_C@_0N@JDBKAFAM@callteamvote?$AA@ 300ab32c     cg_consolecmds.obj
 0002:0000d33c       ??_C@_08OLLMCBNG@teamvote?$AA@ 300ab33c     cg_consolecmds.obj
 0002:0000d348       ??_C@_05BLKJBNOD@stats?$AA@ 300ab348     cg_consolecmds.obj
 0002:0000d350       ??_C@_08OKGPDOIO@teamtask?$AA@ 300ab350     cg_consolecmds.obj
 0002:0000d35c       ??_C@_03BPGDPAOH@npc?$AA@  300ab35c     cg_consolecmds.obj
 0002:0000d360       ??_C@_0M@NJBPNDAH@loaddefered?$AA@ 300ab360     cg_consolecmds.obj
 0002:0000d36c       ??_C@_0M@NOGHMIJC@togglesaber?$AA@ 300ab36c     cg_consolecmds.obj
 0002:0000d378       ??_C@_0L@BDOGHBMH@armor_tic1?$AA@ 300ab378     cg_draw.obj
 0002:0000d384       ??_C@_0L@DIMLCCAE@armor_tic2?$AA@ 300ab384     cg_draw.obj
 0002:0000d390       ??_C@_0L@CBNABDEF@armor_tic3?$AA@ 300ab390     cg_draw.obj
 0002:0000d39c       ??_C@_0L@GOJBIFIC@armor_tic4?$AA@ 300ab39c     cg_draw.obj
 0002:0000d3a8       ??_C@_0L@HHIKLEMD@armor_tic5?$AA@ 300ab3a8     cg_draw.obj
 0002:0000d3b4       ??_C@_0L@FMKHOHAA@armor_tic6?$AA@ 300ab3b4     cg_draw.obj
 0002:0000d3c0       ??_C@_0L@EFLMNGEB@armor_tic7?$AA@ 300ab3c0     cg_draw.obj
 0002:0000d3cc       ??_C@_0L@MCCEMKIO@armor_tic8?$AA@ 300ab3cc     cg_draw.obj
 0002:0000d3d8       ??_C@_0L@GOCCFELD@force_tic1?$AA@ 300ab3d8     cg_draw.obj
 0002:0000d3e4       ??_C@_0L@EFAPAHHA@force_tic2?$AA@ 300ab3e4     cg_draw.obj
 0002:0000d3f0       ??_C@_0L@FMBEDGDB@force_tic3?$AA@ 300ab3f0     cg_draw.obj
 0002:0000d3fc       ??_C@_0L@BDFFKAPG@force_tic4?$AA@ 300ab3fc     cg_draw.obj
 0002:0000d408       ??_C@_0L@KEOJBLH@force_tic5?$AA@ 300ab408     cg_draw.obj
 0002:0000d414       ??_C@_0L@CBGDMCHE@force_tic6?$AA@ 300ab414     cg_draw.obj
 0002:0000d420       ??_C@_0L@DIHIPDDF@force_tic7?$AA@ 300ab420     cg_draw.obj
 0002:0000d42c       ??_C@_0L@LPOAOPPK@force_tic8?$AA@ 300ab42c     cg_draw.obj
 0002:0000d438       ??_C@_0L@GNNONIHD@dodge_tic1?$AA@ 300ab438     cg_draw.obj
 0002:0000d444       ??_C@_0L@EGPDILLA@dodge_tic2?$AA@ 300ab444     cg_draw.obj
 0002:0000d450       ??_C@_0L@FPOILKPB@dodge_tic3?$AA@ 300ab450     cg_draw.obj
 0002:0000d45c       ??_C@_0L@BAKJCMDG@dodge_tic4?$AA@ 300ab45c     cg_draw.obj
 0002:0000d468       ??_C@_0L@JLCBNHH@dodge_tic5?$AA@ 300ab468     cg_draw.obj
 0002:0000d474       ??_C@_0L@CCJPEOLE@dodge_tic6?$AA@ 300ab474     cg_draw.obj
 0002:0000d480       ??_C@_0L@DLIEHPPF@dodge_tic7?$AA@ 300ab480     cg_draw.obj
 0002:0000d48c       ??_C@_0L@LMBMGDDK@dodge_tic8?$AA@ 300ab48c     cg_draw.obj
 0002:0000d498       ??_C@_09ICAECBDN@ammo_tic1?$AA@ 300ab498     cg_draw.obj
 0002:0000d4a4       ??_C@_09KJCJHCPO@ammo_tic2?$AA@ 300ab4a4     cg_draw.obj
 0002:0000d4b0       ??_C@_09LADCEDLP@ammo_tic3?$AA@ 300ab4b0     cg_draw.obj
 0002:0000d4bc       ??_C@_09PPHDNFHI@ammo_tic4?$AA@ 300ab4bc     cg_draw.obj
 0002:0000d4c8       ??_C@_09OGGIOEDJ@ammo_tic5?$AA@ 300ab4c8     cg_draw.obj
 0002:0000d4d4       ??_C@_09MNEFLHPK@ammo_tic6?$AA@ 300ab4d4     cg_draw.obj
 0002:0000d4e0       ??_C@_09NEFOIGLL@ammo_tic7?$AA@ 300ab4e0     cg_draw.obj
 0002:0000d4ec       ??_C@_09FDMGJKHE@ammo_tic8?$AA@ 300ab4ec     cg_draw.obj
 0002:0000d4f8       ??_C@_0M@CIMKKHIN@mishap_tic1?$AA@ 300ab4f8     cg_draw.obj
 0002:0000d504       ??_C@_0M@DOHPEEO@mishap_tic2?$AA@ 300ab504     cg_draw.obj
 0002:0000d510       ??_C@_0M@BKPMMFAP@mishap_tic3?$AA@ 300ab510     cg_draw.obj
 0002:0000d51c       ??_C@_0M@FFLNFDMI@mishap_tic4?$AA@ 300ab51c     cg_draw.obj
 0002:0000d528       ??_C@_0M@EMKGGCIJ@mishap_tic5?$AA@ 300ab528     cg_draw.obj
 0002:0000d534       ??_C@_0M@GHILDBEK@mishap_tic6?$AA@ 300ab534     cg_draw.obj
 0002:0000d540       ??_C@_0M@HOJAAAAL@mishap_tic7?$AA@ 300ab540     cg_draw.obj
 0002:0000d54c       ??_C@_0M@PJAIBMME@mishap_tic8?$AA@ 300ab54c     cg_draw.obj
 0002:0000d558       ??_C@_0M@OABDCNIF@mishap_tic9?$AA@ 300ab558     cg_draw.obj
 0002:0000d564       ??_C@_0N@EMGHADMJ@mishap_tic10?$AA@ 300ab564     cg_draw.obj
 0002:0000d574       ??_C@_0N@FFHMDCII@mishap_tic11?$AA@ 300ab574     cg_draw.obj
 0002:0000d584       ??_C@_0N@HOFBGBEL@mishap_tic12?$AA@ 300ab584     cg_draw.obj
 0002:0000d594       ??_C@_0N@GHEKFAAK@mishap_tic13?$AA@ 300ab594     cg_draw.obj
 0002:0000d5a4       ??_C@_0N@CIALMGMN@mishap_tic14?$AA@ 300ab5a4     cg_draw.obj
 0002:0000d5b4       ??_C@_0N@DBBAPHIM@mishap_tic15?$AA@ 300ab5b4     cg_draw.obj
 0002:0000d5c4       ??_C@_05IKHNBOOJ@HEAL2?$AA@ 300ab5c4     cg_draw.obj
 0002:0000d5cc       ??_C@_05PILPMNMM@JUMP2?$AA@ 300ab5cc     cg_draw.obj
 0002:0000d5d4       ??_C@_06NKBKNFAH@SPEED2?$AA@ 300ab5d4     cg_draw.obj
 0002:0000d5dc       ??_C@_05PIABDOFF@PUSH2?$AA@ 300ab5dc     cg_draw.obj
 0002:0000d5e4       ??_C@_05PHHCNBEA@PULL2?$AA@ 300ab5e4     cg_draw.obj
 0002:0000d5ec       ??_C@_0L@ILKNLNPA@MINDTRICK2?$AA@ 300ab5ec     cg_draw.obj
 0002:0000d5f8       ??_C@_05HJGDJFFF@GRIP2?$AA@ 300ab5f8     cg_draw.obj
 0002:0000d600       ??_C@_0L@DOELCCHN@LIGHTNING2?$AA@ 300ab600     cg_draw.obj
 0002:0000d60c       ??_C@_0L@MHGIMFCO@DARK_RAGE2?$AA@ 300ab60c     cg_draw.obj
 0002:0000d618       ??_C@_08MGIMODBK@PROTECT2?$AA@ 300ab618     cg_draw.obj
 0002:0000d624       ??_C@_07DKNPJIC@ABSORB2?$AA@ 300ab624     cg_draw.obj
 0002:0000d62c       ??_C@_0L@EOCADFMC@TEAM_HEAL2?$AA@ 300ab62c     cg_draw.obj
 0002:0000d638       ??_C@_0BA@PGEKMKPK@TEAM_REPLENISH2?$AA@ 300ab638     cg_draw.obj
 0002:0000d648       ??_C@_06IHGKEKOC@DRAIN2?$AA@ 300ab648     cg_draw.obj
 0002:0000d650       ??_C@_07LOFPMPLA@SEEING2?$AA@ 300ab650     cg_draw.obj
 0002:0000d658       ??_C@_0P@EFGPLIOK@SABER_OFFENSE2?$AA@ 300ab658     cg_draw.obj
 0002:0000d668       ??_C@_0P@EJLFCBNE@SABER_DEFENSE2?$AA@ 300ab668     cg_draw.obj
 0002:0000d678       ??_C@_0N@PIKOAACM@SABER_THROW2?$AA@ 300ab678     cg_draw.obj
 0002:0000d688       ??_C@_0O@NAADLNOK@vehicle_front?$AA@ 300ab688     cg_draw.obj
 0002:0000d698       ??_C@_0N@PHICPLFA@vehicle_back?$AA@ 300ab698     cg_draw.obj
 0002:0000d6a8       ??_C@_0N@MEBBOBD@vehicle_left?$AA@ 300ab6a8     cg_draw.obj
 0002:0000d6b8       ??_C@_0O@JOENAPKJ@vehicle_right?$AA@ 300ab6b8     cg_draw.obj
 0002:0000d6c8       ??_C@_0M@KEKOKPGF@health_tic1?$AA@ 300ab6c8     cg_draw.obj
 0002:0000d6d4       ??_C@_0N@DHHIJOLI@healthamount?$AA@ 300ab6d4     cg_draw.obj
 0002:0000d6e4       ??_C@_0L@IIAHBFJF@armorshell?$AA@ 300ab6e4     cg_draw.obj
 0002:0000d6f0       ??_C@_0M@PBHBEKC@armoramount?$AA@ 300ab6f0     cg_draw.obj
 0002:0000d6fc       ??_C@_0BA@EHENGAJC@saberstyle_fast?$AA@ 300ab6fc     cg_draw.obj
 0002:0000d70c       ??_C@_0BC@GFIJKDOA@saberstyle_medium?$AA@ 300ab70c     cg_draw.obj
 0002:0000d720       ??_C@_0BA@HPEPBMHN@saberstyle_dual?$AA@ 300ab720     cg_draw.obj
 0002:0000d730       ??_C@_0BB@DDEIBAPJ@saberstyle_staff?$AA@ 300ab730     cg_draw.obj
 0002:0000d744       ??_C@_0BA@CDDGKJGK@saberstyle_slow?$AA@ 300ab744     cg_draw.obj
 0002:0000d754       ??_C@_0BC@NMDLJKBM@saberstyle_desann?$AA@ 300ab754     cg_draw.obj
 0002:0000d768       ??_C@_0BC@CMOCIJGM@saberstyle_tavion?$AA@ 300ab768     cg_draw.obj
 0002:0000d77c       ??_C@_0L@FCOOONPA@ammoamount?$AA@ 300ab77c     cg_draw.obj
 0002:0000d788       ??_C@_0N@PHNNNPHC@ammoinfinite?$AA@ 300ab788     cg_draw.obj
 0002:0000d798       ??_C@_02BAABKJLB@?9?9?$AA@ 300ab798     cg_draw.obj
 0002:0000d79c       ??_C@_05PPJGDEGI@?$CFi?1?$CFi?$AA@ 300ab79c     cg_draw.obj
 0002:0000d7a4       ??_C@_0M@MDGFFLJO@dodgeamount?$AA@ 300ab7a4     cg_draw.obj
 0002:0000d7b0       ??_C@_0M@FIACGFKC@forceamount?$AA@ 300ab7b0     cg_draw.obj
 0002:0000d7bc       ??_C@_06NNBCBEFP@AKIMBO?$AA@ 300ab7bc     cg_draw.obj
 0002:0000d7c4       ??_C@_05PICIGLKH@STAFF?$AA@ 300ab7c4     cg_draw.obj
 0002:0000d7cc       ??_C@_06KDCJDEIC@STRONG?$AA@ 300ab7cc     cg_draw.obj
 0002:0000d7d4       ??_C@_06HMBFJLMK@MEDIUM?$AA@ 300ab7d4     cg_draw.obj
 0002:0000d7dc       ??_C@_04HNOLJCOK@FAST?$AA@ 300ab7dc     cg_draw.obj
 0002:0000d7e4       ??_C@_02DKCKIIND@?$CFs?$AA@ 300ab7e4     cg_draw.obj
 0002:0000d7e8       ??_C@_07LLNBIHJM@lefthud?$AA@ 300ab7e8     cg_draw.obj
 0002:0000d7f0       ??_C@_08NBKMMBGP@scanline?$AA@ 300ab7f0     cg_draw.obj
 0002:0000d7fc       ??_C@_05MIJNFGED@frame?$AA@ 300ab7fc     cg_draw.obj
 0002:0000d804       ??_C@_05PKDFAPGJ@SCORE?$AA@ 300ab804     cg_draw.obj
 0002:0000d80c       ??_C@_09BGDELMBA@?$CFs?3?5?$CFi?1?$CFi?$AA@ 300ab80c     cg_draw.obj
 0002:0000d818       ??_C@_06LDLKBCCJ@?$CFs?3?5?$CFi?$AA@ 300ab818     cg_draw.obj
 0002:0000d820       ??_C@_08DNKNJDF@righthud?$AA@ 300ab820     cg_draw.obj
 0002:0000d82c       ??_C@_0L@MALOJPGH@score_line?$AA@ 300ab82c     cg_draw.obj
 0002:0000d838       ??_C@_09GIPEEPLK@SP_INGAME?$AA@ 300ab838     cg_draw.obj
 0002:0000d844       ??_C@_0BA@HGJCONNI@EMPTY?5INVENTORY?$AA@ 300ab844     cg_draw.obj
 0002:0000d854       ??_C@_0N@KMACKPKL@SP_INGAME_?$CFs?$AA@ 300ab854     cg_draw.obj
 0002:0000d864       ??_C@_0N@FABNBJPL@OJP_MENUS_?$CFs?$AA@ 300ab864     cg_draw.obj
 0002:0000d874       ??_C@_0BA@CCDAELNC@armorbackground?$AA@ 300ab874     cg_draw.obj
 0002:0000d884       ??_C@_0M@BPKNBEGN@armor_tic?$CFd?$AA@ 300ab884     cg_draw.obj
 0002:0000d890       ??_C@_0P@CJIFLDBJ@ammobackground?$AA@ 300ab890     cg_draw.obj
 0002:0000d8a0       ??_C@_0L@ECFEONDP@ammo_tic?$CFd?$AA@ 300ab8a0     cg_draw.obj
 0002:0000d8ac       ??_C@_0BE@HBKNAKL@ammoupperbackground?$AA@ 300ab8ac     cg_draw.obj
 0002:0000d8c0       ??_C@_0BA@KDHCKNDD@ammoupper_tic?$CFd?$AA@ 300ab8c0     cg_draw.obj
 0002:0000d8d0       ??_C@_0BE@EJGBBGPJ@ammolowerbackground?$AA@ 300ab8d0     cg_draw.obj
 0002:0000d8e4       ??_C@_0BA@ONBBFBCK@ammolower_tic?$CFd?$AA@ 300ab8e4     cg_draw.obj
 0002:0000d8f4       ??_C@_0O@LCKIPAPA@turborecharge?$AA@ 300ab8f4     cg_draw.obj
 0002:0000d904       ??_C@_0O@IPDIHBJJ@weaponslinked?$AA@ 300ab904     cg_draw.obj
 0002:0000d914       ??_C@_0BA@BBCNBLC@speedbackground?$AA@ 300ab914     cg_draw.obj
 0002:0000d924       ??_C@_0M@JLMPCMAJ@speed_tic?$CFd?$AA@ 300ab924     cg_draw.obj
 0002:0000d930       ??_C@_0BB@BKBBGJEG@shieldbackground?$AA@ 300ab930     cg_draw.obj
 0002:0000d944       ??_C@_0N@OMMCLJEJ@shield_tic?$CFd?$AA@ 300ab944     cg_draw.obj
 0002:0000d954       ??_C@_0L@EGCKCJDC@background?$AA@ 300ab954     cg_draw.obj
 0002:0000d960       ??_C@_0M@FIHNCPN@outer_frame?$AA@ 300ab960     cg_draw.obj
 0002:0000d96c       ??_C@_0BA@JPPCKGIP@swoopvehiclehud?$AA@ 300ab96c     cg_draw.obj
 0002:0000d97c       ??_C@_09EJFJOCIH@leftframe?$AA@ 300ab97c     cg_draw.obj
 0002:0000d988       ??_C@_0L@LKEPCBNP@rightframe?$AA@ 300ab988     cg_draw.obj
 0002:0000d994       ??_C@_0BB@LKHHKMDL@vehicledamagehud?$AA@ 300ab994     cg_draw.obj
 0002:0000d9a8       ??_C@_0BG@LENGIJP@enemyvehicledamagehud?$AA@ 300ab9a8     cg_draw.obj
 0002:0000d9c0       ??_C@_03FNPLCCOA@RED?$AA@  300ab9c0     cg_draw.obj
 0002:0000d9c4       ??_C@_04PFAOODAA@?$CFs?3?5?$AA@ 300ab9c4     cg_draw.obj
 0002:0000d9cc       ??_C@_01JOAMLHOP@?9?$AA@   300ab9cc     cg_draw.obj
 0002:0000d9d0       ??_C@_04CNFFLDFF@BLUE?$AA@ 300ab9d0     cg_draw.obj
 0002:0000d9d8       ??_C@_05IFECLAII@?5?$CFs?3?5?$AA@ 300ab9d8     cg_draw.obj
 0002:0000d9e0       ??_C@_09NAKPECJB@GET_SABER?$AA@ 300ab9e0     cg_draw.obj
 0002:0000d9ec       ??_C@_07KHFBGKLJ@DUELING?$AA@ 300ab9ec     cg_draw.obj
 0002:0000d9f4       ??_C@_06DBJEGKDN@LEADER?$AA@ 300ab9f4     cg_draw.obj
 0002:0000d9fc       ??_C@_0BH@OGHHEKME@time?3?$CFi?5snap?3?$CFi?5cmd?3?$CFi?$AA@ 300ab9fc     cg_draw.obj
 0002:0000da14       ??_C@_05MDNADFFP@?$CFifps?$AA@ 300aba14     cg_draw.obj
 0002:0000da1c       ??_C@_0BD@NPDPLFMD@team?$CFi_objective?$CFi?$AA@ 300aba1c     cg_draw.obj
 0002:0000da30       ??_C@_07FFDCCNEB@?$CFi?3?$CFi?$CFi?$AA@ 300aba30     cg_draw.obj
 0002:0000da38       ??_C@_07CIFAGBMG@unknown?$AA@ 300aba38     cg_draw.obj
 0002:0000da40       ??_C@_07FJAEFGNG@?$CF3i?5?$CF3i?$AA@ 300aba40     cg_draw.obj
 0002:0000da48       ??_C@_0BF@IAOLIPJ@gfx?1hud?1mpi_rflag_ys?$AA@ 300aba48     cg_draw.obj
 0002:0000da60       ??_C@_0BF@KEMOPKII@gfx?1hud?1mpi_bflag_ys?$AA@ 300aba60     cg_draw.obj
 0002:0000da78       ??_C@_0BF@CNEFMHOP@SERVER_CHANGING_MAPS?$AA@ 300aba78     cg_draw.obj
 0002:0000da90       ??_C@_0M@ONDMCFFB@PLEASE_WAIT?$AA@ 300aba90     cg_draw.obj
 0002:0000da9c       ??_C@_0BH@FMIOKFKB@CONNECTION_INTERRUPTED?$AA@ 300aba9c     cg_draw.obj
 0002:0000dab4       ??_C@_0P@NNJCDNEK@gfx?12d?1net?4tga?$AA@ 300abab4     cg_draw.obj
 0002:0000dac4       ??_C@_03KLKIPBNP@snc?$AA@  300abac4     cg_draw.obj
 0002:0000dac8       ??_C@_0BA@JDLOJMCJ@cg_siegeMessage?$AA@ 300abac8     cg_draw.obj
 0002:0000dad8       ??_C@_0L@MIIDNALC@siegeclass?$AA@ 300abad8     cg_draw.obj
 0002:0000dae4       ??_C@_0BH@MAPMCHKH@gfx?1effects?1saberFlare?$AA@ 300abae4     cg_draw.obj
 0002:0000dafc       ??_C@_0BO@OBMMJBM@sound?1weapons?1rocket?1lock?4wav?$AA@ 300abafc     cg_draw.obj
 0002:0000db1c       ??_C@_0BO@NPGLCAPC@sound?1weapons?1rocket?1tick?4wav?$AA@ 300abb1c     cg_draw.obj
 0002:0000db3c       ??_C@_0N@HFODKPEP@gfx?12d?1wedge?$AA@ 300abb3c     cg_draw.obj
 0002:0000db4c       ??_C@_0M@GFKDFJGL@gfx?12d?1lock?$AA@ 300abb4c     cg_draw.obj
 0002:0000db58       ??_C@_0N@MEJHFJDP@?$CKcannonflash?$AA@ 300abb58     cg_draw.obj
 0002:0000db68       ??_C@_0L@DNAFAEJK@?$CFs?5?$CIpilot?$CJ?$AA@ 300abb68     cg_draw.obj
 0002:0000db74       ??_C@_09GNDCBOBP@SPECTATOR?$AA@ 300abb74     cg_draw.obj
 0002:0000db80       ??_C@_03BDACDFHA@AND?$AA@  300abb80     cg_draw.obj
 0002:0000db84       ??_C@_0P@DEEIGBMI@SPECHUD_VERSUS?$AA@ 300abb84     cg_draw.obj
 0002:0000db94       ??_C@_0BD@KEONDFIM@?$CFs?$FO7?5?$CFs?5?$CFs?$FO7?5?$CFs?5?$CFs?$AA@ 300abb94     cg_draw.obj
 0002:0000dba8       ??_C@_0L@PHFNKFJL@?$CFs?$FO7?5?$CFs?5?$CFs?$AA@ 300abba8     cg_draw.obj
 0002:0000dbb4       ??_C@_0BA@OGEGDHKE@WAITING_TO_PLAY?$AA@ 300abbb4     cg_draw.obj
 0002:0000dbc4       ??_C@_0BA@EJICBNBF@SPEC_CHOOSEJOIN?$AA@ 300abbc4     cg_draw.obj
 0002:0000dbd4       ??_C@_0M@NBIMEKNE@map_restart?$AA@ 300abbd4     cg_draw.obj
 0002:0000dbe0       ??_C@_0M@FAFEHHMK@RESTART_MAP?$AA@ 300abbe0     cg_draw.obj
 0002:0000dbec       ??_C@_05ONMCFNBF@MENUS?$AA@ 300abbec     cg_draw.obj
 0002:0000dbf4       ??_C@_0N@NPFCFAAA@vstr?5nextmap?$AA@ 300abbf4     cg_draw.obj
 0002:0000dc04       ??_C@_08PBCAHACF@NEXT_MAP?$AA@ 300abc04     cg_draw.obj
 0002:0000dc10       ??_C@_0L@LPENDGCI@g_doWarmup?$AA@ 300abc10     cg_draw.obj
 0002:0000dc1c       ??_C@_06LLIEIDDF@WARMUP?$AA@ 300abc1c     cg_draw.obj
 0002:0000dc24       ??_C@_0L@GFINLBEC@g_gametype?$AA@ 300abc24     cg_draw.obj
 0002:0000dc30       ??_C@_09GKKNBHAH@GAME_TYPE?$AA@ 300abc30     cg_draw.obj
 0002:0000dc3c       ??_C@_0N@PCEMCJC@Free?5For?5All?$AA@ 300abc3c     cg_draw.obj
 0002:0000dc4c       ??_C@_0N@OPJELAJP@FREE_FOR_ALL?$AA@ 300abc4c     cg_draw.obj
 0002:0000dc5c       ??_C@_04EPBLILKF@Duel?$AA@ 300abc5c     cg_draw.obj
 0002:0000dc64       ??_C@_04ECOAEGNJ@DUEL?$AA@ 300abc64     cg_draw.obj
 0002:0000dc6c       ??_C@_0M@EBAJNKPF@Jedi?5Master?$AA@ 300abc6c     cg_draw.obj
 0002:0000dc78       ??_C@_0L@EJHINIDC@JEDIMASTER?$AA@ 300abc78     cg_draw.obj
 0002:0000dc84       ??_C@_09BLDMCLOM@OJP_MENUS?$AA@ 300abc84     cg_draw.obj
 0002:0000dc90       ??_C@_0N@BBLBINLJ@Holocron?5FFA?$AA@ 300abc90     cg_draw.obj
 0002:0000dca0       ??_C@_0N@IFFHBAH@HOLOCRON_FFA?$AA@ 300abca0     cg_draw.obj
 0002:0000dcb0       ??_C@_0L@MKHOILHK@Power?5Duel?$AA@ 300abcb0     cg_draw.obj
 0002:0000dcbc       ??_C@_09NHOBJKNB@POWERDUEL?$AA@ 300abcbc     cg_draw.obj
 0002:0000dcc8       ??_C@_08NFCDKJPC@Team?5FFA?$AA@ 300abcc8     cg_draw.obj
 0002:0000dcd4       ??_C@_08JPMGIABA@TEAM_FFA?$AA@ 300abcd4     cg_draw.obj
 0002:0000dce0       ??_C@_05JOPHEEP@Siege?$AA@ 300abce0     cg_draw.obj
 0002:0000dce8       ??_C@_05MFNFJGDH@SIEGE?$AA@ 300abce8     cg_draw.obj
 0002:0000dcf0       ??_C@_0BB@OOIHNFAG@Capture?5the?5Flag?$AA@ 300abcf0     cg_draw.obj
 0002:0000dd04       ??_C@_0BB@NFDNICPD@CAPTURE_THE_FLAG?$AA@ 300abd04     cg_draw.obj
 0002:0000dd18       ??_C@_0BG@BKPINHAJ@Capture?5the?5Ysalamiri?$AA@ 300abd18     cg_draw.obj
 0002:0000dd30       ??_C@_0BG@NKPMOGAN@CAPTURE_THE_YSALIMARI?$AA@ 300abd30     cg_draw.obj
 0002:0000dd48       ??_C@_0O@NNAOEDOE@Single?5Player?$AA@ 300abd48     cg_draw.obj
 0002:0000dd58       ??_C@_04CEIEPFLJ@COOP?$AA@ 300abd58     cg_draw.obj
 0002:0000dd60       ??_C@_04PJHBGHKA@SAGA?$AA@ 300abd60     cg_draw.obj
 0002:0000dd68       ??_C@_03HBNNNHNM@map?$AA@  300abd68     cg_draw.obj
 0002:0000dd6c       ??_C@_07LJKMPAIB@NEW_MAP?$AA@ 300abd6c     cg_draw.obj
 0002:0000dd74       ??_C@_04FNIJDBCC@kick?$AA@ 300abd74     cg_draw.obj
 0002:0000dd7c       ??_C@_0M@LLJHKPJL@KICK_PLAYER?$AA@ 300abd7c     cg_draw.obj
 0002:0000dd88       ??_C@_09KPHKOKCC@timelimit?$AA@ 300abd88     cg_draw.obj
 0002:0000dd94       ??_C@_09JPILNHNF@TIMELIMIT?$AA@ 300abd94     cg_draw.obj
 0002:0000dda0       ??_C@_09GCIEGDDN@fraglimit?$AA@ 300abda0     cg_draw.obj
 0002:0000ddac       ??_C@_09FCHFFOMK@FRAGLIMIT?$AA@ 300abdac     cg_draw.obj
 0002:0000ddb8       ??_C@_0N@FCAHJCDA@capturelimit?$AA@ 300abdb8     cg_draw.obj
 0002:0000ddc8       ??_C@_0N@EPCFLABN@CAPTURELIMIT?$AA@ 300abdc8     cg_draw.obj
 0002:0000ddd8       ??_C@_04KLECEHMO@VOTE?$AA@ 300abdd8     cg_draw.obj
 0002:0000dde0       ??_C@_03IPHJCBHH@YES?$AA@  300abde0     cg_draw.obj
 0002:0000dde4       ??_C@_02NFLNFON@NO?$AA@    300abde4     cg_draw.obj
 0002:0000dde8       ??_C@_0BL@FBILOGIK@?$CFs?$CI?$CFi?$CJ?3?$DM?$CFs?5?$CFs?$DO?5?$CFs?3?$CFi?5?$CFs?3?$CFi?$AA@ 300abde8     cg_draw.obj
 0002:0000de04       ??_C@_0BI@PGAFFJKF@?$CFs?$CI?$CFi?$CJ?3?$DM?$CFs?$DO?5?$CFs?3?$CFi?5?$CFs?3?$CFi?$AA@ 300abe04     cg_draw.obj
 0002:0000de1c       ??_C@_0BN@JCPMKMDP@OR_PRESS_ESC_THEN_CLICK_VOTE?$AA@ 300abe1c     cg_draw.obj
 0002:0000de3c       ??_C@_06DFLPLEOP@leader?$AA@ 300abe3c     cg_draw.obj
 0002:0000de44       ??_C@_0DI@OLEEFICH@TEAMVOTE?$CI?$CFi?$CJ?3?$CIMake?5?$CFs?5the?5new?5te@ 300abe44     cg_draw.obj
 0002:0000de7c       ??_C@_0BN@CPIJHJOL@TEAMVOTE?$CI?$CFi?$CJ?3?$CFs?5yes?3?$CFi?5no?3?$CFi?$AA@ 300abe7c     cg_draw.obj
 0002:0000de9c       ??_C@_0O@ELOHELF@FOLLOWINGLONE?$AA@ 300abe9c     cg_draw.obj
 0002:0000deac       ??_C@_0BA@IDFMPEMP@FOLLOWINGDOUBLE?$AA@ 300abeac     cg_draw.obj
 0002:0000debc       ??_C@_09CEHOCBMK@FOLLOWING?$AA@ 300abebc     cg_draw.obj
 0002:0000dec8       ??_C@_0BE@ECCNBCF@WAITING_FOR_PLAYERS?$AA@ 300abec8     cg_draw.obj
 0002:0000dedc       ??_C@_0BA@BLDJAJGC@?$CFs?5vs?5?$CFs?5and?5?$CFs?$AA@ 300abedc     cg_draw.obj
 0002:0000deec       ??_C@_08MFFNPGJB@?$CFs?5vs?5?$CFs?$AA@ 300abeec     cg_draw.obj
 0002:0000def8       ??_C@_09FKOGLEJP@STARTS_IN?$AA@ 300abef8     cg_draw.obj
 0002:0000df04       ??_C@_0BE@LDJCMFIK@gfx?1hud?1mpi_rflag_x?$AA@ 300abf04     cg_draw.obj
 0002:0000df18       ??_C@_0BE@MPCJPEKB@gfx?1hud?1mpi_bflag_x?$AA@ 300abf18     cg_draw.obj
 0002:0000df2c       ??_C@_08FDNPOCOG@mp_timer?$AA@ 300abf2c     cg_draw.obj
 0002:0000df38       ??_C@_07PKFONIJM@?$CFi?3?$CF02i?$AA@ 300abf38     cg_draw.obj
 0002:0000df40       ??_C@_05NAPFDJNG@timer?$AA@ 300abf40     cg_draw.obj
 0002:0000df48       ??_C@_06EBOOGEEL@?$CFi?30?$CFi?$AA@ 300abf48     cg_draw.obj
 0002:0000df50       ??_C@_05JIFBJDMF@?$CFi?3?$CFi?$AA@ 300abf50     cg_draw.obj
 0002:0000df58       ??_C@_0L@GCIALBI@deathtimer?$AA@ 300abf58     cg_draw.obj
 0002:0000df64       ??_C@_0CM@OKKPOFIP@CG_ChatBox_ArrayInsert?3?5Exceeded@ 300abf64     cg_draw.obj
 0002:0000df90       ??_C@_0O@NCEDBAEC@ROUNDBEGINSIN?$AA@ 300abf90     cg_draw.obj
 0002:0000dfa0       ??_C@_08IGIILICA@?$CFs?5?$CFi?4?4?4?$AA@ 300abfa0     cg_draw.obj
 0002:0000dfac       ??_C@_0CE@GNKHIBFA@CG_DrawActive?3?5Undefined?5stereoV@ 300abfac     cg_draw.obj
 0002:0000dfd0       __real@39800000            300abfd0     cg_draw.obj
 0002:0000dfd4       __real@3a800000            300abfd4     cg_draw.obj
 0002:0000dfd8       __real@3c000000            300abfd8     cg_draw.obj
 0002:0000dfdc       __real@3c23d70a            300abfdc     cg_draw.obj
 0002:0000dfe0       __real@3cda740e            300abfe0     cg_draw.obj
 0002:0000dfe4       __real@3d5a740e            300abfe4     cg_draw.obj
 0002:0000dfe8       __real@3d800000            300abfe8     cg_draw.obj
 0002:0000dff0       __real@3ed4f8b588e368f1    300abff0     cg_draw.obj
 0002:0000dff8       __real@3f747ae147ae147b    300abff8     cg_draw.obj
 0002:0000e000       __real@3f7ae148            300ac000     cg_draw.obj
 0002:0000e004       __real@3f866666            300ac004     cg_draw.obj
 0002:0000e008       __real@3f933333            300ac008     cg_draw.obj
 0002:0000e00c       __real@3fa00000            300ac00c     cg_draw.obj
 0002:0000e010       __real@3fa99999a0000000    300ac010     cg_draw.obj
 0002:0000e018       __real@3fb47ae140000000    300ac018     cg_draw.obj
 0002:0000e020       __real@3fb99999a0000000    300ac020     cg_draw.obj
 0002:0000e028       __real@3fc3333333333333    300ac028     cg_draw.obj
 0002:0000e030       __real@3fc3333340000000    300ac030     cg_draw.obj
 0002:0000e038       __real@3fd126e978d4fdf4    300ac038     cg_draw.obj
 0002:0000e040       __real@3fd3333340000000    300ac040     cg_draw.obj
 0002:0000e048       __real@3fd6666660000000    300ac048     cg_draw.obj
 0002:0000e050       __real@3fe6666660000000    300ac050     cg_draw.obj
 0002:0000e058       __real@3fe99999a0000000    300ac058     cg_draw.obj
 0002:0000e060       __real@404e000000000000    300ac060     cg_draw.obj
 0002:0000e068       __real@4067c00000000000    300ac068     cg_draw.obj
 0002:0000e070       __real@406e000000000000    300ac070     cg_draw.obj
 0002:0000e078       __real@4074000000000000    300ac078     cg_draw.obj
 0002:0000e080       __real@4082200000000000    300ac080     cg_draw.obj
 0002:0000e088       __real@408f400000000000    300ac088     cg_draw.obj
 0002:0000e090       __real@409f400000000000    300ac090     cg_draw.obj
 0002:0000e098       __real@40c00000            300ac098     cg_draw.obj
 0002:0000e09c       __real@41400000            300ac09c     cg_draw.obj
 0002:0000e0a0       __real@41500000            300ac0a0     cg_draw.obj
 0002:0000e0a4       __real@41940000            300ac0a4     cg_draw.obj
 0002:0000e0a8       __real@41c80000            300ac0a8     cg_draw.obj
 0002:0000e0ac       __real@41e00000            300ac0ac     cg_draw.obj
 0002:0000e0b0       __real@42400000            300ac0b0     cg_draw.obj
 0002:0000e0b4       __real@42440000            300ac0b4     cg_draw.obj
 0002:0000e0b8       __real@42652f1b            300ac0b8     cg_draw.obj
 0002:0000e0bc       __real@42680000            300ac0bc     cg_draw.obj
 0002:0000e0c0       __real@42820000            300ac0c0     cg_draw.obj
 0002:0000e0c4       __real@42c00000            300ac0c4     cg_draw.obj
 0002:0000e0c8       __real@42c60000            300ac0c8     cg_draw.obj
 0002:0000e0cc       __real@42cc0000            300ac0cc     cg_draw.obj
 0002:0000e0d0       __real@42ce0000            300ac0d0     cg_draw.obj
 0002:0000e0d4       __real@42e60000            300ac0d4     cg_draw.obj
 0002:0000e0d8       __real@42f00000            300ac0d8     cg_draw.obj
 0002:0000e0dc       __real@43060000            300ac0dc     cg_draw.obj
 0002:0000e0e0       __real@43220000            300ac0e0     cg_draw.obj
 0002:0000e0e4       __real@43710000            300ac0e4     cg_draw.obj
 0002:0000e0e8       __real@438d0000            300ac0e8     cg_draw.obj
 0002:0000e0ec       __real@43a00000            300ac0ec     cg_draw.obj
 0002:0000e0f0       __real@43b00000            300ac0f0     cg_draw.obj
 0002:0000e0f4       __real@43b78000            300ac0f4     cg_draw.obj
 0002:0000e0f8       __real@43c00000            300ac0f8     cg_draw.obj
 0002:0000e0fc       __real@43cd8000            300ac0fc     cg_draw.obj
 0002:0000e100       __real@43f00000            300ac100     cg_draw.obj
 0002:0000e104       __real@43fa0000            300ac104     cg_draw.obj
 0002:0000e108       __real@44098000            300ac108     cg_draw.obj
 0002:0000e10c       __real@44110000            300ac10c     cg_draw.obj
 0002:0000e110       __real@44120000            300ac110     cg_draw.obj
 0002:0000e114       __real@44190000            300ac114     cg_draw.obj
 0002:0000e118       __real@44200000            300ac118     cg_draw.obj
 0002:0000e11c       __real@44610000            300ac11c     cg_draw.obj
 0002:0000e120       __real@44bb8000            300ac120     cg_draw.obj
 0002:0000e124       __real@44f78001            300ac124     cg_draw.obj
 0002:0000e128       __real@45160000            300ac128     cg_draw.obj
 0002:0000e12c       __real@453b8000            300ac12c     cg_draw.obj
 0002:0000e130       __real@45505555            300ac130     cg_draw.obj
 0002:0000e134       __real@45ce4001            300ac134     cg_draw.obj
 0002:0000e138       __real@460ca000            300ac138     cg_draw.obj
 0002:0000e13c       __real@461c4000            300ac13c     cg_draw.obj
 0002:0000e140       __real@48000000            300ac140     cg_draw.obj
 0002:0000e148       __real@bfe0000000000000    300ac148     cg_draw.obj
 0002:0000e150       __real@c1800000            300ac150     cg_draw.obj
 0002:0000e160       __xmm@3dcccccd3e99999a3dcccccd3dcccccd 300ac160     cg_draw.obj
 0002:0000e170       __xmm@3dcccccd3f0000003f0000003f000000 300ac170     cg_draw.obj
 0002:0000e180       __xmm@3e99999a3e4ccccd3ecccccd3e4ccccd 300ac180     cg_draw.obj
 0002:0000e190       __xmm@3ea8f5c300000000000000003f800000 300ac190     cg_draw.obj
 0002:0000e1a0       __xmm@3ea8f5c33f8000000000000000000000 300ac1a0     cg_draw.obj
 0002:0000e1b0       __xmm@3ecccccd00000000000000003f800000 300ac1b0     cg_draw.obj
 0002:0000e1c0       __xmm@3ecccccd000000003f80000000000000 300ac1c0     cg_draw.obj
 0002:0000e1d0       __xmm@3ecccccd000000003f8000003f800000 300ac1d0     cg_draw.obj
 0002:0000e1e0       __xmm@3ecccccd3f0000003f0000003f000000 300ac1e0     cg_draw.obj
 0002:0000e1f0       __xmm@3f4ccccd00000000000000003f000000 300ac1f0     cg_draw.obj
 0002:0000e200       __xmm@3f4ccccd00000000000000003f800000 300ac200     cg_draw.obj
 0002:0000e210       __xmm@3f4ccccd3dc6a7f03f1ced9100000000 300ac210     cg_draw.obj
 0002:0000e220       __xmm@3f4ccccd3f19999a0000000000000000 300ac220     cg_draw.obj
 0002:0000e230       __xmm@3f4ccccd3f7ef9db3ec000003f00c49c 300ac230     cg_draw.obj
 0002:0000e240       __xmm@3f8000003f0000003f0000003f000000 300ac240     cg_draw.obj
 0002:0000e250       __xmm@3f8000003f1ef9db3f4000003e9fbe77 300ac250     cg_draw.obj
 0002:0000e260       __real@3d000000            300ac260     cg_drawtools.obj
 0002:0000e268       __real@3f90000000000000    300ac268     cg_drawtools.obj
 0002:0000e270       __real@3f99999a            300ac270     cg_drawtools.obj
 0002:0000e278       __real@3fb0000000000000    300ac278     cg_drawtools.obj
 0002:0000e280       __real@403e000000000000    300ac280     cg_drawtools.obj
 0002:0000e288       __real@4040800000000000    300ac288     cg_drawtools.obj
 0002:0000e290       __real@4069000000000000    300ac290     cg_drawtools.obj
 0002:0000e298       ??_C@_0BO@IMOAEHBH@sound?1effects?1glassbreak1?4wav?$AA@ 300ac298     cg_effects.obj
 0002:0000e2b8       ??_C@_0BC@KHOJEJFN@chunks?1glassbreak?$AA@ 300ac2b8     cg_effects.obj
 0002:0000e2cc       ??_C@_0BE@PFGIPPAI@chunks?1metalexplode?$AA@ 300ac2cc     cg_effects.obj
 0002:0000e2e0       ??_C@_0BE@FIGLPACF@chunks?1sparkexplode?$AA@ 300ac2e0     cg_effects.obj
 0002:0000e2f4       ??_C@_0BE@FDCAJCD@chunks?1grateexplode?$AA@ 300ac2f4     cg_effects.obj
 0002:0000e308       ??_C@_0BB@IAFIADNA@chunks?1ropebreak?$AA@ 300ac308     cg_effects.obj
 0002:0000e31c       ??_C@_0BD@HHBLDKKA@chunks?1rockbreaklg?$AA@ 300ac31c     cg_effects.obj
 0002:0000e330       ??_C@_0BE@GMAIKFHK@chunks?1rockbreakmed?$AA@ 300ac330     cg_effects.obj
 0002:0000e344       ??_C@_0BL@HGMHPONK@sound?1ambience?1spark?$CFd?4wav?$AA@ 300ac344     cg_effects.obj
 0002:0000e360       __real@3c1374bc            300ac360     cg_effects.obj
 0002:0000e364       __real@3d23d70a            300ac364     cg_effects.obj
 0002:0000e368       __real@3f2a36e2eb1c432d    300ac368     cg_effects.obj
 0002:0000e370       __real@3f9eb851e0000000    300ac370     cg_effects.obj
 0002:0000e378       __real@4020000000000000    300ac378     cg_effects.obj
 0002:0000e380       __real@4030000000000000    300ac380     cg_effects.obj
 0002:0000e388       __real@4044000000000000    300ac388     cg_effects.obj
 0002:0000e390       __real@4052c00000000000    300ac390     cg_effects.obj
 0002:0000e398       __real@4062c00000000000    300ac398     cg_effects.obj
 0002:0000e3a0       __real@435c0000            300ac3a0     cg_effects.obj
 0002:0000e3a4       __real@437f0000            300ac3a4     cg_effects.obj
 0002:0000e3b0       __xmm@3f8000003f8000003f8000003f800000 300ac3b0     cg_effects.obj
 0002:0000e3c0       __xmm@3f80000042aa0000000000003e19999a 300ac3c0     cg_effects.obj
 0002:0000e3d0       ??_C@_0CC@LDMLFDGF@models?1map_objects?1mp?1lt_heal?4md@ 300ac3d0     cg_ents.obj
 0002:0000e3f4       ??_C@_0CF@GHNLPHPI@models?1map_objects?1mp?1force_jump@ 300ac3f4     cg_ents.obj
 0002:0000e41c       ??_C@_0CG@JFCOPPHE@models?1map_objects?1mp?1force_spee@ 300ac41c     cg_ents.obj
 0002:0000e444       ??_C@_0CF@IGFBFIHC@models?1map_objects?1mp?1force_push@ 300ac444     cg_ents.obj
 0002:0000e46c       ??_C@_0CF@IMFGPGED@models?1map_objects?1mp?1force_pull@ 300ac46c     cg_ents.obj
 0002:0000e494       ??_C@_0CH@EPHIGDHG@models?1map_objects?1mp?1lt_telepat@ 300ac494     cg_ents.obj
 0002:0000e4bc       ??_C@_0CC@GGPFGOPC@models?1map_objects?1mp?1dk_grip?4md@ 300ac4bc     cg_ents.obj
 0002:0000e4e0       ??_C@_0CH@NPBCBKGE@models?1map_objects?1mp?1dk_lightni@ 300ac4e0     cg_ents.obj
 0002:0000e508       ??_C@_0CC@HBLCLHHB@models?1map_objects?1mp?1dk_rage?4md@ 300ac508     cg_ents.obj
 0002:0000e52c       ??_C@_0CF@JKKDFLBL@models?1map_objects?1mp?1lt_protect@ 300ac52c     cg_ents.obj
 0002:0000e554       ??_C@_0CE@OIMHGLCM@models?1map_objects?1mp?1lt_absorb?4@ 300ac554     cg_ents.obj
 0002:0000e578       ??_C@_0CH@PGCLJJGA@models?1map_objects?1mp?1lt_healoth@ 300ac578     cg_ents.obj
 0002:0000e5a0       ??_C@_0CI@BGHKIJBN@models?1map_objects?1mp?1dk_powerot@ 300ac5a0     cg_ents.obj
 0002:0000e5c8       ??_C@_0CD@GJNKCFIP@models?1map_objects?1mp?1dk_drain?4m@ 300ac5c8     cg_ents.obj
 0002:0000e5ec       ??_C@_0CG@LFGJGPHI@models?1map_objects?1mp?1force_sigh@ 300ac5ec     cg_ents.obj
 0002:0000e614       ??_C@_0CH@EECFHMAE@models?1map_objects?1mp?1saber_atta@ 300ac614     cg_ents.obj
 0002:0000e63c       ??_C@_0CH@GLODINII@models?1map_objects?1mp?1saber_defe@ 300ac63c     cg_ents.obj
 0002:0000e664       ??_C@_0CG@PIHMAPBC@models?1map_objects?1mp?1saber_thro@ 300ac664     cg_ents.obj
 0002:0000e68c       ??_C@_09DIABHAFB@cl_paused?$AA@ 300ac68c     cg_ents.obj
 0002:0000e698       ??_C@_0BH@IJFAKHJP@gfx?1misc?1red_dmgshield?$AA@ 300ac698     cg_ents.obj
 0002:0000e6b0       ??_C@_0BJ@BMIANOGO@gfx?1misc?1red_portashield?$AA@ 300ac6b0     cg_ents.obj
 0002:0000e6cc       ??_C@_0BI@JOPMALJL@gfx?1misc?1blue_dmgshield?$AA@ 300ac6cc     cg_ents.obj
 0002:0000e6e4       ??_C@_0BK@KHIMODAF@gfx?1misc?1blue_portashield?$AA@ 300ac6e4     cg_ents.obj
 0002:0000e700       ??_C@_05FIALHFBO@lhand?$AA@ 300ac700     cg_ents.obj
 0002:0000e708       ??_C@_0L@OPBBEMAA@model_root?$AA@ 300ac708     cg_ents.obj
 0002:0000e714       ??_C@_0P@EIKCKNBB@head_cap_torso?$AA@ 300ac714     cg_ents.obj
 0002:0000e724       ??_C@_0P@PJCLBOLM@torso_cap_head?$AA@ 300ac724     cg_ents.obj
 0002:0000e734       ??_C@_0BA@JAEGCEPC@?$CKhead_cap_torso?$AA@ 300ac734     cg_ents.obj
 0002:0000e744       ??_C@_0BA@CBMPJHFP@?$CKtorso_cap_head?$AA@ 300ac744     cg_ents.obj
 0002:0000e754       ??_C@_05LAAIDIGB@torso?$AA@ 300ac754     cg_ents.obj
 0002:0000e75c       ??_C@_0P@KLJKOMNF@torso_cap_hips?$AA@ 300ac75c     cg_ents.obj
 0002:0000e76c       ??_C@_0P@HDEGEHBA@hips_cap_torso?$AA@ 300ac76c     cg_ents.obj
 0002:0000e77c       ??_C@_0BA@HDHOGFDG@?$CKtorso_cap_hips?$AA@ 300ac77c     cg_ents.obj
 0002:0000e78c       ??_C@_0BA@KLKCMOPD@?$CKhips_cap_torso?$AA@ 300ac78c     cg_ents.obj
 0002:0000e79c       ??_C@_0N@BAHIHPBK@?$CFs_cap_torso?$AA@ 300ac79c     cg_ents.obj
 0002:0000e7ac       ??_C@_0N@CPIELHKO@?$CFs_cap_l_arm?$AA@ 300ac7ac     cg_ents.obj
 0002:0000e7bc       ??_C@_0BB@OBMDNPC@?$CKl_arm_cap_torso?$AA@ 300ac7bc     cg_ents.obj
 0002:0000e7d0       ??_C@_0BB@EDANKLOL@?$CKtorso_cap_l_arm?$AA@ 300ac7d0     cg_ents.obj
 0002:0000e7e4       ??_C@_07LAEDECAM@rradius?$AA@ 300ac7e4     cg_ents.obj
 0002:0000e7ec       ??_C@_0N@BGFINEEF@?$CFs_cap_r_arm?$AA@ 300ac7ec     cg_ents.obj
 0002:0000e7fc       ??_C@_0BB@MILJPFMH@?$CKr_arm_cap_torso?$AA@ 300ac7fc     cg_ents.obj
 0002:0000e810       ??_C@_0BB@HKNBMIAA@?$CKtorso_cap_r_arm?$AA@ 300ac810     cg_ents.obj
 0002:0000e824       ??_C@_05GBNHBGPF@rhand?$AA@ 300ac824     cg_ents.obj
 0002:0000e82c       ??_C@_0O@EKMLGHDB@?$CFs_cap_r_hand?$AA@ 300ac82c     cg_ents.obj
 0002:0000e83c       ??_C@_0BC@HJGOBMJP@?$CKr_hand_cap_r_arm?$AA@ 300ac83c     cg_ents.obj
 0002:0000e850       ??_C@_0BC@LCHBAINC@?$CKr_arm_cap_r_hand?$AA@ 300ac850     cg_ents.obj
 0002:0000e864       ??_C@_06IANLMJDK@ltibia?$AA@ 300ac864     cg_ents.obj
 0002:0000e86c       ??_C@_05JOBIHFHH@l_leg?$AA@ 300ac86c     cg_ents.obj
 0002:0000e874       ??_C@_04IGFCMOIC@hips?$AA@ 300ac874     cg_ents.obj
 0002:0000e87c       ??_C@_0M@PMPHMNGC@?$CFs_cap_hips?$AA@ 300ac87c     cg_ents.obj
 0002:0000e888       ??_C@_0N@DOGIDCAM@?$CFs_cap_l_leg?$AA@ 300ac888     cg_ents.obj
 0002:0000e898       ??_C@_0BA@EEEEHBHJ@?$CKl_leg_cap_hips?$AA@ 300ac898     cg_ents.obj
 0002:0000e8a8       ??_C@_0BA@IFLCIDOF@?$CKhips_cap_l_leg?$AA@ 300ac8a8     cg_ents.obj
 0002:0000e8b8       ??_C@_06LHDKCOKJ@rtibia?$AA@ 300ac8b8     cg_ents.obj
 0002:0000e8c0       ??_C@_05KHMEBGJM@r_leg?$AA@ 300ac8c0     cg_ents.obj
 0002:0000e8c8       ??_C@_0N@HLEFBOH@?$CFs_cap_r_leg?$AA@ 300ac8c8     cg_ents.obj
 0002:0000e8d8       ??_C@_0BA@ONFFPGED@?$CKr_leg_cap_hips?$AA@ 300ac8d8     cg_ents.obj
 0002:0000e8e8       ??_C@_0BA@LMGOOAAO@?$CKhips_cap_r_leg?$AA@ 300ac8e8     cg_ents.obj
 0002:0000e8f8       ??_C@_06KLEEIGKC@Bone02?$AA@ 300ac8f8     cg_ents.obj
 0002:0000e900       ??_C@_0BD@FDGGIEPJ@model_default?4skin?$AA@ 300ac900     cg_ents.obj
 0002:0000e914       ??_C@_0BL@MCJIELFO@gfx?1effects?1turretflashdie?$AA@ 300ac914     cg_ents.obj
 0002:0000e930       ??_C@_0DB@JMBCFHFK@models?1map_objects?1imp_mine?1turr@ 300ac930     cg_ents.obj
 0002:0000e964       ??_C@_0BM@OAKPMOJG@sound?1weapons?1force?1see?4wav?$AA@ 300ac964     cg_ents.obj
 0002:0000e980       ??_C@_0BO@GKODPFDH@sound?1weapons?1force?1lightning?$AA@ 300ac980     cg_ents.obj
 0002:0000e9a0       ??_C@_0CC@PEOLNCAE@sound?1weapons?1saber?1saberhum1?4wa@ 300ac9a0     cg_ents.obj
 0002:0000e9c4       ??_C@_0BM@DFPOGHOF@Bad?5item?5index?5?$CFi?5on?5entity?$AA@ 300ac9c4     cg_ents.obj
 0002:0000e9e0       ??_C@_0CC@EKOKLPLD@gfx?1misc?1mp_light_enlight_disabl@ 300ac9e0     cg_ents.obj
 0002:0000ea04       ??_C@_0CB@EEJJHDFD@gfx?1misc?1mp_dark_enlight_disable@ 300aca04     cg_ents.obj
 0002:0000ea28       ??_C@_08PJKKDMJN@?$CKblade?$CFi?$AA@ 300aca28     cg_ents.obj
 0002:0000ea34       ??_C@_06PDDIJHJI@?$CKflash?$AA@ 300aca34     cg_ents.obj
 0002:0000ea3c       ??_C@_0DB@OLDIELNC@CG_InterpoateEntityPosition?3?5cg?4@ 300aca3c     cg_ents.obj
 0002:0000ea70       ??_C@_0BF@NGFHFBLN@Bad?5entity?5type?3?5?$CFi?6?$AA@ 300aca70     cg_ents.obj
 0002:0000ea88       ??_C@_06HOPIODND@effect?$AA@ 300aca88     cg_ents.obj
 0002:0000ea90       ??_C@_05MHNANJII@sound?$AA@ 300aca90     cg_ents.obj
 0002:0000ea98       ??_C@_04GKOOIABA@loop?$AA@ 300aca98     cg_ents.obj
 0002:0000eaa0       ??_C@_0DH@BKFOMJJG@?$FO3Warning?3?5?$CC?$CFs?$CC?5is?5an?5invalid?5RO@ 300acaa0     cg_ents.obj
 0002:0000ead8       ??_C@_0DL@LDBLCIHM@?$FO3Warning?3?5Notetrack?5is?5missing?5@ 300acad8     cg_ents.obj
 0002:0000eb14       __real@3b03126f            300acb14     cg_ents.obj
 0002:0000eb18       __real@3b449ba6            300acb18     cg_ents.obj
 0002:0000eb1c       __real@3ba3d70a            300acb1c     cg_ents.obj
 0002:0000eb20       __real@3ee4f8b588e368f1    300acb20     cg_ents.obj
 0002:0000eb28       __real@3f40000000000000    300acb28     cg_ents.obj
 0002:0000eb30       __real@3f59999a            300acb30     cg_ents.obj
 0002:0000eb38       __real@3f70000000000000    300acb38     cg_ents.obj
 0002:0000eb40       __real@3fb47ae147ae147b    300acb40     cg_ents.obj
 0002:0000eb48       __real@3fd99999a0000000    300acb48     cg_ents.obj
 0002:0000eb50       __real@4010000000000000    300acb50     cg_ents.obj
 0002:0000eb58       __real@4034000000000000    300acb58     cg_ents.obj
 0002:0000eb60       __real@406fc00000000000    300acb60     cg_ents.obj
 0002:0000eb68       __real@406fe00000000000    300acb68     cg_ents.obj
 0002:0000eb70       __real@4076800000000000    300acb70     cg_ents.obj
 0002:0000eb78       __real@40d33333            300acb78     cg_ents.obj
 0002:0000eb7c       __real@44000000            300acb7c     cg_ents.obj
 0002:0000eb80       __real@44800000            300acb80     cg_ents.obj
 0002:0000eb84       __real@45000000            300acb84     cg_ents.obj
 0002:0000eb88       __real@45480000            300acb88     cg_ents.obj
 0002:0000eb8c       __real@468ca000            300acb8c     cg_ents.obj
 0002:0000eb90       __real@ba800000            300acb90     cg_ents.obj
 0002:0000eb94       ??_C@_06IHNDPNLA@VC_ATT?$AA@ 300acb94     cg_event.obj
 0002:0000eb9c       ??_C@_0P@KHGJOOIF@VC_ATT_PRIMARY?$AA@ 300acb9c     cg_event.obj
 0002:0000ebac       ??_C@_0BB@KLJFCOAG@VC_ATT_SECONDARY?$AA@ 300acbac     cg_event.obj
 0002:0000ebc0       ??_C@_0M@JFELNFCA@VC_DEF_GUNS?$AA@ 300acbc0     cg_event.obj
 0002:0000ebcc       ??_C@_0BA@HLFKBIC@VC_DEF_POSITION?$AA@ 300acbcc     cg_event.obj
 0002:0000ebdc       ??_C@_0P@HDOJNDEL@VC_DEF_PRIMARY?$AA@ 300acbdc     cg_event.obj
 0002:0000ebec       ??_C@_0BB@KGIEEMFH@VC_DEF_SECONDARY?$AA@ 300acbec     cg_event.obj
 0002:0000ec00       ??_C@_0BA@EFOCDAMI@VC_REPLY_COMING?$AA@ 300acc00     cg_event.obj
 0002:0000ec10       ??_C@_0M@JCBGJIEP@VC_REPLY_GO?$AA@ 300acc10     cg_event.obj
 0002:0000ec1c       ??_C@_0M@JNMHKDMA@VC_REPLY_NO?$AA@ 300acc1c     cg_event.obj
 0002:0000ec28       ??_C@_0O@IBGMDKJM@VC_REPLY_STAY?$AA@ 300acc28     cg_event.obj
 0002:0000ec38       ??_C@_0N@MKDGOBHE@VC_REPLY_YES?$AA@ 300acc38     cg_event.obj
 0002:0000ec48       ??_C@_0O@EPKPIMNE@VC_REQ_ASSIST?$AA@ 300acc48     cg_event.obj
 0002:0000ec58       ??_C@_0M@BLGAICNA@VC_REQ_DEMO?$AA@ 300acc58     cg_event.obj
 0002:0000ec64       ??_C@_0L@PNFMICJA@VC_REQ_HVY?$AA@ 300acc64     cg_event.obj
 0002:0000ec70       ??_C@_0N@DBGMMGA@VC_REQ_MEDIC?$AA@ 300acc70     cg_event.obj
 0002:0000ec80       ??_C@_0O@KBNCBKOL@VC_REQ_SUPPLY?$AA@ 300acc80     cg_event.obj
 0002:0000ec90       ??_C@_0M@DOFPKOJP@VC_REQ_TECH?$AA@ 300acc90     cg_event.obj
 0002:0000ec9c       ??_C@_0M@FFBELII@VC_SPOT_AIR?$AA@ 300acc9c     cg_event.obj
 0002:0000eca8       ??_C@_0M@BFDLJFIL@VC_SPOT_DEF?$AA@ 300acca8     cg_event.obj
 0002:0000ecb4       ??_C@_0BB@OFFPFDGF@VC_SPOT_EMPLACED?$AA@ 300accb4     cg_event.obj
 0002:0000ecc8       ??_C@_0P@CPGCNJAC@VC_SPOT_SNIPER?$AA@ 300accc8     cg_event.obj
 0002:0000ecd8       ??_C@_0O@DFHBKCFK@VC_SPOT_TROOP?$AA@ 300accd8     cg_event.obj
 0002:0000ece8       ??_C@_0N@LNBDOHMM@VC_TAC_COVER?$AA@ 300acce8     cg_event.obj
 0002:0000ecf8       ??_C@_0BA@JEJBIDNE@VC_TAC_FALLBACK?$AA@ 300accf8     cg_event.obj
 0002:0000ed08       ??_C@_0O@HGALIJMC@VC_TAC_FOLLOW?$AA@ 300acd08     cg_event.obj
 0002:0000ed18       ??_C@_0M@FEAKMGNO@VC_TAC_HOLD?$AA@ 300acd18     cg_event.obj
 0002:0000ed24       ??_C@_0N@DMJBAMBN@VC_TAC_SPLIT?$AA@ 300acd24     cg_event.obj
 0002:0000ed34       ??_C@_0BA@CLAAAGCB@VC_TAC_TOGETHER?$AA@ 300acd34     cg_event.obj
 0002:0000ed44       ??_C@_05KNDGHGBL@None?$DP?$AA@ 300acd44     cg_event.obj
 0002:0000ed4c       ??_C@_05KFNPJBME@AT?9ST?$AA@ 300acd4c     cg_event.obj
 0002:0000ed54       ??_C@_09KCBKJCAI@Bartender?$AA@ 300acd54     cg_event.obj
 0002:0000ed60       ??_C@_0L@EAOIAFKJ@Bespin?5Cop?$AA@ 300acd60     cg_event.obj
 0002:0000ed6c       ??_C@_04HOBFCMOG@Claw?$AA@ 300acd6c     cg_event.obj
 0002:0000ed74       ??_C@_08HLDJJNHM@Commando?$AA@ 300acd74     cg_event.obj
 0002:0000ed80       ??_C@_06ODBEFHI@Desann?$AA@ 300acd80     cg_event.obj
 0002:0000ed88       ??_C@_04FDNDCKCE@Fish?$AA@ 300acd88     cg_event.obj
 0002:0000ed90       ??_C@_06PBMDCLOF@Fliers?$AA@ 300acd90     cg_event.obj
 0002:0000ed98       ??_C@_05EGNOGBLF@Galak?$AA@ 300acd98     cg_event.obj
 0002:0000eda0       ??_C@_06OPHKMDIA@Glider?$AA@ 300acda0     cg_event.obj
 0002:0000eda8       ??_C@_0L@KPHDIAEJ@Gonk?5Droid?$AA@ 300acda8     cg_event.obj
 0002:0000edb4       ??_C@_04KAFDADJC@Gran?$AA@ 300acdb4     cg_event.obj
 0002:0000edbc       ??_C@_06IFMCMAML@Howler?$AA@ 300acdbc     cg_event.obj
 0002:0000edc4       ??_C@_0BB@KLDILBBJ@Imperial?5Officer?$AA@ 300acdc4     cg_event.obj
 0002:0000edd8       ??_C@_0BA@BKNONCLD@Imperial?5Worker?$AA@ 300acdd8     cg_event.obj
 0002:0000ede8       ??_C@_0BD@DCIPHNDK@Interrogator?5Droid?$AA@ 300acde8     cg_event.obj
 0002:0000edfc       ??_C@_03JIHJHPIE@Jan?$AA@  300acdfc     cg_event.obj
 0002:0000ee00       ??_C@_04NMIHPMCJ@Jedi?$AA@ 300ace00     cg_event.obj
 0002:0000ee08       ??_C@_0M@MCIKNFFJ@Kyle?5Katarn?$AA@ 300ace08     cg_event.obj
 0002:0000ee14       ??_C@_0BB@JOOLNBMK@Lando?5Calrissian?$AA@ 300ace14     cg_event.obj
 0002:0000ee28       ??_C@_06KINPBLIL@Lizard?$AA@ 300ace28     cg_event.obj
 0002:0000ee30       ??_C@_0P@CACEGALJ@Luke?5Skywalker?$AA@ 300ace30     cg_event.obj
 0002:0000ee40       ??_C@_0N@LGNGCK@Mark?51?5Droid?$AA@ 300ace40     cg_event.obj
 0002:0000ee50       ??_C@_0N@IODJNBMJ@Mark?52?5Droid?$AA@ 300ace50     cg_event.obj
 0002:0000ee60       ??_C@_0BC@DJCEHCPK@Galak?8s?5Mech?5Suit?$AA@ 300ace60     cg_event.obj
 0002:0000ee74       ??_C@_0N@PMOONEOJ@Mine?5Monster?$AA@ 300ace74     cg_event.obj
 0002:0000ee84       ??_C@_0L@NGMIEPCG@Mon?5Mothma?$AA@ 300ace84     cg_event.obj
 0002:0000ee90       ??_C@_0O@LFIPBEAF@Morgan?5Katarn?$AA@ 300ace90     cg_event.obj
 0002:0000eea0       ??_C@_0M@FFDLIJHD@Mouse?5Droid?$AA@ 300acea0     cg_event.obj
 0002:0000eeac       ??_C@_05NHKNINJN@Murjj?$AA@ 300aceac     cg_event.obj
 0002:0000eeb4       ??_C@_08IFMHDIIA@Prisoner?$AA@ 300aceb4     cg_event.obj
 0002:0000eec0       ??_C@_0M@CJNJKLLO@Probe?5Droid?$AA@ 300acec0     cg_event.obj
 0002:0000eecc       ??_C@_0P@KDKNIHDO@Protocol?5Droid?$AA@ 300acecc     cg_event.obj
 0002:0000eedc       ??_C@_04LLMPNFAO@R2D2?$AA@ 300acedc     cg_event.obj
 0002:0000eee4       ??_C@_04CGBIONLH@R5D2?$AA@ 300acee4     cg_event.obj
 0002:0000eeec       ??_C@_0O@PHNFDCEG@Rebel?5Soldier?$AA@ 300aceec     cg_event.obj
 0002:0000eefc       ??_C@_06KCFMHPJJ@Reborn?$AA@ 300acefc     cg_event.obj
 0002:0000ef04       ??_C@_0M@MNMBHECM@Reelo?5Baruk?$AA@ 300acf04     cg_event.obj
 0002:0000ef10       ??_C@_0N@PGAPMPCB@Droid?5Remote?$AA@ 300acf10     cg_event.obj
 0002:0000ef20       ??_C@_06LHIMOLKK@Rodian?$AA@ 300acf20     cg_event.obj
 0002:0000ef28       ??_C@_0N@PJILBFDB@Seeker?5Droid?$AA@ 300acf28     cg_event.obj
 0002:0000ef38       ??_C@_06EDEAMNCE@Sentry?$AA@ 300acf38     cg_event.obj
 0002:0000ef40       ??_C@_0O@EPANOECJ@Shadowtrooper?$AA@ 300acf40     cg_event.obj
 0002:0000ef50       ??_C@_0N@HGDMLILJ@Stormtrooper?$AA@ 300acf50     cg_event.obj
 0002:0000ef60       ??_C@_06HLINNJN@Swamp?$DP?$AA@ 300acf60     cg_event.obj
 0002:0000ef68       ??_C@_0N@NIPODOAM@Swamptrooper?$AA@ 300acf68     cg_event.obj
 0002:0000ef78       ??_C@_06POOIFGAI@Tavion?$AA@ 300acf78     cg_event.obj
 0002:0000ef80       ??_C@_0L@FEAKOFMK@Trandoshan?$AA@ 300acf80     cg_event.obj
 0002:0000ef8c       ??_C@_08HJGICLOC@Ugnaught?$AA@ 300acf8c     cg_event.obj
 0002:0000ef98       ??_C@_04IFFMPMFP@Jawa?$AA@ 300acf98     cg_event.obj
 0002:0000efa0       ??_C@_07GLDCNNJL@Weequay?$AA@ 300acfa0     cg_event.obj
 0002:0000efa8       ??_C@_09HOKDDNGG@Boba?5Fett?$AA@ 300acfa8     cg_event.obj
 0002:0000efb4       ??_C@_07NAELNENF@Vehicle?$AA@ 300acfb4     cg_event.obj
 0002:0000efbc       ??_C@_0BC@BLOELEJM@Fluffy?5the?5Rancor?$AA@ 300acfbc     cg_event.obj
 0002:0000efd0       ??_C@_0BB@EKADJCED@Frosty?5the?5Wampa?$AA@ 300acfd0     cg_event.obj
 0002:0000efe4       ??_C@_08OEHKCGHF@Saboteur?$AA@ 300acfe4     cg_event.obj
 0002:0000eff0       ??_C@_0O@MEHIBBDG@Sand?5Creature?$AA@ 300acff0     cg_event.obj
 0002:0000f000       ??_C@_05JOCNBMFE@Alora?$AA@ 300ad000     cg_event.obj
 0002:0000f008       ??_C@_0O@POBNMFFC@Rockettrooper?$AA@ 300ad008     cg_event.obj
 0002:0000f018       ??_C@_0M@IOLCAFMP@Saber?5Droid?$AA@ 300ad018     cg_event.obj
 0002:0000f024       ??_C@_0P@MLEAAODB@Assassin?5Droid?$AA@ 300ad024     cg_event.obj
 0002:0000f034       ??_C@_0P@IDBCABON@Hazard?5Trooper?$AA@ 300ad034     cg_event.obj
 0002:0000f044       ??_C@_0BB@JIAFONNM@Player?8s?5Standin?$AA@ 300ad044     cg_event.obj
 0002:0000f058       ??_C@_0O@MJJBPLLD@Tusken?5Raider?$AA@ 300ad058     cg_event.obj
 0002:0000f068       ??_C@_0BE@KOEAJGML@MP_INGAME_NUMBER_ST?$AA@ 300ad068     cg_event.obj
 0002:0000f07c       ??_C@_0BE@PAHMLELJ@MP_INGAME_NUMBER_ND?$AA@ 300ad07c     cg_event.obj
 0002:0000f090       ??_C@_0BE@OFEAOOKN@MP_INGAME_NUMBER_RD?$AA@ 300ad090     cg_event.obj
 0002:0000f0a4       ??_C@_0BE@ENHINNBD@MP_INGAME_NUMBER_TH?$AA@ 300ad0a4     cg_event.obj
 0002:0000f0b8       ??_C@_0BD@PKKAIICO@MP_INGAME_TIED_FOR?$AA@ 300ad0b8     cg_event.obj
 0002:0000f0cc       ??_C@_03KMLIBBBJ@1?$CFs?$AA@ 300ad0cc     cg_event.obj
 0002:0000f0d0       ??_C@_03LOANLOPH@2?$CFs?$AA@ 300ad0d0     cg_event.obj
 0002:0000f0d4       ??_C@_03GLBNJJC@3?$CFs?$AA@ 300ad0d4     cg_event.obj
 0002:0000f0d8       ??_C@_04NHJPKICO@11?$CFs?$AA@ 300ad0d8     cg_event.obj
 0002:0000f0e0       ??_C@_04MFCKAHMA@12?$CFs?$AA@ 300ad0e0     cg_event.obj
 0002:0000f0e8       ??_C@_04HNJGGAKF@13?$CFs?$AA@ 300ad0e8     cg_event.obj
 0002:0000f0f0       ??_C@_04EMEGLOCB@?$CFi?$CFs?$AA@ 300ad0f0     cg_event.obj
 0002:0000f0f8       ??_C@_04HDOCAJNK@?$CFs?$CFs?$AA@ 300ad0f8     cg_event.obj
 0002:0000f100       ??_C@_0CB@LLKCBBGA@CG_Obituary?3?5target?5out?5of?5range@ 300ad100     cg_event.obj
 0002:0000f124       ??_C@_01EFFIKLCJ@n?$AA@    300ad124     cg_event.obj
 0002:0000f128       ??_C@_02PGJLIFGD@?$FO7?$AA@ 300ad128     cg_event.obj
 0002:0000f12c       ??_C@_0P@MOAKIINA@DIED_ASTEROID1?$AA@ 300ad12c     cg_event.obj
 0002:0000f13c       ??_C@_0P@OFCHNLBD@DIED_ASTEROID2?$AA@ 300ad13c     cg_event.obj
 0002:0000f14c       ??_C@_0P@PMDMOKFC@DIED_ASTEROID3?$AA@ 300ad14c     cg_event.obj
 0002:0000f15c       ??_C@_0N@OIOBBDFO@DIED_GENERIC?$AA@ 300ad15c     cg_event.obj
 0002:0000f16c       ??_C@_0BA@ILCLOEBM@DIED_TURBOLASER?$AA@ 300ad16c     cg_event.obj
 0002:0000f17c       ??_C@_0BE@BKCBNJLP@SUICIDE_SHOT_FEMALE?$AA@ 300ad17c     cg_event.obj
 0002:0000f190       ??_C@_0BI@EDLJKFEC@SUICIDE_SHOT_GENDERLESS?$AA@ 300ad190     cg_event.obj
 0002:0000f1a8       ??_C@_0BC@DLPIHFNE@SUICIDE_SHOT_MALE?$AA@ 300ad1a8     cg_event.obj
 0002:0000f1bc       ??_C@_0BK@GNELLBLD@SUICIDE_EXPLOSIVES_FEMALE?$AA@ 300ad1bc     cg_event.obj
 0002:0000f1d8       ??_C@_0BO@BONIOHNA@SUICIDE_EXPLOSIVES_GENDERLESS?$AA@ 300ad1d8     cg_event.obj
 0002:0000f1f8       ??_C@_0BI@LOIGJPMB@SUICIDE_EXPLOSIVES_MALE?$AA@ 300ad1f8     cg_event.obj
 0002:0000f210       ??_C@_0BM@NIKKDAII@SUICIDE_ELECTROCUTED_FEMALE?$AA@ 300ad210     cg_event.obj
 0002:0000f22c       ??_C@_0CA@CFGLGMGJ@SUICIDE_ELECTROCUTED_GENDERLESS?$AA@ 300ad22c     cg_event.obj
 0002:0000f24c       ??_C@_0BK@JOACMNGP@SUICIDE_ELECTROCUTED_MALE?$AA@ 300ad24c     cg_event.obj
 0002:0000f268       ??_C@_0BJ@DCOGPDGK@SUICIDE_FALLDEATH_FEMALE?$AA@ 300ad268     cg_event.obj
 0002:0000f284       ??_C@_0BN@NGOHMGKM@SUICIDE_FALLDEATH_GENDERLESS?$AA@ 300ad284     cg_event.obj
 0002:0000f2a4       ??_C@_0BH@BDIIPDGM@SUICIDE_FALLDEATH_MALE?$AA@ 300ad2a4     cg_event.obj
 0002:0000f2bc       ??_C@_0BM@PFKEEECI@SUICIDE_GENERICDEATH_FEMALE?$AA@ 300ad2bc     cg_event.obj
 0002:0000f2d8       ??_C@_0CA@OAKEMEBL@SUICIDE_GENERICDEATH_GENDERLESS?$AA@ 300ad2d8     cg_event.obj
 0002:0000f2f8       ??_C@_0BK@LDDEAKKE@SUICIDE_GENERICDEATH_MALE?$AA@ 300ad2f8     cg_event.obj
 0002:0000f314       ??_C@_0O@FPBPBEEJ@OJP_INGAMEVEH?$AA@ 300ad314     cg_event.obj
 0002:0000f324       ??_C@_06IINFAHFO@?$CFs?5?$CFs?6?$AA@ 300ad324     cg_event.obj
 0002:0000f32c       ??_C@_0BJ@KBGFPHJH@MP_INGAME_KILLED_MESSAGE?$AA@ 300ad32c     cg_event.obj
 0002:0000f348       ??_C@_0BJ@NEOJGJCJ@MP_INGAME_JMKILLED_NOTJM?$AA@ 300ad348     cg_event.obj
 0002:0000f364       ??_C@_09OEGONCCB@?$CFs?5?$CFs?6?$CFs?6?$AA@ 300ad364     cg_event.obj
 0002:0000f370       ??_C@_0BF@IKFHMHCC@MP_INGAME_PLACE_WITH?$AA@ 300ad370     cg_event.obj
 0002:0000f388       ??_C@_0BB@FMBDAKNB@?$CFs?5?$CFs?4?6?$CFs?5?$CFs?5?$CFi?4?$AA@ 300ad388     cg_event.obj
 0002:0000f39c       ??_C@_05DNIIFBMG@?$CFs?5?$CFs?$AA@ 300ad39c     cg_event.obj
 0002:0000f3a4       ??_C@_0M@MHEOJOMG@KILLED_STUN?$AA@ 300ad3a4     cg_event.obj
 0002:0000f3b0       ??_C@_0N@LKNGLIHG@KILLED_MELEE?$AA@ 300ad3b0     cg_event.obj
 0002:0000f3c0       ??_C@_0N@JDNGIOPI@KILLED_SABER?$AA@ 300ad3c0     cg_event.obj
 0002:0000f3d0       ??_C@_0N@PMANMKNG@KILLED_BRYAR?$AA@ 300ad3d0     cg_event.obj
 0002:0000f3e0       ??_C@_0P@LFCADJJM@KILLED_BLASTER?$AA@ 300ad3e0     cg_event.obj
 0002:0000f3f0       ??_C@_0BB@OIONJBHE@KILLED_DISRUPTOR?$AA@ 300ad3f0     cg_event.obj
 0002:0000f404       ??_C@_0BG@FEEEOEOP@KILLED_DISRUPTORSNIPE?$AA@ 300ad404     cg_event.obj
 0002:0000f41c       ??_C@_0BB@BHKLOLC@KILLED_BOWCASTER?$AA@ 300ad41c     cg_event.obj
 0002:0000f430       ??_C@_0BA@IPOEHCNL@KILLED_REPEATER?$AA@ 300ad430     cg_event.obj
 0002:0000f440       ??_C@_0BD@LPENDEOH@KILLED_REPEATERALT?$AA@ 300ad440     cg_event.obj
 0002:0000f454       ??_C@_0N@FPPGAAHB@KILLED_DEMP2?$AA@ 300ad454     cg_event.obj
 0002:0000f464       ??_C@_0BB@NPEKGKGA@KILLED_FLECHETTE?$AA@ 300ad464     cg_event.obj
 0002:0000f478       ??_C@_0BG@PKKJJLAL@KILLED_FLECHETTE_MINE?$AA@ 300ad478     cg_event.obj
 0002:0000f490       ??_C@_0O@DFIJLFEC@KILLED_ROCKET?$AA@ 300ad490     cg_event.obj
 0002:0000f4a0       ??_C@_0BF@GEDPKMGM@KILLED_ROCKET_HOMING?$AA@ 300ad4a0     cg_event.obj
 0002:0000f4b8       ??_C@_0P@KDBDMBJD@KILLED_THERMAL?$AA@ 300ad4b8     cg_event.obj
 0002:0000f4c8       ??_C@_0BA@EFIIHAGC@KILLED_TRIPMINE?$AA@ 300ad4c8     cg_event.obj
 0002:0000f4d8       ??_C@_0BG@HOAJDDCM@KILLED_TRIPMINE_TIMED?$AA@ 300ad4d8     cg_event.obj
 0002:0000f4f0       ??_C@_0P@KCGOODH@KILLED_DETPACK?$AA@ 300ad4f0     cg_event.obj
 0002:0000f500       ??_C@_0BE@FGPPMLMB@KILLED_VEH_BLASTER3?$AA@ 300ad500     cg_event.obj
 0002:0000f514       ??_C@_0BE@EPOEPKIA@KILLED_VEH_BLASTER2?$AA@ 300ad514     cg_event.obj
 0002:0000f528       ??_C@_0BE@GEMJKJED@KILLED_VEH_BLASTER1?$AA@ 300ad528     cg_event.obj
 0002:0000f53c       ??_C@_0BE@NEONBPJO@KILLED_VEH_MISSILE2?$AA@ 300ad53c     cg_event.obj
 0002:0000f550       ??_C@_0BE@PPMAEMFN@KILLED_VEH_MISSILE1?$AA@ 300ad550     cg_event.obj
 0002:0000f564       ??_C@_0BA@KABNDJCE@KILLED_VEH_BOMB?$AA@ 300ad564     cg_event.obj
 0002:0000f574       ??_C@_0P@HDCFKIJO@KILLED_VEH_ION?$AA@ 300ad574     cg_event.obj
 0002:0000f584       ??_C@_0BC@BCIBMBAN@KILLED_VEH_TURRET?$AA@ 300ad584     cg_event.obj
 0002:0000f598       ??_C@_0P@JAGCHHE@KILLED_GENERIC?$AA@ 300ad598     cg_event.obj
 0002:0000f5a8       ??_C@_0BB@CDNJLIKH@KILLED_DARKFORCE?$AA@ 300ad5a8     cg_event.obj
 0002:0000f5bc       ??_C@_0O@GOEINFFA@KILLED_SENTRY?$AA@ 300ad5bc     cg_event.obj
 0002:0000f5cc       ??_C@_0BA@PLHHDAOP@KILLED_TELEFRAG?$AA@ 300ad5cc     cg_event.obj
 0002:0000f5dc       ??_C@_0BB@OPGILALH@KILLED_FORCETOSS?$AA@ 300ad5dc     cg_event.obj
 0002:0000f5f0       ??_C@_0BG@PJDMAJJM@KILLED_VEH_COLLISION1?$AA@ 300ad5f0     cg_event.obj
 0002:0000f608       ??_C@_0BG@NCBBFKFP@KILLED_VEH_COLLISION2?$AA@ 300ad608     cg_event.obj
 0002:0000f620       ??_C@_0BG@MLAKGLBO@KILLED_VEH_COLLISION3?$AA@ 300ad620     cg_event.obj
 0002:0000f638       ??_C@_0P@POABEAHB@KILLED_TURRET1?$AA@ 300ad638     cg_event.obj
 0002:0000f648       ??_C@_0P@NFCMBDLC@KILLED_TURRET2?$AA@ 300ad648     cg_event.obj
 0002:0000f658       ??_C@_0O@OLHPMPLG@KILLED_SEEKER?$AA@ 300ad658     cg_event.obj
 0002:0000f668       ??_C@_03IKGEINEE@?$CFs?5?$AA@ 300ad668     cg_event.obj
 0002:0000f66c       ??_C@_05HHHBCPMM@?$CI?$CFs?$CJ?5?$AA@ 300ad66c     cg_event.obj
 0002:0000f674       ??_C@_08OFHLEAKP@?5?$CI?$CFs?5?$CFs?$CJ?$AA@ 300ad674     cg_event.obj
 0002:0000f680       ??_C@_05DNDNCJEB@?5?$CI?$CFs?$CJ?$AA@ 300ad680     cg_event.obj
 0002:0000f688       ??_C@_0L@OMPHCJLG@PICKUPLINE?$AA@ 300ad688     cg_event.obj
 0002:0000f694       ??_C@_0M@FAKIOGIA@?$CKpain25?4wav?$AA@ 300ad694     cg_event.obj
 0002:0000f6a0       ??_C@_0M@MFMCEJLN@?$CKpain50?4wav?$AA@ 300ad6a0     cg_event.obj
 0002:0000f6ac       ??_C@_0M@CJAMJCH@?$CKpain75?4wav?$AA@ 300ad6ac     cg_event.obj
 0002:0000f6b8       ??_C@_0N@CIPOKOBF@?$CKpain100?4wav?$AA@ 300ad6b8     cg_event.obj
 0002:0000f6c8       ??_C@_04HEDFJGEJ@FREE?$AA@ 300ad6c8     cg_event.obj
 0002:0000f6d0       ??_C@_0BF@MKAEEDCG@FRAGGED_FLAG_CARRIER?$AA@ 300ad6d0     cg_event.obj
 0002:0000f6e8       ??_C@_0O@MBPOLPAP@FLAG_RETURNED?$AA@ 300ad6e8     cg_event.obj
 0002:0000f6f8       ??_C@_0BF@DCOFADEE@PLAYER_RETURNED_FLAG?$AA@ 300ad6f8     cg_event.obj
 0002:0000f710       ??_C@_0BF@GDEBPKGL@PLAYER_CAPTURED_FLAG?$AA@ 300ad710     cg_event.obj
 0002:0000f728       ??_C@_0BA@GOKKEBNJ@PLAYER_GOT_FLAG?$AA@ 300ad728     cg_event.obj
 0002:0000f738       ??_C@_03OFAPEBGM@?$CFs?6?$AA@ 300ad738     cg_event.obj
 0002:0000f73c       ??_C@_0CD@PBPAMPHJ@sound?1movers?1objects?1objectHit?4w@ 300ad73c     cg_event.obj
 0002:0000f760       ??_C@_0L@LNFPJAAJ@?$CKland1?4wav?$AA@ 300ad760     cg_event.obj
 0002:0000f76c       ??_C@_0L@PAMDLABJ@voice?5chat?$AA@ 300ad76c     cg_event.obj
 0002:0000f778       ??_C@_0BE@HGIJDIOP@ent?3?$CF3i?5?5event?3?$CF3i?5?$AA@ 300ad778     cg_event.obj
 0002:0000f78c       ??_C@_0L@GMIFJJAD@ZEROEVENT?6?$AA@ 300ad78c     cg_event.obj
 0002:0000f798       ??_C@_0P@LEHMHLJF@EV_CLIENTJOIN?6?$AA@ 300ad798     cg_event.obj
 0002:0000f7a8       ??_C@_0N@KAJBJGHI@EV_FOOTSTEP?6?$AA@ 300ad7a8     cg_event.obj
 0002:0000f7b8       ??_C@_0BD@GPGIDOAE@EV_FOOTSTEP_METAL?6?$AA@ 300ad7b8     cg_event.obj
 0002:0000f7cc       ??_C@_0P@ECCJNKCN@EV_FOOTSPLASH?6?$AA@ 300ad7cc     cg_event.obj
 0002:0000f7dc       ??_C@_0N@DBFBMKGC@EV_FOOTWADE?6?$AA@ 300ad7dc     cg_event.obj
 0002:0000f7ec       ??_C@_08KPLPEGCK@EV_SWIM?6?$AA@ 300ad7ec     cg_event.obj
 0002:0000f7f8       ??_C@_08CFBICNCF@EV_FALL?6?$AA@ 300ad7f8     cg_event.obj
 0002:0000f804       ??_C@_08LGDHLDGB@EV_STEP?6?$AA@ 300ad804     cg_event.obj
 0002:0000f810       ??_C@_0CF@KPADFJEL@sound?1weapons?1saber?1saberblock?$CFd@ 300ad810     cg_event.obj
 0002:0000f838       ??_C@_0BA@GNCBDOLB@EV_GHOUL2_MARK?6?$AA@ 300ad838     cg_event.obj
 0002:0000f848       ??_C@_0BA@JJCOOCID@EV_GLOBAL_DUEL?6?$AA@ 300ad848     cg_event.obj
 0002:0000f858       ??_C@_0L@HMDPGPOM@BEGIN_DUEL?$AA@ 300ad858     cg_event.obj
 0002:0000f864       ??_C@_09HNLILNJH@MP_SVGAME?$AA@ 300ad864     cg_event.obj
 0002:0000f870       ??_C@_0BB@MIEMHGH@EV_PRIVATE_DUEL?6?$AA@ 300ad870     cg_event.obj
 0002:0000f884       ??_C@_0BC@BIOHEDAP@music?1mp?1duel?4mp3?$AA@ 300ad884     cg_event.obj
 0002:0000f898       ??_C@_08GKDKOBGN@EV_JUMP?6?$AA@ 300ad898     cg_event.obj
 0002:0000f8a4       ??_C@_0L@FMHDEMAN@?$CKjump1?4wav?$AA@ 300ad8a4     cg_event.obj
 0002:0000f8b0       ??_C@_08CGPNDMJ@EV_ROLL?6?$AA@ 300ad8b0     cg_event.obj
 0002:0000f8bc       ??_C@_09OAFEJHMF@EV_TAUNT?6?$AA@ 300ad8bc     cg_event.obj
 0002:0000f8c8       ??_C@_0N@LFMMGJKI@?$CKanger?$CFd?4wav?$AA@ 300ad8c8     cg_event.obj
 0002:0000f8d8       ??_C@_0N@NFOOMBAN@?$CKtaunt?$CFd?4wav?$AA@ 300ad8d8     cg_event.obj
 0002:0000f8e8       ??_C@_0P@BAFJNLJH@?$CKdeflect?$CFd?4wav?$AA@ 300ad8e8     cg_event.obj
 0002:0000f8f8       ??_C@_0N@IKMJGNPG@?$CKgloat?$CFd?4wav?$AA@ 300ad8f8     cg_event.obj
 0002:0000f908       ??_C@_0P@LGDFBLBJ@?$CKvictory?$CFd?4wav?$AA@ 300ad908     cg_event.obj
 0002:0000f918       ??_C@_0L@FDBCLIPJ@?$CKtaunt?4wav?$AA@ 300ad918     cg_event.obj
 0002:0000f924       ??_C@_0L@JIMCLEOH@EV_ANGERx?6?$AA@ 300ad924     cg_event.obj
 0002:0000f930       ??_C@_0N@JFCHKHG@?$CKanger?$CFi?4wav?$AA@ 300ad930     cg_event.obj
 0002:0000f940       ??_C@_0N@HEEPLDGK@EV_VICTORYx?6?$AA@ 300ad940     cg_event.obj
 0002:0000f950       ??_C@_0P@KKLAIMH@?$CKvictory?$CFi?4wav?$AA@ 300ad950     cg_event.obj
 0002:0000f960       ??_C@_0O@KPIHHDB@EV_CONFUSEDx?6?$AA@ 300ad960     cg_event.obj
 0002:0000f970       ??_C@_0P@CMIJNIPJ@?$CKconfuse?$CFi?4wav?$AA@ 300ad970     cg_event.obj
 0002:0000f980       ??_C@_0M@EODEDNBM@EV_PUSHEDx?6?$AA@ 300ad980     cg_event.obj
 0002:0000f98c       ??_C@_0O@NKLIIKEJ@?$CKpushed?$CFi?4wav?$AA@ 300ad98c     cg_event.obj
 0002:0000f99c       ??_C@_0L@CHJKNFIK@EV_CHOKEx?6?$AA@ 300ad99c     cg_event.obj
 0002:0000f9a8       ??_C@_0N@KALHINPO@?$CKchoke?$CFi?4wav?$AA@ 300ad9a8     cg_event.obj
 0002:0000f9b8       ??_C@_0L@HHFIMOOA@EV_FFWARN?6?$AA@ 300ad9b8     cg_event.obj
 0002:0000f9c4       ??_C@_0M@GLFHPFHD@?$CKffwarn?4wav?$AA@ 300ad9c4     cg_event.obj
 0002:0000f9d0       ??_C@_0L@GEKMINAM@EV_FFTURN?6?$AA@ 300ad9d0     cg_event.obj
 0002:0000f9dc       ??_C@_0M@KKCLPGGH@?$CKffturn?4wav?$AA@ 300ad9dc     cg_event.obj
 0002:0000f9e8       ??_C@_0L@ENAAGILJ@EV_CHASEx?6?$AA@ 300ad9e8     cg_event.obj
 0002:0000f9f4       ??_C@_0N@KJGGFNCE@?$CKchase?$CFi?4wav?$AA@ 300ad9f4     cg_event.obj
 0002:0000fa04       ??_C@_0L@LEBKGJBA@EV_COVERx?6?$AA@ 300ada04     cg_event.obj
 0002:0000fa10       ??_C@_0N@OMILNBPP@?$CKcover?$CFi?4wav?$AA@ 300ada10     cg_event.obj
 0002:0000fa20       ??_C@_0O@JKILKEDL@EV_DETECTEDx?6?$AA@ 300ada20     cg_event.obj
 0002:0000fa30       ??_C@_0BA@IEJODIMK@?$CKdetected?$CFi?4wav?$AA@ 300ada30     cg_event.obj
 0002:0000fa40       ??_C@_0M@PMLMFNPD@EV_GIVEUPx?6?$AA@ 300ada40     cg_event.obj
 0002:0000fa4c       ??_C@_0O@MKEGNAOE@?$CKgiveup?$CFi?4wav?$AA@ 300ada4c     cg_event.obj
 0002:0000fa5c       ??_C@_09KCLGOEIJ@EV_LOOKx?6?$AA@ 300ada5c     cg_event.obj
 0002:0000fa68       ??_C@_0M@IECJNBN@?$CKlook?$CFi?4wav?$AA@ 300ada68     cg_event.obj
 0002:0000fa74       ??_C@_09HAJHGPIM@EV_LOST1?6?$AA@ 300ada74     cg_event.obj
 0002:0000fa80       ??_C@_0L@PFPNPDKP@?$CKlost1?4wav?$AA@ 300ada80     cg_event.obj
 0002:0000fa8c       ??_C@_0O@JKGLGHPC@EV_OUTFLANKx?6?$AA@ 300ada8c     cg_event.obj
 0002:0000fa9c       ??_C@_0BA@ECEMECLD@?$CKoutflank?$CFi?4wav?$AA@ 300ada9c     cg_event.obj
 0002:0000faac       ??_C@_0O@LBEFKCPP@EV_ESCAPINGx?6?$AA@ 300adaac     cg_event.obj
 0002:0000fabc       ??_C@_0BA@IAPJDOKJ@?$CKescaping?$CFi?4wav?$AA@ 300adabc     cg_event.obj
 0002:0000facc       ??_C@_0L@LOAACHFC@EV_SIGHTx?6?$AA@ 300adacc     cg_event.obj
 0002:0000fad8       ??_C@_0N@PHGKPCEG@?$CKsight?$CFi?4wav?$AA@ 300adad8     cg_event.obj
 0002:0000fae8       ??_C@_0L@EMJHBDMH@EV_SOUNDx?6?$AA@ 300adae8     cg_event.obj
 0002:0000faf4       ??_C@_0N@DDCFCBHB@?$CKsound?$CFi?4wav?$AA@ 300adaf4     cg_event.obj
 0002:0000fb04       ??_C@_0BA@KBLHFCPH@EV_SUSPICIOUSx?6?$AA@ 300adb04     cg_event.obj
 0002:0000fb14       ??_C@_0BC@PHFLACAM@?$CKsuspicious?$CFi?4wav?$AA@ 300adb14     cg_event.obj
 0002:0000fb28       ??_C@_0M@FOBFLOB@EV_COMBATx?6?$AA@ 300adb28     cg_event.obj
 0002:0000fb34       ??_C@_0O@PPKPFKOD@?$CKcombat?$CFi?4wav?$AA@ 300adb34     cg_event.obj
 0002:0000fb44       ??_C@_0P@GMGCJCFO@EV_JDETECTEDx?6?$AA@ 300adb44     cg_event.obj
 0002:0000fb54       ??_C@_0BB@JDDLJJHL@?$CKjdetected?$CFi?4wav?$AA@ 300adb54     cg_event.obj
 0002:0000fb68       ??_C@_0L@EGHEDGBM@EV_TAUNTx?6?$AA@ 300adb68     cg_event.obj
 0002:0000fb74       ??_C@_0N@GJHANCND@?$CKtaunt?$CFi?4wav?$AA@ 300adb74     cg_event.obj
 0002:0000fb84       ??_C@_0M@NIMEFBOE@EV_JCHASEx?6?$AA@ 300adb84     cg_event.obj
 0002:0000fb90       ??_C@_0O@NFHHFBIJ@?$CKjchase?$CFi?4wav?$AA@ 300adb90     cg_event.obj
 0002:0000fba0       ??_C@_0L@HEKPAGAL@EV_JLOSTx?6?$AA@ 300adba0     cg_event.obj
 0002:0000fbac       ??_C@_0N@CKMOBFDB@?$CKjlost?$CFi?4wav?$AA@ 300adbac     cg_event.obj
 0002:0000fbbc       ??_C@_0N@KDIAIIOP@EV_DEFLECTx?6?$AA@ 300adbbc     cg_event.obj
 0002:0000fbcc       ??_C@_0P@KMMHMIEJ@?$CKdeflect?$CFi?4wav?$AA@ 300adbcc     cg_event.obj
 0002:0000fbdc       ??_C@_0L@PFIKNHDI@EV_GLOATx?6?$AA@ 300adbdc     cg_event.obj
 0002:0000fbe8       ??_C@_0N@DGFHHOCI@?$CKgloat?$CFi?4wav?$AA@ 300adbe8     cg_event.obj
 0002:0000fbf8       ??_C@_0N@JMFEBDJA@EV_PUSHFAIL?6?$AA@ 300adbf8     cg_event.obj
 0002:0000fc08       ??_C@_0O@HILDDGFG@?$CKpushfail?4wav?$AA@ 300adc08     cg_event.obj
 0002:0000fc18       ??_C@_0O@LILDLENG@EV_SIEGESPEC?6?$AA@ 300adc18     cg_event.obj
 0002:0000fc28       ??_C@_0BA@PBFGAGAE@EV_WATER_TOUCH?6?$AA@ 300adc28     cg_event.obj
 0002:0000fc38       ??_C@_0BA@POIDPCHH@EV_WATER_LEAVE?6?$AA@ 300adc38     cg_event.obj
 0002:0000fc48       ??_C@_0BA@PFCHBJFN@EV_WATER_UNDER?6?$AA@ 300adc48     cg_event.obj
 0002:0000fc58       ??_C@_0BA@OODKPEF@EV_WATER_CLEAR?6?$AA@ 300adc58     cg_event.obj
 0002:0000fc68       ??_C@_09OICPJII@?$CKgasp?4wav?$AA@ 300adc68     cg_event.obj
 0002:0000fc74       ??_C@_0BA@LGJAHGJL@EV_ITEM_PICKUP?6?$AA@ 300adc74     cg_event.obj
 0002:0000fc84       ??_C@_0BH@BPJPNNOH@EV_GLOBAL_ITEM_PICKUP?6?$AA@ 300adc84     cg_event.obj
 0002:0000fc9c       ??_C@_0N@GJLAOEL@EV_VEH_FIRE?6?$AA@ 300adc9c     cg_event.obj
 0002:0000fcac       ??_C@_0L@CIOCLBPP@EV_NOAMMO?6?$AA@ 300adcac     cg_event.obj
 0002:0000fcb8       ??_C@_0BC@KBHMOJOO@EV_CHANGE_WEAPON?6?$AA@ 300adcb8     cg_event.obj
 0002:0000fccc       ??_C@_0BA@CJMMIDHE@EV_FIRE_WEAPON?6?$AA@ 300adccc     cg_event.obj
 0002:0000fcdc       ??_C@_08DFMFBHOP@?$CKflash01?$AA@ 300adcdc     cg_event.obj
 0002:0000fce8       ??_C@_08BOOIEECM@?$CKflash02?$AA@ 300adce8     cg_event.obj
 0002:0000fcf4       ??_C@_0N@EEFOAGOF@EV_ALT_FIRE?6?$AA@ 300adcf4     cg_event.obj
 0002:0000fd04       ??_C@_0BB@EBLNKKNK@EV_SABER_ATTACK?6?$AA@ 300add04     cg_event.obj
 0002:0000fd18       ??_C@_0CD@EBJGEHEE@sound?1weapons?1saber?1saberhup?$CFi?4w@ 300add18     cg_event.obj
 0002:0000fd3c       ??_C@_0O@FLLECKKD@EV_SABER_HIT?6?$AA@ 300add3c     cg_event.obj
 0002:0000fd4c       ??_C@_0CD@IPCIPINL@sound?1weapons?1saber?1saberhit?$CFi?4w@ 300add4c     cg_event.obj
 0002:0000fd70       ??_C@_0BA@NNCAIIDK@EV_SABER_BLOCK?6?$AA@ 300add70     cg_event.obj
 0002:0000fd80       ??_C@_0BF@BLJMDOGE@EV_SABER_CLASHFLARE?6?$AA@ 300add80     cg_event.obj
 0002:0000fd98       ??_C@_0CD@MINDHCBN@sound?1weapons?1saber?1saberhitwall@ 300add98     cg_event.obj
 0002:0000fdbc       ??_C@_0BE@LHAIBFCE@EV_SABER_UNHOLSTER?6?$AA@ 300addbc     cg_event.obj
 0002:0000fdd0       ??_C@_0CA@IHKBIIAM@sound?1weapons?1saber?1saberon?4wav?$AA@ 300addd0     cg_event.obj
 0002:0000fdf0       ??_C@_0BI@IGJAGMIN@EV_DISRUPTOR_MAIN_SHOT?6?$AA@ 300addf0     cg_event.obj
 0002:0000fe08       ??_C@_0BK@HEJCNNBO@EV_DISRUPTOR_SNIPER_SHOT?6?$AA@ 300ade08     cg_event.obj
 0002:0000fe24       ??_C@_0BK@GPKOGJOH@EV_DISRUPTOR_SNIPER_MISS?6?$AA@ 300ade24     cg_event.obj
 0002:0000fe40       ??_C@_0BC@JPMCFDBJ@EV_DISRUPTOR_HIT?6?$AA@ 300ade40     cg_event.obj
 0002:0000fe54       ??_C@_0BI@GNFPMMKN@EV_DISRUPTOR_ZOOMSOUND?6?$AA@ 300ade54     cg_event.obj
 0002:0000fe6c       ??_C@_0CG@PBOJOFP@sound?1weapons?1disruptor?1zoomstar@ 300ade6c     cg_event.obj
 0002:0000fe94       ??_C@_0CE@PIBAGMCN@sound?1weapons?1disruptor?1zoomend?4@ 300ade94     cg_event.obj
 0002:0000feb8       ??_C@_0BA@OCJLFFOK@EV_PREDEFSOUND?6?$AA@ 300adeb8     cg_event.obj
 0002:0000fec8       ??_C@_0CD@DLMOJGKG@sound?1weapons?1force?1protecthit?4m@ 300adec8     cg_event.obj
 0002:0000feec       ??_C@_0CA@HJGMCKFK@sound?1weapons?1force?1protect?4mp3?$AA@ 300adeec     cg_event.obj
 0002:0000ff0c       ??_C@_0CC@JDCLBP@sound?1weapons?1force?1absorbhit?4mp@ 300adf0c     cg_event.obj
 0002:0000ff30       ??_C@_0BP@HBDMOEFN@sound?1weapons?1force?1absorb?4mp3?$AA@ 300adf30     cg_event.obj
 0002:0000ff50       ??_C@_0BN@OPAMHANO@sound?1weapons?1force?1jump?4mp3?$AA@ 300adf50     cg_event.obj
 0002:0000ff70       ??_C@_0BN@OAMJLKID@sound?1weapons?1force?1grip?4mp3?$AA@ 300adf70     cg_event.obj
 0002:0000ff90       ??_C@_0P@EFHBOHF@EV_TEAM_POWER?6?$AA@ 300adf90     cg_event.obj
 0002:0000ffa0       ??_C@_0BA@MNHPKCIL@EV_SCREENSHAKE?6?$AA@ 300adfa0     cg_event.obj
 0002:0000ffb0       ??_C@_0P@PEFPIADP@EV_LOCALTIMER?6?$AA@ 300adfb0     cg_event.obj
 0002:0000ffc0       ??_C@_0O@COHCPJPC@EV_USE_ITEM0?6?$AA@ 300adfc0     cg_event.obj
 0002:0000ffd0       ??_C@_0O@CPLAJDMF@EV_USE_ITEM1?6?$AA@ 300adfd0     cg_event.obj
 0002:0000ffe0       ??_C@_0O@CNPGCNJM@EV_USE_ITEM2?6?$AA@ 300adfe0     cg_event.obj
 0002:0000fff0       ??_C@_0O@CMDEEHKL@EV_USE_ITEM3?6?$AA@ 300adff0     cg_event.obj
 0002:00010000       ??_C@_0O@CJHLFBCO@EV_USE_ITEM4?6?$AA@ 300ae000     cg_event.obj
 0002:00010010       ??_C@_0O@CILJDLBJ@EV_USE_ITEM5?6?$AA@ 300ae010     cg_event.obj
 0002:00010020       ??_C@_0O@CKPPIFEA@EV_USE_ITEM6?6?$AA@ 300ae020     cg_event.obj
 0002:00010030       ??_C@_0O@CLDNOPHH@EV_USE_ITEM7?6?$AA@ 300ae030     cg_event.obj
 0002:00010040       ??_C@_0O@CAGBKIEK@EV_USE_ITEM8?6?$AA@ 300ae040     cg_event.obj
 0002:00010050       ??_C@_0O@CBKDMCHN@EV_USE_ITEM9?6?$AA@ 300ae050     cg_event.obj
 0002:00010060       ??_C@_0P@DIDCAOGA@EV_USE_ITEM10?6?$AA@ 300ae060     cg_event.obj
 0002:00010070       ??_C@_0P@DJPAGEFH@EV_USE_ITEM11?6?$AA@ 300ae070     cg_event.obj
 0002:00010080       ??_C@_0P@DLLGNKAO@EV_USE_ITEM12?6?$AA@ 300ae080     cg_event.obj
 0002:00010090       ??_C@_0P@DKHELADJ@EV_USE_ITEM13?6?$AA@ 300ae090     cg_event.obj
 0002:000100a0       ??_C@_0P@DPDLKGLM@EV_USE_ITEM14?6?$AA@ 300ae0a0     cg_event.obj
 0002:000100b0       ??_C@_0BA@HPBPKKLD@EV_ITEMUSEFAIL?6?$AA@ 300ae0b0     cg_event.obj
 0002:000100c0       ??_C@_0O@HOCAFJFE@SENTRY_NOROOM?$AA@ 300ae0c0     cg_event.obj
 0002:000100d0       ??_C@_0BF@BCPBOCCJ@SENTRY_ALREADYPLACED?$AA@ 300ae0d0     cg_event.obj
 0002:000100e8       ??_C@_0O@EGAENPND@SHIELD_NOROOM?$AA@ 300ae0e8     cg_event.obj
 0002:000100f8       ??_C@_0BH@LIEHOCMA@SEEKER_ALREADYDEPLOYED?$AA@ 300ae0f8     cg_event.obj
 0002:00010110       ??_C@_0BH@EMPINMBK@EV_PLAYER_TELEPORT_IN?6?$AA@ 300ae110     cg_event.obj
 0002:00010128       ??_C@_0BI@GJLLMPKI@EV_PLAYER_TELEPORT_OUT?6?$AA@ 300ae128     cg_event.obj
 0002:00010140       ??_C@_0N@PBHGFCFD@EV_ITEM_POP?6?$AA@ 300ae140     cg_event.obj
 0002:00010150       ??_C@_0BB@JFDGENII@EV_ITEM_RESPAWN?6?$AA@ 300ae150     cg_event.obj
 0002:00010164       ??_C@_0BD@EIBAGLKH@EV_GRENADE_BOUNCE?6?$AA@ 300ae164     cg_event.obj
 0002:00010178       ??_C@_0O@HHOHODHG@EV_SCOREPLUM?6?$AA@ 300ae178     cg_event.obj
 0002:00010188       ??_C@_0P@FDEPALG@EV_CTFMESSAGE?6?$AA@ 300ae188     cg_event.obj
 0002:00010198       ??_C@_0BA@HOIEJEJL@head_eyes_mouth?$AA@ 300ae198     cg_event.obj
 0002:000101a8       ??_C@_0BE@BNOHOFLM@EV_SIEGE_ROUNDOVER?6?$AA@ 300ae1a8     cg_event.obj
 0002:000101bc       ??_C@_0BM@BABMLOOH@EV_SIEGE_OBJECTIVECOMPLETE?6?$AA@ 300ae1bc     cg_event.obj
 0002:000101d8       ??_C@_0BM@PCLPFHBH@EV_DESTROY_GHOUL2_INSTANCE?6?$AA@ 300ae1d8     cg_event.obj
 0002:000101f4       ??_C@_0BJ@BCHDFDJB@EV_DESTROY_WEAPON_MODEL?6?$AA@ 300ae1f4     cg_event.obj
 0002:00010210       ??_C@_0BC@HOMJNHOI@EV_GIVE_NEW_RANK?6?$AA@ 300ae210     cg_event.obj
 0002:00010224       ??_C@_0O@LNLHFCCF@ui_rankChange?$AA@ 300ae224     cg_event.obj
 0002:00010234       ??_C@_09CPHDILCP@ui_myteam?$AA@ 300ae234     cg_event.obj
 0002:00010240       ??_C@_0BD@BKAJJBKD@EV_SET_FREE_SABER?6?$AA@ 300ae240     cg_event.obj
 0002:00010254       ??_C@_0N@KGLGFCPL@ui_freeSaber?$AA@ 300ae254     cg_event.obj
 0002:00010264       ??_C@_0BG@MIJCAGDM@EV_SET_FORCE_DISABLE?6?$AA@ 300ae264     cg_event.obj
 0002:0001027c       ??_C@_0BF@LBOIACLJ@ui_forcePowerDisable?$AA@ 300ae27c     cg_event.obj
 0002:00010294       ??_C@_0BE@NNBFEJOK@EV_CONC_ALT_IMPACT?6?$AA@ 300ae294     cg_event.obj
 0002:000102a8       ??_C@_0BC@KFHMIOIE@EV_MISSILE_STICK?6?$AA@ 300ae2a8     cg_event.obj
 0002:000102bc       ??_C@_0BA@IGKGMCOM@EV_MISSILE_HIT?6?$AA@ 300ae2bc     cg_event.obj
 0002:000102cc       ??_C@_0BB@PNKCFMCO@EV_MISSILE_MISS?6?$AA@ 300ae2cc     cg_event.obj
 0002:000102e0       ??_C@_0BH@JAOAMPDI@EV_MISSILE_MISS_METAL?6?$AA@ 300ae2e0     cg_event.obj
 0002:000102f8       ??_C@_0BA@EOBPNDFA@EV_PLAY_EFFECT?6?$AA@ 300ae2f8     cg_event.obj
 0002:00010308       ??_C@_0BH@FLIFKKNH@EV_PLAY_EFFECT_BOLTED?6?$AA@ 300ae308     cg_event.obj
 0002:00010320       ??_C@_0BD@NADCCPEN@EV_PLAY_EFFECT_ID?6?$AA@ 300ae320     cg_event.obj
 0002:00010334       ??_C@_0BB@IGHFLFFN@EV_BMODEL_SOUND?6?$AA@ 300ae334     cg_event.obj
 0002:00010348       ??_C@_0P@MFMNPEFJ@EV_MUTE_SOUND?6?$AA@ 300ae348     cg_event.obj
 0002:00010358       ??_C@_0BD@MDIAINNI@EV_VOICECMD_SOUND?6?$AA@ 300ae358     cg_event.obj
 0002:0001036c       ??_C@_09CLANNEJM@?$DM?$CFs?3?5?$CFs?$DO?6?$AA@ 300ae36c     cg_event.obj
 0002:00010378       ??_C@_0BC@BJDFIFFI@EV_GENERAL_SOUND?6?$AA@ 300ae378     cg_event.obj
 0002:0001038c       ??_C@_0BB@DOBOGIIM@EV_GLOBAL_SOUND?6?$AA@ 300ae38c     cg_event.obj
 0002:000103a0       ??_C@_0BG@DDNACAKH@EV_GLOBAL_TEAM_SOUND?6?$AA@ 300ae3a0     cg_event.obj
 0002:000103b8       ??_C@_0BB@MGFHJKEO@EV_ENTITY_SOUND?6?$AA@ 300ae3b8     cg_event.obj
 0002:000103cc       ??_C@_0BI@PJOLKDFG@SOUND?1CHARS?1JADEN_MALE?1?$AA@ 300ae3cc     cg_event.obj
 0002:000103e4       ??_C@_0BN@NHBJGBAH@SOUND?1CHARS?1JADEN_MALE?1MISC?1?$AA@ 300ae3e4     cg_event.obj
 0002:00010404       ??_C@_0BI@FGNMLOJE@SOUND?1CHARS?1JADEN_FMLE?1?$AA@ 300ae404     cg_event.obj
 0002:0001041c       ??_C@_0BN@OOAEAGMN@SOUND?1CHARS?1JADEN_FMLE?1MISC?1?$AA@ 300ae41c     cg_event.obj
 0002:0001043c       ??_C@_0O@NJJBGPF@EV_PLAY_ROFF?6?$AA@ 300ae43c     cg_event.obj
 0002:0001044c       ??_C@_0BC@OFECDCPE@EV_GLASS_SHATTER?6?$AA@ 300ae44c     cg_event.obj
 0002:00010460       ??_C@_0L@ODCIENMH@EV_DEBRIS?6?$AA@ 300ae460     cg_event.obj
 0002:0001046c       ??_C@_0BD@CICJADGK@EV_MISC_MODEL_EXP?6?$AA@ 300ae46c     cg_event.obj
 0002:00010480       ??_C@_08MEMNOIPP@EV_PAIN?6?$AA@ 300ae480     cg_event.obj
 0002:0001048c       ??_C@_0L@GGFIAEKN@EV_DEATHx?6?$AA@ 300ae48c     cg_event.obj
 0002:00010498       ??_C@_0N@OJAOIBLE@?$CKdeath?$CFi?4wav?$AA@ 300ae498     cg_event.obj
 0002:000104a8       ??_C@_0N@NHOCPMCE@EV_OBITUARY?6?$AA@ 300ae4a8     cg_event.obj
 0002:000104b8       ??_C@_0BB@BAEBNJML@EV_POWERUP_QUAD?6?$AA@ 300ae4b8     cg_event.obj
 0002:000104cc       ??_C@_0BH@DMMEDNOI@EV_POWERUP_BATTLESUIT?6?$AA@ 300ae4cc     cg_event.obj
 0002:000104e4       ??_C@_0BC@MLCHKGFI@EV_FORCE_DRAINED?6?$AA@ 300ae4e4     cg_event.obj
 0002:000104f8       ??_C@_0P@OAKOFJEN@EV_GIB_PLAYER?6?$AA@ 300ae4f8     cg_event.obj
 0002:00010508       ??_C@_0BG@LDMGNCJJ@EV_STARTLOOPINGSOUND?6?$AA@ 300ae508     cg_event.obj
 0002:00010520       ??_C@_0BF@JEGDHJFI@EV_STOPLOOPINGSOUND?6?$AA@ 300ae520     cg_event.obj
 0002:00010538       ??_C@_0BC@FFJFINLG@EV_WEAPON_CHARGE?6?$AA@ 300ae538     cg_event.obj
 0002:0001054c       ??_C@_0BG@LPILCDGP@EV_WEAPON_CHARGE_ALT?6?$AA@ 300ae54c     cg_event.obj
 0002:00010564       ??_C@_0P@NNMMBHMG@EV_SHIELD_HIT?6?$AA@ 300ae564     cg_event.obj
 0002:00010574       ??_C@_0P@DKFKJLCN@EV_DEBUG_LINE?6?$AA@ 300ae574     cg_event.obj
 0002:00010584       ??_C@_0N@JKOMGMLA@EV_TESTLINE?6?$AA@ 300ae584     cg_event.obj
 0002:00010594       ??_C@_0BC@LEJDILCN@EV_WEAPINVCHANGE?6?$AA@ 300ae594     cg_event.obj
 0002:000105a8       ??_C@_08GCOIMFOL@UNKNOWN?6?$AA@ 300ae5a8     cg_event.obj
 0002:000105b4       ??_C@_0BC@OKELKAPM@Unknown?5event?3?5?$CFi?$AA@ 300ae5b4     cg_event.obj
 0002:000105c8       __real@459c4000            300ae5c8     cg_event.obj
 0002:000105d0       __xmm@3f800000000000003f8000003f800000 300ae5d0     cg_event.obj
 0002:000105e0       ??_C@_08JIKCGKJJ@HLR_NONE?$AA@ 300ae5e0     cg_holster.obj
 0002:000105ec       ??_C@_0BC@BELBMKJC@HLR_SINGLESABER_1?$AA@ 300ae5ec     cg_holster.obj
 0002:00010600       ??_C@_0BC@DPJMJJFB@HLR_SINGLESABER_2?$AA@ 300ae600     cg_holster.obj
 0002:00010614       ??_C@_0P@BBAAIAOI@HLR_STAFFSABER?$AA@ 300ae614     cg_holster.obj
 0002:00010624       ??_C@_0N@LLEONIAI@HLR_PISTOL_L?$AA@ 300ae624     cg_holster.obj
 0002:00010634       ??_C@_0N@GPAPOHNH@HLR_PISTOL_R?$AA@ 300ae634     cg_holster.obj
 0002:00010644       ??_C@_0O@EIFCIPHM@HLR_BLASTER_L?$AA@ 300ae644     cg_holster.obj
 0002:00010654       ??_C@_0O@JMBDLAKD@HLR_BLASTER_R?$AA@ 300ae654     cg_holster.obj
 0002:00010664       ??_C@_0BC@FLJFAIJA@HLR_BRYARPISTOL_L?$AA@ 300ae664     cg_holster.obj
 0002:00010678       ??_C@_0BC@IPNEDHEP@HLR_BRYARPISTOL_R?$AA@ 300ae678     cg_holster.obj
 0002:0001068c       ??_C@_0O@PAPFKAHE@HLR_BOWCASTER?$AA@ 300ae68c     cg_holster.obj
 0002:0001069c       ??_C@_0BE@FAAIMBKC@HLR_ROCKET_LAUNCHER?$AA@ 300ae69c     cg_holster.obj
 0002:000106b0       ??_C@_09IHEICIEJ@HLR_DEMP2?$AA@ 300ae6b0     cg_holster.obj
 0002:000106bc       ??_C@_0P@IHBGOCLC@HLR_CONCUSSION?$AA@ 300ae6bc     cg_holster.obj
 0002:000106cc       ??_C@_0N@NEBIPGAK@HLR_REPEATER?$AA@ 300ae6cc     cg_holster.obj
 0002:000106dc       ??_C@_0O@COMFHEKG@HLR_FLECHETTE?$AA@ 300ae6dc     cg_holster.obj
 0002:000106ec       ??_C@_0O@BJGCIPLC@HLR_DISRUPTOR?$AA@ 300ae6ec     cg_holster.obj
 0002:000106fc       ??_C@_0M@MPKJEKHG@MAX_HOLSTER?$AA@ 300ae6fc     cg_holster.obj
 0002:00010708       ??_C@_0N@PGMEONP@HOLSTER_NONE?$AA@ 300ae708     cg_holster.obj
 0002:00010718       ??_C@_0BC@FCLBAFHB@HOLSTER_UPPERBACK?$AA@ 300ae718     cg_holster.obj
 0002:0001072c       ??_C@_0BC@PALGCLOK@HOLSTER_LOWERBACK?$AA@ 300ae72c     cg_holster.obj
 0002:00010740       ??_C@_0BA@GAPNMCFP@HOLSTER_LEFTHIP?$AA@ 300ae740     cg_holster.obj
 0002:00010750       ??_C@_0BB@KOJKCMBC@HOLSTER_RIGHTHIP?$AA@ 300ae750     cg_holster.obj
 0002:00010764       ??_C@_0BO@IBBJADIK@models?1players?1?$CFs?1holster?4cfg?$AA@ 300ae764     cg_holster.obj
 0002:00010784       ??_C@_0CA@OEOCNHFL@models?1players?1kyle?1holster?4cfg?$AA@ 300ae784     cg_holster.obj
 0002:000107a4       ??_C@_0CB@KNEIAPJG@models?1players?1?$CFs?1holster_?$CFs?4cfg@ 300ae7a4     cg_holster.obj
 0002:000107c8       ??_C@_0ED@OGNCNLPG@Error?3?5holster?4cfg?5for?5?$CFs?5is?5ove@ 300ae7c8     cg_holster.obj
 0002:0001080c       ??_C@_0M@ELAMHLDL@holsterType?$AA@ 300ae80c     cg_holster.obj
 0002:00010818       ??_C@_0GB@PLKOMKAL@Error?3?5?5The?5holster?4cfg?5for?5?$CFs?5a@ 300ae818     cg_holster.obj
 0002:00010880       ??_C@_0FD@MHGPHBDJ@Error?3?5?5The?5holster?4cfg?5for?5?$CFs?5h@ 300ae880     cg_holster.obj
 0002:000108d4       ??_C@_09EFLJNEJD@boneIndex?$AA@ 300ae8d4     cg_holster.obj
 0002:000108e0       ??_C@_08BEHKFNNO@disabled?$AA@ 300ae8e0     cg_holster.obj
 0002:000108ec       ??_C@_09ENGABLGG@posOffset?$AA@ 300ae8ec     cg_holster.obj
 0002:000108f8       ??_C@_0L@MIPDNFDN@?$CFf?0?5?$CFf?0?5?$CFf?$AA@ 300ae8f8     cg_holster.obj
 0002:00010904       ??_C@_09GKIGNKCC@angOffset?$AA@ 300ae904     cg_holster.obj
 0002:00010910       ??_C@_0BA@DANNDEJB@LOADING_MAPNAME?$AA@ 300ae910     cg_info.obj
 0002:00010920       ??_C@_07KMNEBLH@mapname?$AA@ 300ae920     cg_info.obj
 0002:00010928       ??_C@_0O@OBEFLHGN@levelshots?1?$CFs?$AA@ 300ae928     cg_info.obj
 0002:00010938       ??_C@_0BH@NKLBLPLI@menu?1art?1unknownmap_mp?$AA@ 300ae938     cg_info.obj
 0002:00010950       ??_C@_0BC@OMJIFLDI@AWAITING_SNAPSHOT?$AA@ 300ae950     cg_info.obj
 0002:00010964       ??_C@_0L@MPAGGMDN@sv_running?$AA@ 300ae964     cg_info.obj
 0002:00010970       ??_C@_0M@NHCIKFPA@sv_hostname?$AA@ 300ae970     cg_info.obj
 0002:0001097c       ??_C@_07CAKOHKGL@sv_pure?$AA@ 300ae97c     cg_info.obj
 0002:00010984       ??_C@_0M@LJLDHHA@PURE_SERVER?$AA@ 300ae984     cg_info.obj
 0002:00010990       ??_C@_0O@GJFLJONJ@cl_motdString?$AA@ 300ae990     cg_info.obj
 0002:000109a0       ??_C@_09NFOPKLIK@sv_cheats?$AA@ 300ae9a0     cg_info.obj
 0002:000109ac       ??_C@_0BB@FMGHLLBN@CHEATSAREENABLED?$AA@ 300ae9ac     cg_info.obj
 0002:000109c0       ??_C@_05INKFKLBN@?$CFs?5?$CFi?$AA@ 300ae9c0     cg_info.obj
 0002:000109c8       ??_C@_0P@CFJBJECC@duel_fraglimit?$AA@ 300ae9c8     cg_info.obj
 0002:000109d8       ??_C@_08MILIEONM@WINLIMIT?$AA@ 300ae9d8     cg_info.obj
 0002:000109e4       ??_C@_0BC@PJKMCDAC@g_forceBasedTeams?$AA@ 300ae9e4     cg_info.obj
 0002:000109f8       ??_C@_0BA@DGPADPIF@FORCEBASEDTEAMS?$AA@ 300ae9f8     cg_info.obj
 0002:00010a08       ??_C@_0BE@EDCPOKDI@g_forcePowerDisable?$AA@ 300aea08     cg_info.obj
 0002:00010a1c       ??_C@_0P@CHCANPBO@g_maxForceRank?$AA@ 300aea1c     cg_info.obj
 0002:00010a2c       ??_C@_0BH@INBNAGOD@MP_INGAME_MAXFORCERANK?$AA@ 300aea2c     cg_info.obj
 0002:00010a44       ??_C@_07IEKFKEFE@NOFPSET?$AA@ 300aea44     cg_info.obj
 0002:00010a4c       ??_C@_0BA@NLKEDGKK@Force?5Jump?5Only?$AA@ 300aea4c     cg_info.obj
 0002:00010a5c       ??_C@_0BK@MHGNDGPH@Neutral?5Force?5Powers?5Only?$AA@ 300aea5c     cg_info.obj
 0002:00010a78       ??_C@_0BD@NKKLJIKF@Custom?5Force?5Setup?$AA@ 300aea78     cg_info.obj
 0002:00010a8c       ??_C@_0BE@OBOCPLPN@g_duelWeaponDisable?$AA@ 300aea8c     cg_info.obj
 0002:00010aa0       ??_C@_0BA@DKHOJHPN@g_weaponDisable?$AA@ 300aeaa0     cg_info.obj
 0002:00010ab0       ??_C@_0N@JNDANCJI@SABERONLYSET?$AA@ 300aeab0     cg_info.obj
 0002:00010ac0       ??_C@_0L@PMHONAIH@Melee?5Only?$AA@ 300aeac0     cg_info.obj
 0002:00010acc       ??_C@_0BE@LCKIKPIN@Sabers?5?$CG?5Melee?5Only?$AA@ 300aeacc     cg_info.obj
 0002:00010ae0       ??_C@_0O@MAICHMNL@No?5Explosives?$AA@ 300aeae0     cg_info.obj
 0002:00010af0       ??_C@_0BE@LEBPOFON@Custom?5Weapon?5Setup?$AA@ 300aeaf0     cg_info.obj
 0002:00010b04       ??_C@_0M@MPJDFFIH@RULES_FFA_1?$AA@ 300aeb04     cg_info.obj
 0002:00010b10       ??_C@_0N@CILONNPF@RULES_HOLO_1?$AA@ 300aeb10     cg_info.obj
 0002:00010b20       ??_C@_0N@DJDIODG@RULES_HOLO_2?$AA@ 300aeb20     cg_info.obj
 0002:00010b30       ??_C@_0N@LKBPLKH@RULES_JEDI_1?$AA@ 300aeb30     cg_info.obj
 0002:00010b40       ??_C@_0N@CAIMKIGE@RULES_JEDI_2?$AA@ 300aeb40     cg_info.obj
 0002:00010b50       ??_C@_0N@FCPGFLOD@RULES_DUEL_1?$AA@ 300aeb50     cg_info.obj
 0002:00010b60       ??_C@_0N@HJNLAICA@RULES_DUEL_2?$AA@ 300aeb60     cg_info.obj
 0002:00010b70       ??_C@_0BC@BPHJIFMA@RULES_POWERDUEL_1?$AA@ 300aeb70     cg_info.obj
 0002:00010b84       ??_C@_0BC@DEFENGAD@RULES_POWERDUEL_2?$AA@ 300aeb84     cg_info.obj
 0002:00010b98       ??_C@_0N@HLMCAEBD@RULES_TEAM_1?$AA@ 300aeb98     cg_info.obj
 0002:00010ba8       ??_C@_0N@FAOPFHNA@RULES_TEAM_2?$AA@ 300aeba8     cg_info.obj
 0002:00010bb8       ??_C@_0M@BIKJDIGP@RULES_CTF_1?$AA@ 300aebb8     cg_info.obj
 0002:00010bc4       ??_C@_0M@DDIEGLKM@RULES_CTF_2?$AA@ 300aebc4     cg_info.obj
 0002:00010bd0       ??_C@_0M@BANDHPKG@RULES_CTY_1?$AA@ 300aebd0     cg_info.obj
 0002:00010bdc       ??_C@_0M@DLPOCMGF@RULES_CTY_2?$AA@ 300aebdc     cg_info.obj
 0002:00010be8       ??_C@_0BJ@JHLHMDHN@svc_lightstyle?5length?$DN?$CFi?$AA@ 300aebe8     cg_light.obj
 0002:00010c04       ??_C@_0BP@HOJADAKE@CG_FreeLocalEntity?3?5not?5active?$AA@ 300aec04     cg_localents.obj
 0002:00010c24       ??_C@_0P@JBCHHKP@Bad?5leType?3?5?$CFi?$AA@ 300aec24     cg_localents.obj
 0002:00010c38       __real@3fd51eb851eb851f    300aec38     cg_localents.obj
 0002:00010c40       __real@4024000000000000    300aec40     cg_localents.obj
 0002:00010c48       __real@4045000000000000    300aec48     cg_localents.obj
 0002:00010c50       __real@42dc0000            300aec50     cg_localents.obj
 0002:00010c54       __real@447f0000            300aec54     cg_localents.obj
 0002:00010c58       ??_C@_09JDMGBOIM@cg_ignore?$AA@ 300aec58     cg_main.obj
 0002:00010c64       ??_C@_0O@JKEEFDLF@cg_autoswitch?$AA@ 300aec64     cg_main.obj
 0002:00010c74       ??_C@_0L@MLBFCMPB@cg_drawGun?$AA@ 300aec74     cg_main.obj
 0002:00010c80       ??_C@_0L@DPFDGKBB@cg_zoomfov?$AA@ 300aec80     cg_main.obj
 0002:00010c8c       ??_C@_04HAMCLDBM@40?40?$AA@ 300aec8c     cg_main.obj
 0002:00010c94       ??_C@_06FDNMOLLD@cg_fov?$AA@ 300aec94     cg_main.obj
 0002:00010c9c       ??_C@_02PFIAKEDG@80?$AA@   300aec9c     cg_main.obj
 0002:00010ca0       ??_C@_0BE@EMBJACLB@cg_stereoSeparation?$AA@ 300aeca0     cg_main.obj
 0002:00010cb4       ??_C@_03KHGJEAFP@0?44?$AA@ 300aecb4     cg_main.obj
 0002:00010cb8       ??_C@_0L@MAOLAFLC@cg_shadows?$AA@ 300aecb8     cg_main.obj
 0002:00010cc4       ??_C@_0BF@NCEBGBDJ@cg_renderToTextureFX?$AA@ 300aecc4     cg_main.obj
 0002:00010cdc       ??_C@_09EKPCJMOG@cg_draw2D?$AA@ 300aecdc     cg_main.obj
 0002:00010ce8       ??_C@_0O@IIACNNIF@cg_drawStatus?$AA@ 300aece8     cg_main.obj
 0002:00010cf8       ??_C@_0N@FOINMAON@cg_drawTimer?$AA@ 300aecf8     cg_main.obj
 0002:00010d08       ??_C@_0L@CHMHIHCB@cg_drawFPS?$AA@ 300aed08     cg_main.obj
 0002:00010d14       ??_C@_0BA@MIPMDAEB@cg_drawSnapshot?$AA@ 300aed14     cg_main.obj
 0002:00010d24       ??_C@_0P@DMBICICD@cg_draw3dIcons?$AA@ 300aed24     cg_main.obj
 0002:00010d34       ??_C@_0N@BEDCNPCC@cg_drawIcons?$AA@ 300aed34     cg_main.obj
 0002:00010d44       ??_C@_0BD@FJPGADGN@cg_drawAmmoWarning?$AA@ 300aed44     cg_main.obj
 0002:00010d58       ??_C@_0BB@LBKBMNKM@cg_drawEnemyInfo?$AA@ 300aed58     cg_main.obj
 0002:00010d6c       ??_C@_0BB@KBADOJHA@cg_drawCrosshair?$AA@ 300aed6c     cg_main.obj
 0002:00010d80       ??_C@_0BG@PFLNOEEN@cg_drawCrosshairNames?$AA@ 300aed80     cg_main.obj
 0002:00010d98       ??_C@_0N@MCKFIPGH@cg_drawRadar?$AA@ 300aed98     cg_main.obj
 0002:00010da8       ??_C@_0BI@NGOBKLCO@cg_drawVehLeadIndicator?$AA@ 300aeda8     cg_main.obj
 0002:00010dc0       ??_C@_0O@BAKMKNGL@cg_drawScores?$AA@ 300aedc0     cg_main.obj
 0002:00010dd0       ??_C@_0BE@DIOLLFIC@cg_dynamicCrosshair?$AA@ 300aedd0     cg_main.obj
 0002:00010de4       ??_C@_0BN@BFHNKEKL@cg_dynamicCrosshairPrecision?$AA@ 300aede4     cg_main.obj
 0002:00010e04       ??_C@_0P@GNHKLMJL@cg_drawRewards?$AA@ 300aee04     cg_main.obj
 0002:00010e14       ??_C@_0BB@NJOFJDCL@cg_crosshairSize?$AA@ 300aee14     cg_main.obj
 0002:00010e28       ??_C@_02JMHLOEOE@24?$AA@   300aee28     cg_main.obj
 0002:00010e2c       ??_C@_0BD@JJIJCGAH@cg_crosshairHealth?$AA@ 300aee2c     cg_main.obj
 0002:00010e40       ??_C@_0O@IHFEICLM@cg_crosshairX?$AA@ 300aee40     cg_main.obj
 0002:00010e50       ??_C@_0O@JOEPLDPN@cg_crosshairY?$AA@ 300aee50     cg_main.obj
 0002:00010e60       ??_C@_0P@CCFIBNOJ@cg_simpleItems?$AA@ 300aee60     cg_main.obj
 0002:00010e70       ??_C@_08OCDFECFG@cg_marks?$AA@ 300aee70     cg_main.obj
 0002:00010e7c       ??_C@_0N@IBNNIGPC@cg_lagometer?$AA@ 300aee7c     cg_main.obj
 0002:00010e8c       ??_C@_07DAKIIFAC@cg_gunX?$AA@ 300aee8c     cg_main.obj
 0002:00010e94       ??_C@_07CJLDLEED@cg_gunY?$AA@ 300aee94     cg_main.obj
 0002:00010e9c       ??_C@_07CJOOHIA@cg_gunZ?$AA@ 300aee9c     cg_main.obj
 0002:00010ea4       ??_C@_0O@CMEJDJHP@cg_centertime?$AA@ 300aeea4     cg_main.obj
 0002:00010eb4       ??_C@_01COCBENDE@7?$AA@    300aeeb4     cg_main.obj
 0002:00010eb8       ??_C@_0M@JHJCCBOJ@cg_runpitch?$AA@ 300aeeb8     cg_main.obj
 0002:00010ec4       ??_C@_05NIGIBNE@0?4002?$AA@ 300aeec4     cg_main.obj
 0002:00010ecc       ??_C@_0L@MJJHGKNK@cg_runroll?$AA@ 300aeecc     cg_main.obj
 0002:00010ed8       ??_C@_05ECMHBHBD@0?4005?$AA@ 300aeed8     cg_main.obj
 0002:00010ee0       ??_C@_08MBNPMEME@cg_bobup?$AA@ 300aeee0     cg_main.obj
 0002:00010eec       ??_C@_0M@BBIJCEAP@cg_bobpitch?$AA@ 300aeeec     cg_main.obj
 0002:00010ef8       ??_C@_0L@BEAFIAK@cg_bobroll?$AA@ 300aeef8     cg_main.obj
 0002:00010f04       ??_C@_0N@EMGODPLM@cg_animspeed?$AA@ 300aef04     cg_main.obj
 0002:00010f14       ??_C@_0N@OLFHJPEJ@cg_debuganim?$AA@ 300aef14     cg_main.obj
 0002:00010f24       ??_C@_0O@HLOFHCH@cg_debugsaber?$AA@ 300aef24     cg_main.obj
 0002:00010f34       ??_C@_0BB@PNGPLJB@cg_debugposition?$AA@ 300aef34     cg_main.obj
 0002:00010f48       ??_C@_0P@NKGOJNHN@cg_debugevents?$AA@ 300aef48     cg_main.obj
 0002:00010f58       ??_C@_0O@MAANEMBM@cg_errordecay?$AA@ 300aef58     cg_main.obj
 0002:00010f68       ??_C@_0N@BMAKLHMK@cg_nopredict?$AA@ 300aef68     cg_main.obj
 0002:00010f78       ??_C@_0BB@HOMHKKFN@cg_noplayeranims?$AA@ 300aef78     cg_main.obj
 0002:00010f8c       ??_C@_0M@DOMGGLDE@cg_showmiss?$AA@ 300aef8c     cg_main.obj
 0002:00010f98       ??_C@_0P@KLOAANMO@cg_showVehMiss?$AA@ 300aef98     cg_main.obj
 0002:00010fa8       ??_C@_0N@GHAOKDNB@cg_footsteps?$AA@ 300aefa8     cg_main.obj
 0002:00010fb8       ??_C@_01EKENIIDA@3?$AA@    300aefb8     cg_main.obj
 0002:00010fbc       ??_C@_0P@JLFLAMIK@cg_swingAngles?$AA@ 300aefbc     cg_main.obj
 0002:00010fcc       ??_C@_0BB@FEDAIAGH@cg_oldPainSounds?$AA@ 300aefcc     cg_main.obj
 0002:00010fe0       ??_C@_0L@HNPLAEJB@broadsword?$AA@ 300aefe0     cg_main.obj
 0002:00010fec       ??_C@_0O@KGIKKFB@cg_jumpSounds?$AA@ 300aefec     cg_main.obj
 0002:00010ffc       ??_C@_09GFLGOEGI@r_autoMap?$AA@ 300aeffc     cg_main.obj
 0002:00011008       ??_C@_0L@DBGOIINC@r_autoMapX?$AA@ 300af008     cg_main.obj
 0002:00011014       ??_C@_03DFEAAHP@496?$AA@   300af014     cg_main.obj
 0002:00011018       ??_C@_0L@CIHFLJJD@r_autoMapY?$AA@ 300af018     cg_main.obj
 0002:00011024       ??_C@_02MLODCJFF@32?$AA@   300af024     cg_main.obj
 0002:00011028       ??_C@_0L@LGPGJEBN@r_autoMapW?$AA@ 300af028     cg_main.obj
 0002:00011034       ??_C@_03KGFMDCCC@128?$AA@  300af034     cg_main.obj
 0002:00011038       ??_C@_0L@HLKMJKID@r_autoMapH?$AA@ 300af038     cg_main.obj
 0002:00011044       ??_C@_0BF@KOOBPECE@bg_fighterAltControl?$AA@ 300af044     cg_main.obj
 0002:0001105c       ??_C@_0L@HPCJPPPL@cg_chatBox?$AA@ 300af05c     cg_main.obj
 0002:00011068       ??_C@_05CLDMBJBA@10000?$AA@ 300af068     cg_main.obj
 0002:00011070       ??_C@_0BB@CHDPLIJE@cg_chatBoxHeight?$AA@ 300af070     cg_main.obj
 0002:00011084       ??_C@_03MBMDGGCE@350?$AA@  300af084     cg_main.obj
 0002:00011088       ??_C@_0BJ@MEKKLEGB@cg_saberModelTraceEffect?$AA@ 300af088     cg_main.obj
 0002:000110a4       ??_C@_0CB@MPIDIEDG@cg_saberClientVisualCompensation@ 300af0a4     cg_main.obj
 0002:000110c8       ??_C@_0O@FGBOGFDL@cg_g2TraceLod?$AA@ 300af0c8     cg_main.obj
 0002:000110d8       ??_C@_0M@HOONILKL@cg_trueguns?$AA@ 300af0d8     cg_main.obj
 0002:000110e4       ??_C@_07EPOCHFIH@cg_fpls?$AA@ 300af0e4     cg_main.obj
 0002:000110ec       ??_C@_0P@LOAKBPJB@cg_ghoul2Marks?$AA@ 300af0ec     cg_main.obj
 0002:000110fc       ??_C@_02KMALDIDP@16?$AA@   300af0fc     cg_main.obj
 0002:00011100       ??_C@_0BA@DKCLACHI@com_optvehtrace?$AA@ 300af100     cg_main.obj
 0002:00011110       ??_C@_0BF@NABJAOEA@cg_saberDynamicMarks?$AA@ 300af110     cg_main.obj
 0002:00011128       ??_C@_0BI@OHDIIEFC@cg_saberDynamicMarkTime?$AA@ 300af128     cg_main.obj
 0002:00011140       ??_C@_05DGDJCJKI@60000?$AA@ 300af140     cg_main.obj
 0002:00011148       ??_C@_0BA@JIJPALDE@cg_saberContact?$AA@ 300af148     cg_main.obj
 0002:00011158       ??_C@_0O@DCMCBFNO@cg_saberTrail?$AA@ 300af158     cg_main.obj
 0002:00011168       ??_C@_0BC@JMPFMIDA@cg_duelHeadAngles?$AA@ 300af168     cg_main.obj
 0002:0001117c       ??_C@_0O@JKMBDLDF@cg_speedTrail?$AA@ 300af17c     cg_main.obj
 0002:0001118c       ??_C@_0N@BELOMMOL@cg_auraShell?$AA@ 300af18c     cg_main.obj
 0002:0001119c       ??_C@_0P@KJEOPEGG@cg_repeaterOrb?$AA@ 300af19c     cg_main.obj
 0002:000111ac       ??_C@_0N@CKANHONG@cg_animBlend?$AA@ 300af1ac     cg_main.obj
 0002:000111bc       ??_C@_0N@OPONILAJ@cg_dismember?$AA@ 300af1bc     cg_main.obj
 0002:000111cc       ??_C@_0BJ@GCJEPJEL@cg_thirdPersonSpecialCam?$AA@ 300af1cc     cg_main.obj
 0002:000111e8       ??_C@_0BK@MPOHHNJK@cg_thirdPersonPitchOffset?$AA@ 300af1e8     cg_main.obj
 0002:00011204       ??_C@_0BJ@PLGBNFPF@cg_thirdPersonVertOffset?$AA@ 300af204     cg_main.obj
 0002:00011220       ??_C@_0BJ@BBJMCCPF@cg_thirdPersonCameraDamp?$AA@ 300af220     cg_main.obj
 0002:0001123c       ??_C@_03OICINGJI@0?43?$AA@ 300af23c     cg_main.obj
 0002:00011240       ??_C@_0BJ@FGGPEIAI@cg_thirdPersonTargetDamp?$AA@ 300af240     cg_main.obj
 0002:0001125c       ??_C@_03LOHCHBBO@0?45?$AA@ 300af25c     cg_main.obj
 0002:00011260       ??_C@_0BJ@FEJLIMD@cg_thirdPersonHorzOffset?$AA@ 300af260     cg_main.obj
 0002:0001127c       ??_C@_0BE@KCHOECBB@cg_thirdPersonAlpha?$AA@ 300af27c     cg_main.obj
 0002:00011290       ??_C@_03HLLJOCDO@1?40?$AA@ 300af290     cg_main.obj
 0002:00011294       ??_C@_0M@CHJHPOFC@cg_trueroll?$AA@ 300af294     cg_main.obj
 0002:000112a0       ??_C@_0M@EAPOPPEI@cg_trueflip?$AA@ 300af2a0     cg_main.obj
 0002:000112ac       ??_C@_0M@CGHADAEC@cg_truespin?$AA@ 300af2ac     cg_main.obj
 0002:000112b8       ??_C@_0BA@LKFOGNLI@cg_truemoveroll?$AA@ 300af2b8     cg_main.obj
 0002:000112c8       ??_C@_0BB@JIKADKPP@cg_truesaberonly?$AA@ 300af2c8     cg_main.obj
 0002:000112dc       ??_C@_0BD@EEAKGOKF@cg_trueeyeposition?$AA@ 300af2dc     cg_main.obj
 0002:000112f0       ??_C@_03MDAFIFFL@0?40?$AA@ 300af2f0     cg_main.obj
 0002:000112f4       ??_C@_0BD@PILGLDEI@cg_trueinvertsaber?$AA@ 300af2f4     cg_main.obj
 0002:00011308       ??_C@_0L@LOONOPBB@cg_truefov?$AA@ 300af308     cg_main.obj
 0002:00011314       ??_C@_0O@LJBBKNGE@cg_forceModel?$AA@ 300af314     cg_main.obj
 0002:00011324       ??_C@_0BA@PKAEEJJB@cg_predictItems?$AA@ 300af324     cg_main.obj
 0002:00011334       ??_C@_0BA@PFOJHBKN@cg_deferPlayers?$AA@ 300af334     cg_main.obj
 0002:00011344       ??_C@_0BD@BNGDPIGC@cg_drawTeamOverlay?$AA@ 300af344     cg_main.obj
 0002:00011358       ??_C@_0M@IKKMOBIP@teamoverlay?$AA@ 300af358     cg_main.obj
 0002:00011364       ??_C@_08CGDPCFHD@cg_stats?$AA@ 300af364     cg_main.obj
 0002:00011370       ??_C@_0O@KGJIDOMN@cg_drawFriend?$AA@ 300af370     cg_main.obj
 0002:00011380       ??_C@_0BB@GFOCPFOA@cg_teamChatsOnly?$AA@ 300af380     cg_main.obj
 0002:00011394       ??_C@_0BA@MOHNLIKA@com_buildScript?$AA@ 300af394     cg_main.obj
 0002:000113a4       ??_C@_09DKNLLEN@com_blood?$AA@ 300af3a4     cg_main.obj
 0002:000113b0       ??_C@_0BF@LICFCALK@g_synchronousClients?$AA@ 300af3b0     cg_main.obj
 0002:000113c8       ??_C@_0BJ@CEJCFKCN@cg_currentSelectedPlayer?$AA@ 300af3c8     cg_main.obj
 0002:000113e4       ??_C@_0BN@HANLGBBD@cg_currentSelectedPlayerName?$AA@ 300af3e4     cg_main.obj
 0002:00011404       ??_C@_0BA@OHINOCDN@ui_recordSPDemo?$AA@ 300af404     cg_main.obj
 0002:00011414       ??_C@_0BE@CELIAELA@ui_recordSPDemoName?$AA@ 300af414     cg_main.obj
 0002:00011428       ??_C@_02PNFIDHGF@50?$AA@   300af428     cg_main.obj
 0002:0001142c       ??_C@_0BE@INLNOCBP@cg_timescaleFadeEnd?$AA@ 300af42c     cg_main.obj
 0002:00011440       ??_C@_0BG@HODAAIBP@cg_timescaleFadeSpeed?$AA@ 300af440     cg_main.obj
 0002:00011458       ??_C@_09IIOBMIO@timescale?$AA@ 300af458     cg_main.obj
 0002:00011464       ??_C@_0O@ECBGLFLJ@cg_scorePlums?$AA@ 300af464     cg_main.obj
 0002:00011474       ??_C@_0M@OADJJKKA@cg_hudFiles?$AA@ 300af474     cg_main.obj
 0002:00011480       ??_C@_0N@NPDEHAEG@ui?1jahud?4txt?$AA@ 300af480     cg_main.obj
 0002:00011490       ??_C@_0BB@EPNKMEEL@cg_smoothClients?$AA@ 300af490     cg_main.obj
 0002:000114a4       ??_C@_0P@JODJDBEF@ojp_sabermelee?$AA@ 300af4a4     cg_main.obj
 0002:000114b4       ??_C@_0P@EIAPFKBF@com_cameraMode?$AA@ 300af4b4     cg_main.obj
 0002:000114c4       ??_C@_0M@HOGKGHBI@pmove_fixed?$AA@ 300af4c4     cg_main.obj
 0002:000114d0       ??_C@_0L@JLBEBBAD@pmove_msec?$AA@ 300af4d0     cg_main.obj
 0002:000114dc       ??_C@_01KJLJFBPL@8?$AA@    300af4dc     cg_main.obj
 0002:000114e0       ??_C@_0L@BNLHLPGL@cg_noTaunt?$AA@ 300af4e0     cg_main.obj
 0002:000114ec       ??_C@_0BF@IHAIMPIG@cg_noProjectileTrail?$AA@ 300af4ec     cg_main.obj
 0002:00011504       ??_C@_0BB@GNCGINEC@cg_showVehBounds?$AA@ 300af504     cg_main.obj
 0002:00011518       ??_C@_0N@LNIKGPCC@ui_menubrief?$AA@ 300af518     cg_main.obj
 0002:00011528       ??_C@_0BD@PBCOGHDJ@cg_snapshotTimeout?$AA@ 300af528     cg_main.obj
 0002:0001153c       ??_C@_02PKFBJPLJ@10?$AA@   300af53c     cg_main.obj
 0002:00011540       ??_C@_07HEFMJHOI@debugBB?$AA@ 300af540     cg_main.obj
 0002:00011548       ??_C@_0L@JPJEHMLJ@rgb_saber1?$AA@ 300af548     cg_main.obj
 0002:00011554       ??_C@_09BGEFPGPE@0?0150?0150?$AA@ 300af554     cg_main.obj
 0002:00011560       ??_C@_0L@LELJCPHK@rgb_saber2?$AA@ 300af560     cg_main.obj
 0002:0001156c       ??_C@_09MHAILAGD@150?00?0150?$AA@ 300af56c     cg_main.obj
 0002:00011578       ??_C@_0M@PJJOOBPF@rgb_script1?$AA@ 300af578     cg_main.obj
 0002:00011584       ??_C@_0BM@HBFPEHDG@?3255?00?0255?3500?30?00?0255?3500?3?$AA@ 300af584     cg_main.obj
 0002:000115a0       ??_C@_0M@NCLDLCDG@rgb_script2?$AA@ 300af5a0     cg_main.obj
 0002:000115ac       ??_C@_0BM@BLGHELCB@?30?0255?0255?3500?30?0255?00?3500?3?$AA@ 300af5ac     cg_main.obj
 0002:000115c8       ??_C@_0BC@PPHDFDHA@ojp_teamrgbsabers?$AA@ 300af5c8     cg_main.obj
 0002:000115dc       ??_C@_0L@EKHJCNCP@sfx_sabers?$AA@ 300af5dc     cg_main.obj
 0002:000115e8       ??_C@_0BC@GBPGONMC@cg_MovieSaberType?$AA@ 300af5e8     cg_main.obj
 0002:000115fc       ??_C@_0BB@LPCOMELA@ojp_clientplugin?$AA@ 300af5fc     cg_main.obj
 0002:00011610       ??_C@_0BC@NONDELBM@OJP?5Enhanced?5v1?42?$AA@ 300af610     cg_main.obj
 0002:00011624       ??_C@_0BF@HKBODJNH@ojp_holsteredweapons?$AA@ 300af624     cg_main.obj
 0002:0001163c       ??_C@_0BB@BFGNBIPN@ojp_holsterdebug?$AA@ 300af63c     cg_main.obj
 0002:00011650       ??_C@_0BL@DJIEIOIN@ojp_holsterdebug_boneindex?$AA@ 300af650     cg_main.obj
 0002:0001166c       ??_C@_0BL@PJEMHNNC@ojp_holsterdebug_posoffset?$AA@ 300af66c     cg_main.obj
 0002:00011688       ??_C@_0M@GMKBDHHD@0?40?50?40?50?40?$AA@ 300af688     cg_main.obj
 0002:00011694       ??_C@_0BL@NOKKLMJG@ojp_holsterdebug_angoffset?$AA@ 300af694     cg_main.obj
 0002:000116b0       ??_C@_09CNJINBGN@classname?$AA@ 300af6b0     cg_main.obj
 0002:000116bc       ??_C@_06NHCMNMEH@origin?$AA@ 300af6bc     cg_main.obj
 0002:000116c4       ??_C@_06GNEAMJOC@angles?$AA@ 300af6c4     cg_main.obj
 0002:000116cc       ??_C@_05FECBCJJD@angle?$AA@ 300af6cc     cg_main.obj
 0002:000116d4       ??_C@_0L@HDLPNNAF@modelscale?$AA@ 300af6d4     cg_main.obj
 0002:000116e0       ??_C@_0P@OMAFFCFF@modelscale_vec?$AA@ 300af6e0     cg_main.obj
 0002:000116f0       ??_C@_04FIAKMPII@mins?$AA@ 300af6f0     cg_main.obj
 0002:000116f8       ??_C@_04IFBFDIKF@maxs?$AA@ 300af6f8     cg_main.obj
 0002:00011700       ??_C@_07GOKJEFCD@zoffset?$AA@ 300af700     cg_main.obj
 0002:00011708       ??_C@_0M@NPFLFEBE@onlyfoghere?$AA@ 300af708     cg_main.obj
 0002:00011714       ??_C@_08GPANHKMJ@fogstart?$AA@ 300af714     cg_main.obj
 0002:00011720       ??_C@_0L@GHJELKA@radarrange?$AA@ 300af720     cg_main.obj
 0002:0001172c       ??_C@_0BE@EPHCALE@gfx?12d?1numbers?1zero?$AA@ 300af72c     cg_main.obj
 0002:00011740       ??_C@_0BD@JPBKBBJF@gfx?12d?1numbers?1one?$AA@ 300af740     cg_main.obj
 0002:00011754       ??_C@_0BD@PBBKLBHO@gfx?12d?1numbers?1two?$AA@ 300af754     cg_main.obj
 0002:00011768       ??_C@_0BF@BLIPDPEA@gfx?12d?1numbers?1three?$AA@ 300af768     cg_main.obj
 0002:00011780       ??_C@_0BE@DEHJMAMK@gfx?12d?1numbers?1four?$AA@ 300af780     cg_main.obj
 0002:00011794       ??_C@_0BE@BGNHKFNJ@gfx?12d?1numbers?1five?$AA@ 300af794     cg_main.obj
 0002:000117a8       ??_C@_0BD@HPPGIDCL@gfx?12d?1numbers?1six?$AA@ 300af7a8     cg_main.obj
 0002:000117bc       ??_C@_0BF@JCIMIFNF@gfx?12d?1numbers?1seven?$AA@ 300af7bc     cg_main.obj
 0002:000117d4       ??_C@_0BF@NCKDNACA@gfx?12d?1numbers?1eight?$AA@ 300af7d4     cg_main.obj
 0002:000117ec       ??_C@_0BE@DEJCBMNA@gfx?12d?1numbers?1nine?$AA@ 300af7ec     cg_main.obj
 0002:00011800       ??_C@_0BF@BIEHLLCD@gfx?12d?1numbers?1minus?$AA@ 300af800     cg_main.obj
 0002:00011818       ??_C@_0BG@BKINAJCK@gfx?1mp?1f_icon_lt_heal?$AA@ 300af818     cg_main.obj
 0002:00011830       ??_C@_0BJ@DCGHGAMM@gfx?1mp?1f_icon_levitation?$AA@ 300af830     cg_main.obj
 0002:0001184c       ??_C@_0BG@KEMEHAOG@gfx?12d?1numbers?1t_zero?$AA@ 300af84c     cg_main.obj
 0002:00011864       ??_C@_0BE@GACMMIP@gfx?1mp?1f_icon_speed?$AA@ 300af864     cg_main.obj
 0002:00011878       ??_C@_0BF@KGKIDLHF@gfx?12d?1numbers?1t_one?$AA@ 300af878     cg_main.obj
 0002:00011890       ??_C@_0BD@CDNNBOGJ@gfx?1mp?1f_icon_push?$AA@ 300af890     cg_main.obj
 0002:000118a4       ??_C@_0BF@MIKIJLJO@gfx?12d?1numbers?1t_two?$AA@ 300af8a4     cg_main.obj
 0002:000118bc       ??_C@_0BD@FAMLDPCA@gfx?1mp?1f_icon_pull?$AA@ 300af8bc     cg_main.obj
 0002:000118d0       ??_C@_0BH@JOEKDMMI@gfx?12d?1numbers?1t_three?$AA@ 300af8d0     cg_main.obj
 0002:000118e8       ??_C@_0BL@GPKCAHJD@gfx?1mp?1f_icon_lt_telepathy?$AA@ 300af8e8     cg_main.obj
 0002:00011904       ??_C@_0BG@JEEKJAJI@gfx?12d?1numbers?1t_four?$AA@ 300af904     cg_main.obj
 0002:0001191c       ??_C@_0BG@PPAEAKKK@gfx?1mp?1f_icon_dk_grip?$AA@ 300af91c     cg_main.obj
 0002:00011934       ??_C@_0BG@LGOEPFIL@gfx?12d?1numbers?1t_five?$AA@ 300af934     cg_main.obj
 0002:0001194c       ??_C@_0BE@FIGKNCGE@gfx?1mp?1f_icon_dk_l1?$AA@ 300af94c     cg_main.obj
 0002:00011960       ??_C@_0BF@EGEEKJML@gfx?12d?1numbers?1t_six?$AA@ 300af960     cg_main.obj
 0002:00011978       ??_C@_0BG@CIIDCBDH@gfx?1mp?1f_icon_dk_rage?$AA@ 300af978     cg_main.obj
 0002:00011990       ??_C@_0BH@BHEJIGFN@gfx?12d?1numbers?1t_seven?$AA@ 300af990     cg_main.obj
 0002:000119a8       ??_C@_0BJ@BNJGHMKP@gfx?1mp?1f_icon_lt_protect?$AA@ 300af9a8     cg_main.obj
 0002:000119c4       ??_C@_0BH@FHGGNDKI@gfx?12d?1numbers?1t_eight?$AA@ 300af9c4     cg_main.obj
 0002:000119dc       ??_C@_0BI@JGABMFHN@gfx?1mp?1f_icon_lt_absorb?$AA@ 300af9dc     cg_main.obj
 0002:000119f4       ??_C@_0BG@JEKBEMIC@gfx?12d?1numbers?1t_nine?$AA@ 300af9f4     cg_main.obj
 0002:00011a0c       ??_C@_0BL@PHMODMPE@gfx?1mp?1f_icon_lt_healother?$AA@ 300afa0c     cg_main.obj
 0002:00011a28       ??_C@_0BH@JNICLIKL@gfx?12d?1numbers?1t_minus?$AA@ 300afa28     cg_main.obj
 0002:00011a40       ??_C@_0BM@INELODPO@gfx?1mp?1f_icon_dk_forceother?$AA@ 300afa40     cg_main.obj
 0002:00011a5c       ??_C@_0BH@JNFFMKGL@gfx?1mp?1f_icon_dk_drain?$AA@ 300afa5c     cg_main.obj
 0002:00011a74       ??_C@_0BE@IDOBHAPF@gfx?1mp?1f_icon_sight?$AA@ 300afa74     cg_main.obj
 0002:00011a88       ??_C@_0BG@GLNNCKG@gfx?12d?1numbers?1c_zero?$AA@ 300afa88     cg_main.obj
 0002:00011aa0       ??_C@_0BL@FEKHDPBD@gfx?1mp?1f_icon_saber_attack?$AA@ 300afaa0     cg_main.obj
 0002:00011abc       ??_C@_0BF@LIHLAJFG@gfx?12d?1numbers?1c_one?$AA@ 300afabc     cg_main.obj
 0002:00011ad4       ??_C@_0BL@NEBHBNKD@gfx?1mp?1f_icon_saber_defend?$AA@ 300afad4     cg_main.obj
 0002:00011af0       ??_C@_0BF@NGHLKJLN@gfx?12d?1numbers?1c_two?$AA@ 300afaf0     cg_main.obj
 0002:00011b08       ??_C@_0BK@FEFIMOAO@gfx?1mp?1f_icon_saber_throw?$AA@ 300afb08     cg_main.obj
 0002:00011b24       ??_C@_0BH@OIDEAEPK@gfx?12d?1numbers?1c_three?$AA@ 300afb24     cg_main.obj
 0002:00011b3c       ??_C@_0BG@DGDDDCNI@gfx?12d?1numbers?1c_four?$AA@ 300afb3c     cg_main.obj
 0002:00011b54       ??_C@_0BG@BEJNFHML@gfx?12d?1numbers?1c_five?$AA@ 300afb54     cg_main.obj
 0002:00011b6c       ??_C@_0BF@FIJHJLOI@gfx?12d?1numbers?1c_six?$AA@ 300afb6c     cg_main.obj
 0002:00011b84       ??_C@_0BH@GBDHLOGP@gfx?12d?1numbers?1c_seven?$AA@ 300afb84     cg_main.obj
 0002:00011b9c       ??_C@_0BH@CBBIOLJK@gfx?12d?1numbers?1c_eight?$AA@ 300afb9c     cg_main.obj
 0002:00011bb4       ??_C@_0BG@DGNIOOMC@gfx?12d?1numbers?1c_nine?$AA@ 300afbb4     cg_main.obj
 0002:00011bcc       ??_C@_0BL@MDCOCEP@vmMain?3?5unknown?5command?5?$CFi?$AA@ 300afbcc     cg_main.obj
 0002:00011be8       ??_C@_0CC@NJMNCFMP@sound?1player?1bodyfall_human?$CFi?4wa@ 300afbe8     cg_main.obj
 0002:00011c0c       ??_C@_0CD@PGGCPIMP@Invalid?5callType?5in?5CG_RagCallba@ 300afc0c     cg_main.obj
 0002:00011c30       ??_C@_0CK@MLAIPOAD@client_model?5has?5invalid?5model?5d@ 300afc30     cg_main.obj
 0002:00011c5c       ??_C@_0BC@CEGLMIAL@ui_about_gametype?$AA@ 300afc5c     cg_main.obj
 0002:00011c70       ??_C@_0BD@ECBGHOAM@ui_about_fraglimit?$AA@ 300afc70     cg_main.obj
 0002:00011c84       ??_C@_0BG@JGMDIDMD@ui_about_capturelimit?$AA@ 300afc84     cg_main.obj
 0002:00011c9c       ??_C@_0BD@KEMPJJPI@ui_about_duellimit?$AA@ 300afc9c     cg_main.obj
 0002:00011cb0       ??_C@_0BD@IPOIPHBD@ui_about_timelimit?$AA@ 300afcb0     cg_main.obj
 0002:00011cc4       ??_C@_0BE@MLNAEEGH@ui_about_maxclients?$AA@ 300afcc4     cg_main.obj
 0002:00011cd8       ??_C@_0BB@JGBJLNBF@ui_about_dmflags?$AA@ 300afcd8     cg_main.obj
 0002:00011cec       ??_C@_0BB@PALGEOKN@ui_about_mapname?$AA@ 300afcec     cg_main.obj
 0002:00011d00       ??_C@_0BC@LKDAODDF@ui_about_hostname?$AA@ 300afd00     cg_main.obj
 0002:00011d14       ??_C@_0BC@IKMCDPFG@ui_about_needpass?$AA@ 300afd14     cg_main.obj
 0002:00011d28       ??_C@_0BH@MDOIMJCC@ui_about_botminplayers?$AA@ 300afd28     cg_main.obj
 0002:00011d40       ??_C@_0L@MIDCNNH@ui_tm1_cnt?$AA@ 300afd40     cg_main.obj
 0002:00011d4c       ??_C@_0L@IKBHFPHJ@ui_tm2_cnt?$AA@ 300afd4c     cg_main.obj
 0002:00011d58       ??_C@_0L@EBELIMNM@ui_tm3_cnt?$AA@ 300afd58     cg_main.obj
 0002:00011d64       ??_C@_0O@HMEBNOGL@ui_tm1_c0_cnt?$AA@ 300afd64     cg_main.obj
 0002:00011d74       ??_C@_0O@LHBNANMO@ui_tm1_c1_cnt?$AA@ 300afd74     cg_main.obj
 0002:00011d84       ??_C@_0O@DBIJHPGA@ui_tm1_c2_cnt?$AA@ 300afd84     cg_main.obj
 0002:00011d94       ??_C@_0O@PKNFKMMF@ui_tm1_c3_cnt?$AA@ 300afd94     cg_main.obj
 0002:00011da4       ??_C@_0O@OHNAJMHN@ui_tm1_c4_cnt?$AA@ 300afda4     cg_main.obj
 0002:00011db4       ??_C@_0O@CMIMEPNI@ui_tm1_c5_cnt?$AA@ 300afdb4     cg_main.obj
 0002:00011dc4       ??_C@_0O@EFMMOCKO@ui_tm2_c0_cnt?$AA@ 300afdc4     cg_main.obj
 0002:00011dd4       ??_C@_0O@IOJADBAL@ui_tm2_c1_cnt?$AA@ 300afdd4     cg_main.obj
 0002:00011de4       ??_C@_0O@IAEEDKF@ui_tm2_c2_cnt?$AA@ 300afde4     cg_main.obj
 0002:00011df4       ??_C@_0O@MDFIJAAA@ui_tm2_c3_cnt?$AA@ 300afdf4     cg_main.obj
 0002:00011e04       ??_C@_0O@NOFNKALI@ui_tm2_c4_cnt?$AA@ 300afe04     cg_main.obj
 0002:00011e14       ??_C@_0O@BFABHDBN@ui_tm2_c5_cnt?$AA@ 300afe14     cg_main.obj
 0002:00011e24       ??_C@_02IJDFDKEE@95?$AA@   300afe24     cg_main.obj
 0002:00011e28       ??_C@_02ICGJHNHJ@65?$AA@   300afe28     cg_main.obj
 0002:00011e2c       ??_C@_0CJ@CMOPAMCG@PrecacheItem?3?5?$CFs?5has?5bad?5precach@ 300afe2c     cg_main.obj
 0002:00011e58       ??_C@_03HJPPGDLO@efx?$AA@  300afe58     cg_main.obj
 0002:00011e5c       ??_C@_06BGIAFJGK@?$CDclear?$AA@ 300afe5c     cg_main.obj
 0002:00011e64       ??_C@_0BP@IIEIAOMN@sound?1weapons?1melee?1punch1?4mp3?$AA@ 300afe64     cg_main.obj
 0002:00011e84       ??_C@_0BP@ONMHMGD@sound?1weapons?1melee?1punch2?4mp3?$AA@ 300afe84     cg_main.obj
 0002:00011ea4       ??_C@_0BP@MFIAKPMG@sound?1weapons?1melee?1punch3?4mp3?$AA@ 300afea4     cg_main.obj
 0002:00011ec4       ??_C@_0BP@NIIFJPHO@sound?1weapons?1melee?1punch4?4mp3?$AA@ 300afec4     cg_main.obj
 0002:00011ee4       ??_C@_0CA@CHBAPCJN@sound?1movers?1objects?1saber_slam?$AA@ 300afee4     cg_main.obj
 0002:00011f04       ??_C@_0CB@HLKABIEI@sound?1player?1bodyfall_human1?4wav@ 300aff04     cg_main.obj
 0002:00011f28       ??_C@_0CB@PNDEGKOG@sound?1player?1bodyfall_human2?4wav@ 300aff28     cg_main.obj
 0002:00011f4c       ??_C@_0CB@DGGILJED@sound?1player?1bodyfall_human3?4wav@ 300aff4c     cg_main.obj
 0002:00011f70       ??_C@_0BL@GPCFCJHH@effects?1mp?1test_sparks?4efx?$AA@ 300aff70     cg_main.obj
 0002:00011f8c       ??_C@_0CA@HECOILHC@effects?1mp?1test_wall_impact?4efx?$AA@ 300aff8c     cg_main.obj
 0002:00011fac       ??_C@_0CD@MEAHMLPM@sound?1chars?1protocol?1misc?140MOM0@ 300affac     cg_main.obj
 0002:00011fd0       ??_C@_0CD@NNBMPKLN@sound?1chars?1protocol?1misc?140MOM0@ 300affd0     cg_main.obj
 0002:00011ff4       ??_C@_0CD@LJHADPLJ@sound?1chars?1protocol?1misc?140MOM0@ 300afff4     cg_main.obj
 0002:00012018       ??_C@_0CD@JCFNGMHK@sound?1chars?1protocol?1misc?140MOM0@ 300b0018     cg_main.obj
 0002:0001203c       ??_C@_0CD@ILEGFNDL@sound?1chars?1protocol?1misc?140MOM0@ 300b003c     cg_main.obj
 0002:00012060       ??_C@_0CD@NPFKEEOE@sound?1chars?1protocol?1misc?140MOM0@ 300b0060     cg_main.obj
 0002:00012084       ??_C@_0CD@PEHHBHCH@sound?1chars?1protocol?1misc?140MOM0@ 300b0084     cg_main.obj
 0002:000120a8       ??_C@_0CD@ONGMCGGG@sound?1chars?1protocol?1misc?140MOM0@ 300b00a8     cg_main.obj
 0002:000120cc       ??_C@_0CD@GKPEDKKJ@sound?1chars?1protocol?1misc?140MOM0@ 300b00cc     cg_main.obj
 0002:000120f0       ??_C@_0BD@CMBDLFG@gfx?1mp?1c_icon_tech?$AA@ 300b00f0     cg_main.obj
 0002:00012104       ??_C@_0BM@GFPNKFNM@gfx?1effects?1sabers?1red_glow?$AA@ 300b0104     cg_main.obj
 0002:00012120       ??_C@_0BM@FMMFHOBL@gfx?1effects?1sabers?1red_line?$AA@ 300b0120     cg_main.obj
 0002:0001213c       ??_C@_0BP@PNPBNGNI@gfx?1effects?1sabers?1orange_glow?$AA@ 300b013c     cg_main.obj
 0002:0001215c       ??_C@_0BP@MEMJANBP@gfx?1effects?1sabers?1orange_line?$AA@ 300b015c     cg_main.obj
 0002:0001217c       ??_C@_0BP@GBLFHKOI@gfx?1effects?1sabers?1yellow_glow?$AA@ 300b017c     cg_main.obj
 0002:0001219c       ??_C@_0BP@FIINKBCP@gfx?1effects?1sabers?1yellow_line?$AA@ 300b019c     cg_main.obj
 0002:000121bc       ??_C@_0BO@BBHPNJME@gfx?1effects?1sabers?1green_glow?$AA@ 300b01bc     cg_main.obj
 0002:000121dc       ??_C@_0BO@CIEHACAD@gfx?1effects?1sabers?1green_line?$AA@ 300b01dc     cg_main.obj
 0002:000121fc       ??_C@_0BN@EHAIJJIG@gfx?1effects?1sabers?1blue_glow?$AA@ 300b01fc     cg_main.obj
 0002:0001221c       ??_C@_0BN@HODAECEB@gfx?1effects?1sabers?1blue_line?$AA@ 300b021c     cg_main.obj
 0002:0001223c       ??_C@_0BP@FPLHAOII@gfx?1effects?1sabers?1purple_glow?$AA@ 300b023c     cg_main.obj
 0002:0001225c       ??_C@_0BP@GGIPNFEP@gfx?1effects?1sabers?1purple_line?$AA@ 300b025c     cg_main.obj
 0002:0001227c       ??_C@_0BM@EEAIJHJL@gfx?1effects?1sabers?1rgb_glow?$AA@ 300b027c     cg_main.obj
 0002:00012298       ??_C@_0BM@HNDAEMFM@gfx?1effects?1sabers?1rgb_line?$AA@ 300b0298     cg_main.obj
 0002:000122b4       ??_C@_0BM@MPDHNOEF@gfx?1effects?1sabers?1rgb_core?$AA@ 300b02b4     cg_main.obj
 0002:000122d0       ??_C@_0BO@JAPELDPB@gfx?1effects?1sabers?1black_glow?$AA@ 300b02d0     cg_main.obj
 0002:000122f0       ??_C@_0CC@KCKBDCDA@gfx?1effects?1sabers?1blacksaberBlu@ 300b02f0     cg_main.obj
 0002:00012314       ??_C@_0BH@ONIAEPDG@SFX_Sabers?1saber_trail?$AA@ 300b0314     cg_main.obj
 0002:0001232c       ??_C@_0BH@DOMFKPEJ@SFX_Sabers?1saber_blade?$AA@ 300b032c     cg_main.obj
 0002:00012344       ??_C@_0BL@CCPCNHMH@SFX_Sabers?1saber_blade_rgb?$AA@ 300b0344     cg_main.obj
 0002:00012360       ??_C@_0BF@KAFEADJJ@SFX_Sabers?1saber_end?$AA@ 300b0360     cg_main.obj
 0002:00012378       ??_C@_0BJ@KLCJMPEC@SFX_Sabers?1saber_end_rgb?$AA@ 300b0378     cg_main.obj
 0002:00012394       ??_C@_0BG@MBEGJFI@OTsabers?1ot_saberCore?$AA@ 300b0394     cg_main.obj
 0002:000123ac       ??_C@_0BE@PNCNBFND@OTsabers?1ot_redGlow?$AA@ 300b03ac     cg_main.obj
 0002:000123c0       ??_C@_0BH@KBKDPKBH@OTsabers?1ot_orangeGlow?$AA@ 300b03c0     cg_main.obj
 0002:000123d8       ??_C@_0BH@OMAJGDND@OTsabers?1ot_yellowGlow?$AA@ 300b03d8     cg_main.obj
 0002:000123f0       ??_C@_0BG@ECPCLEFJ@OTsabers?1ot_greenGlow?$AA@ 300b03f0     cg_main.obj
 0002:00012408       ??_C@_0BF@PBIKGIGE@OTsabers?1ot_blueGlow?$AA@ 300b0408     cg_main.obj
 0002:00012420       ??_C@_0BH@IAAKNIDE@OTsabers?1ot_purpleGlow?$AA@ 300b0420     cg_main.obj
 0002:00012438       ??_C@_0BF@OIKJFFL@Ep1Sabers?1saber_core?$AA@ 300b0438     cg_main.obj
 0002:00012450       ??_C@_0BE@JIABGIOK@Ep1Sabers?1red_glowa?$AA@ 300b0450     cg_main.obj
 0002:00012464       ??_C@_0BH@BOMLIHB@Ep1Sabers?1orange_glowa?$AA@ 300b0464     cg_main.obj
 0002:0001247c       ??_C@_0BH@CHKJMMHB@Ep1Sabers?1yellow_glowa?$AA@ 300b047c     cg_main.obj
 0002:00012494       ??_C@_0BG@BAHDNDMB@Ep1Sabers?1green_glowa?$AA@ 300b0494     cg_main.obj
 0002:000124ac       ??_C@_0BF@PKBJGHPK@Ep1Sabers?1blue_glowa?$AA@ 300b04ac     cg_main.obj
 0002:000124c4       ??_C@_0BH@GKCFKPFN@Ep1Sabers?1purple_glowa?$AA@ 300b04c4     cg_main.obj
 0002:000124dc       ??_C@_0BF@KNNMBDPC@Ep2Sabers?1saber_core?$AA@ 300b04dc     cg_main.obj
 0002:000124f4       ??_C@_0BN@BJKOOKOL@Ep2Sabers?1white_ignite_flare?$AA@ 300b04f4     cg_main.obj
 0002:00012514       ??_C@_0BN@EBPPABBM@Ep3Sabers?1black_ignite_flare?$AA@ 300b0514     cg_main.obj
 0002:00012534       ??_C@_0BE@HCIHLFII@Ep2Sabers?1red_glowa?$AA@ 300b0534     cg_main.obj
 0002:00012548       ??_C@_0BH@HKPCDKJC@Ep2Sabers?1orange_glowa?$AA@ 300b0548     cg_main.obj
 0002:00012560       ??_C@_0BH@FMLHEOJC@Ep2Sabers?1yellow_glowa?$AA@ 300b0560     cg_main.obj
 0002:00012578       ??_C@_0BG@LPNKJOAL@Ep2Sabers?1green_glowa?$AA@ 300b0578     cg_main.obj
 0002:00012590       ??_C@_0BF@FJEPOBFD@Ep2Sabers?1blue_glowa?$AA@ 300b0590     cg_main.obj
 0002:000125a8       ??_C@_0BH@BBDLCNLO@Ep2Sabers?1purple_glowa?$AA@ 300b05a8     cg_main.obj
 0002:000125c0       ??_C@_0BF@HKDOJDKK@Ep3Sabers?1saber_core?$AA@ 300b05c0     cg_main.obj
 0002:000125d8       ??_C@_0BN@HHCCPBKK@Ep3Sabers?1white_ignite_flare?$AA@ 300b05d8     cg_main.obj
 0002:000125f8       ??_C@_0BL@NDIBOD@Ep3Sabers?1red_ignite_flare?$AA@ 300b05f8     cg_main.obj
 0002:00012614       ??_C@_0BN@FLOFDCJH@Ep3Sabers?1green_ignite_flare?$AA@ 300b0614     cg_main.obj
 0002:00012634       ??_C@_0BO@GCMPFFEO@Ep3Sabers?1purple_ignite_flare?$AA@ 300b0634     cg_main.obj
 0002:00012654       ??_C@_0BM@NCMICBAB@Ep3Sabers?1blue_ignite_flare?$AA@ 300b0654     cg_main.obj
 0002:00012670       ??_C@_0BO@HMCDMOCN@Ep3Sabers?1orange_ignite_flare?$AA@ 300b0670     cg_main.obj
 0002:00012690       ??_C@_0BO@PJNKKGCB@Ep3Sabers?1yellow_ignite_flare?$AA@ 300b0690     cg_main.obj
 0002:000126b0       ??_C@_0BE@JNNFADGJ@Ep3Sabers?1red_glowa?$AA@ 300b06b0     cg_main.obj
 0002:000126c4       ??_C@_0BH@OFCILJAM@Ep3Sabers?1orange_glowa?$AA@ 300b06c4     cg_main.obj
 0002:000126dc       ??_C@_0BH@MDGNMNAM@Ep3Sabers?1yellow_glowa?$AA@ 300b06dc     cg_main.obj
 0002:000126f4       ??_C@_0BG@NKLNKFEN@Ep3Sabers?1green_glowa?$AA@ 300b06f4     cg_main.obj
 0002:0001270c       ??_C@_0BF@IOKNGBAL@Ep3Sabers?1blue_glowa?$AA@ 300b070c     cg_main.obj
 0002:00012724       ??_C@_0BH@IOOBKOCA@Ep3Sabers?1purple_glowa?$AA@ 300b0724     cg_main.obj
 0002:0001273c       ??_C@_0BN@NGIAMIEK@gfx?1effects?1sabers?1saberBlur?$AA@ 300b073c     cg_main.obj
 0002:0001275c       ??_C@_0BO@DDEPMPOP@gfx?1effects?1sabers?1swordTrail?$AA@ 300b075c     cg_main.obj
 0002:0001277c       ??_C@_0BE@EAAEGHFK@gfx?1hud?1force_swirl?$AA@ 300b077c     cg_main.obj
 0002:00012790       ??_C@_0BI@JJNNJHJD@gfx?1effects?1yellow_glow?$AA@ 300b0790     cg_main.obj
 0002:000127a8       ??_C@_0BF@DJENGLFO@gfx?1damage?1rivetmark?$AA@ 300b07a8     cg_main.obj
 0002:000127c0       ??_C@_0BI@MCAJLALH@powerups?1ysalimarishell?$AA@ 300b07c0     cg_main.obj
 0002:000127d8       ??_C@_0BG@BOFAMPFG@gfx?1effects?1forcePush?$AA@ 300b07d8     cg_main.obj
 0002:000127f0       ??_C@_0CF@BDJNEKJF@sound?1weapons?1saber?1saberblock?$CFi@ 300b07f0     cg_main.obj
 0002:00012818       ??_C@_0CB@KIOLPEIM@sound?1weapons?1saber?1bounce?$CFi?4wav@ 300b0818     cg_main.obj
 0002:0001283c       ??_C@_0CG@LENDFJGC@sound?1weapons?1saber?1saberoffquic@ 300b083c     cg_main.obj
 0002:00012864       ??_C@_0CC@BOODJDJL@sound?1weapons?1saber?1saberhitwall@ 300b0864     cg_main.obj
 0002:00012888       ??_C@_0CC@DFMOMAFI@sound?1weapons?1saber?1saberhitwall@ 300b0888     cg_main.obj
 0002:000128ac       ??_C@_0CC@CMNFPBBJ@sound?1weapons?1saber?1saberhitwall@ 300b08ac     cg_main.obj
 0002:000128d0       ??_C@_0CB@ELDLDPNJ@sound?1weapons?1saber?1saberhit?4wav@ 300b08d0     cg_main.obj
 0002:000128f4       ??_C@_0CC@CNLJCPHN@sound?1weapons?1saber?1saberhit1?4wa@ 300b08f4     cg_main.obj
 0002:00012918       ??_C@_0CC@KLCNFNND@sound?1weapons?1saber?1saberhit2?4wa@ 300b0918     cg_main.obj
 0002:0001293c       ??_C@_0CC@GAHBIOHG@sound?1weapons?1saber?1saberhit3?4wa@ 300b093c     cg_main.obj
 0002:00012960       ??_C@_0CE@CFCKGBNH@sound?1weapons?1saber?1saber_catch?4@ 300b0960     cg_main.obj
 0002:00012984       ??_C@_0CB@GOLMPDFB@sound?1weapons?1force?1teamheal?4wav@ 300b0984     cg_main.obj
 0002:000129a8       ??_C@_0CC@NGHLBFEO@sound?1weapons?1force?1teamforce?4wa@ 300b09a8     cg_main.obj
 0002:000129cc       ??_C@_0BN@KBLLAEBL@sound?1weapons?1force?1heal?4wav?$AA@ 300b09cc     cg_main.obj
 0002:000129ec       ??_C@_0BO@CMLBKDJG@sound?1weapons?1force?1speed?4wav?$AA@ 300b09ec     cg_main.obj
 0002:00012a0c       ??_C@_0BN@FIMAKGPM@sound?1weapons?1force?1rage?4wav?$AA@ 300b0a0c     cg_main.obj
 0002:00012a2c       ??_C@_0CC@HMAOBKHB@sound?1weapons?1force?1lightninghit@ 300b0a2c     cg_main.obj
 0002:00012a50       ??_C@_0CC@FHCDEJLC@sound?1weapons?1force?1lightninghit@ 300b0a50     cg_main.obj
 0002:00012a74       ??_C@_0CC@EODIHIPD@sound?1weapons?1force?1lightninghit@ 300b0a74     cg_main.obj
 0002:00012a98       ??_C@_0BO@CFEEFGGJ@sound?1weapons?1force?1drain?4wav?$AA@ 300b0a98     cg_main.obj
 0002:00012ab8       ??_C@_0CC@IDPNPIJB@sound?1weapons?1force?1jumpbuild?4wa@ 300b0ab8     cg_main.obj
 0002:00012adc       ??_C@_0CB@DHCOJIOI@sound?1weapons?1force?1distract?4wav@ 300b0adc     cg_main.obj
 0002:00012b00       ??_C@_0CF@GAOMGDBJ@sound?1weapons?1force?1distractstop@ 300b0b00     cg_main.obj
 0002:00012b28       ??_C@_0BN@KLMPLEJJ@sound?1weapons?1force?1pull?4wav?$AA@ 300b0b28     cg_main.obj
 0002:00012b48       ??_C@_0BN@KBMIBKKI@sound?1weapons?1force?1push?4wav?$AA@ 300b0b48     cg_main.obj
 0002:00012b68       ??_C@_0BI@HFADANIN@sound?1effects?1fireburst?$AA@ 300b0b68     cg_main.obj
 0002:00012b80       ??_C@_0CD@DFAKCMJE@sound?1weapons?1thermal?1bounce?$CFi?4w@ 300b0b80     cg_main.obj
 0002:00012ba4       ??_C@_0CC@PJOHFIIG@sound?1movers?1switches?1switch2?4wa@ 300b0ba4     cg_main.obj
 0002:00012bc8       ??_C@_0CC@DCLLILCD@sound?1movers?1switches?1switch3?4wa@ 300b0bc8     cg_main.obj
 0002:00012bec       ??_C@_0BK@BIGBMHEG@sound?1ambience?1spark5?4wav?$AA@ 300b0bec     cg_main.obj
 0002:00012c08       ??_C@_0BM@MAPGBELF@sound?1chars?1turret?1ping?4wav?$AA@ 300b0c08     cg_main.obj
 0002:00012c24       ??_C@_0BP@OJENPHJJ@sound?1chars?1turret?1startup?4wav?$AA@ 300b0c24     cg_main.obj
 0002:00012c44       ??_C@_0CA@DICAJEGI@sound?1chars?1turret?1shutdown?4wav?$AA@ 300b0c44     cg_main.obj
 0002:00012c64       ??_C@_0BM@ECOPMLLG@sound?1chars?1turret?1move?4wav?$AA@ 300b0c64     cg_main.obj
 0002:00012c80       ??_C@_0CC@ONCGEBCD@sound?1weapons?1force?1speedloop?4wa@ 300b0c80     cg_main.obj
 0002:00012ca4       ??_C@_0CD@PBDIABKC@sound?1chars?1protocol?1misc?140MOM0@ 300b0ca4     cg_main.obj
 0002:00012cc8       ??_C@_0CD@NKBFFCGB@sound?1chars?1protocol?1misc?140MOM0@ 300b0cc8     cg_main.obj
 0002:00012cec       ??_C@_0CD@JABLNCCD@sound?1chars?1protocol?1misc?140MOM0@ 300b0cec     cg_main.obj
 0002:00012d10       ??_C@_0CD@MDAOGDCA@sound?1chars?1protocol?1misc?140MOM0@ 300b0d10     cg_main.obj
 0002:00012d34       ??_C@_0CD@IMEPPFOH@sound?1chars?1protocol?1misc?140MOM0@ 300b0d34     cg_main.obj
 0002:00012d58       ??_C@_0CD@JFFEMEKG@sound?1chars?1protocol?1misc?140MOM0@ 300b0d58     cg_main.obj
 0002:00012d7c       ??_C@_0CD@LOHJJHGF@sound?1chars?1protocol?1misc?140MOM0@ 300b0d7c     cg_main.obj
 0002:00012da0       ??_C@_0CD@KHGCKGCE@sound?1chars?1protocol?1misc?140MOM0@ 300b0da0     cg_main.obj
 0002:00012dc4       ??_C@_0CD@HDOPALOI@sound?1chars?1protocol?1misc?140MOM0@ 300b0dc4     cg_main.obj
 0002:00012de8       ??_C@_0CD@KGKAMMBD@sound?1chars?1protocol?1misc?140MOM0@ 300b0de8     cg_main.obj
 0002:00012e0c       ??_C@_0CD@HGKABNGN@sound?1chars?1protocol?1misc?140MOM0@ 300b0e0c     cg_main.obj
 0002:00012e30       ??_C@_0CD@GPLLCMCM@sound?1chars?1protocol?1misc?140MOM0@ 300b0e30     cg_main.obj
 0002:00012e54       ??_C@_0CD@OICDDAOD@sound?1chars?1protocol?1misc?140MOM0@ 300b0e54     cg_main.obj
 0002:00012e78       ??_C@_0CA@IFIECLL@sound?1weapons?1force?1drained?4mp3?$AA@ 300b0e78     cg_main.obj
 0002:00012e98       ??_C@_0BE@CAAOHOKG@music?1goodsmall?4mp3?$AA@ 300b0e98     cg_main.obj
 0002:00012eac       ??_C@_0BD@PKCEDEMI@music?1badsmall?4mp3?$AA@ 300b0eac     cg_main.obj
 0002:00012ec0       ??_C@_0BJ@EFMFEOAN@sound?1weapons?1change?4wav?$AA@ 300b0ec0     cg_main.obj
 0002:00012edc       ??_C@_0BI@HJOEIPHG@sound?1player?1telein?4wav?$AA@ 300b0edc     cg_main.obj
 0002:00012ef4       ??_C@_0BJ@JHMBBENI@sound?1player?1teleout?4wav?$AA@ 300b0ef4     cg_main.obj
 0002:00012f10       ??_C@_0BJ@LOHBFELN@sound?1items?1respawn1?4wav?$AA@ 300b0f10     cg_main.obj
 0002:00012f2c       ??_C@_0BG@MOPKJEGA@sound?1player?1talk?4wav?$AA@ 300b0f2c     cg_main.obj
 0002:00012f44       ??_C@_0BH@BPJFFDHG@sound?1player?1land1?4wav?$AA@ 300b0f44     cg_main.obj
 0002:00012f5c       ??_C@_0BL@NBPAAOGK@sound?1player?1fallsplat?4wav?$AA@ 300b0f5c     cg_main.obj
 0002:00012f78       ??_C@_0CB@HLPMFIDJ@sound?1effects?1energy_crackle?4wav@ 300b0f78     cg_main.obj
 0002:00012f9c       ??_C@_0BH@JPPKHAKF@sound?1player?1roll1?4wav?$AA@ 300b0f9c     cg_main.obj
 0002:00012fb4       ??_C@_0BM@BFNDNDLL@sound?1weapons?1force?1noforce?$AA@ 300b0fb4     cg_main.obj
 0002:00012fd0       ??_C@_0BJ@CLKANPDE@sound?1player?1watr_in?4wav?$AA@ 300b0fd0     cg_main.obj
 0002:00012fec       ??_C@_0BK@PEBHADE@sound?1player?1watr_out?4wav?$AA@ 300b0fec     cg_main.obj
 0002:00013008       ??_C@_0BJ@ILNOCJIO@sound?1player?1watr_un?4wav?$AA@ 300b1008     cg_main.obj
 0002:00013024       ??_C@_0CB@JPBIOOOD@models?1map_objects?1mp?1sphere?4md3@ 300b1024     cg_main.obj
 0002:00013048       ??_C@_0BB@LJELJCEE@surfaceExplosion?$AA@ 300b1048     cg_main.obj
 0002:0001305c       ??_C@_0BB@HDBIPJEB@gfx?1effects?1burn?$AA@ 300b105c     cg_main.obj
 0002:00013070       ??_C@_0BM@DLLLNEPJ@gfx?1effects?1solidWhite_cull?$AA@ 300b1070     cg_main.obj
 0002:0001308c       ??_C@_0BK@PNDKAKFC@sound?1player?1holocron?4wav?$AA@ 300b108c     cg_main.obj
 0002:000130a8       ??_C@_0BO@IJNKLFAF@sound?1interface?1zoomstart?4wav?$AA@ 300b10a8     cg_main.obj
 0002:000130c8       ??_C@_0BN@CGCJIHAN@sound?1interface?1zoomloop?4wav?$AA@ 300b10c8     cg_main.obj
 0002:000130e8       ??_C@_0BM@LGCAPPLD@sound?1interface?1zoomend?4wav?$AA@ 300b10e8     cg_main.obj
 0002:00013104       ??_C@_0CI@DPHHBNJK@sound?1player?1footsteps?1stone_ste@ 300b1104     cg_main.obj
 0002:0001312c       ??_C@_0CH@JGCHGDKG@sound?1player?1footsteps?1stone_run@ 300b112c     cg_main.obj
 0002:00013154       ??_C@_0CI@GKNKFENB@sound?1player?1footsteps?1metal_ste@ 300b1154     cg_main.obj
 0002:0001317c       ??_C@_0CH@DOEIAHBB@sound?1player?1footsteps?1metal_run@ 300b117c     cg_main.obj
 0002:000131a4       ??_C@_0CH@GKBLNPHE@sound?1player?1footsteps?1pipe_step@ 300b11a4     cg_main.obj
 0002:000131cc       ??_C@_0CG@PPMDKCBB@sound?1player?1footsteps?1pipe_run?$CF@ 300b11cc     cg_main.obj
 0002:000131f4       ??_C@_0CH@IDDALCLE@sound?1player?1footsteps?1water_run@ 300b11f4     cg_main.obj
 0002:0001321c       ??_C@_0CI@DAPHNJAL@sound?1player?1footsteps?1water_wal@ 300b121c     cg_main.obj
 0002:00013244       ??_C@_0CK@POKBBDJH@sound?1player?1footsteps?1water_wad@ 300b1244     cg_main.obj
 0002:00013270       ??_C@_0CH@DMKPPPJH@sound?1player?1footsteps?1snow_step@ 300b1270     cg_main.obj
 0002:00013298       ??_C@_0CG@PICHGCCE@sound?1player?1footsteps?1snow_run?$CF@ 300b1298     cg_main.obj
 0002:000132c0       ??_C@_0CH@MJLFGA@sound?1player?1footsteps?1sand_walk@ 300b12c0     cg_main.obj
 0002:000132e8       ??_C@_0CG@IKDDAFL@sound?1player?1footsteps?1sand_run?$CF@ 300b12e8     cg_main.obj
 0002:00013310       ??_C@_0CI@CAGGOHIJ@sound?1player?1footsteps?1grass_ste@ 300b1310     cg_main.obj
 0002:00013338       ??_C@_0CH@FNFOBOHF@sound?1player?1footsteps?1grass_run@ 300b1338     cg_main.obj
 0002:00013360       ??_C@_0CH@NAPCBGJP@sound?1player?1footsteps?1dirt_step@ 300b1360     cg_main.obj
 0002:00013388       ??_C@_0CG@MGDMEMOF@sound?1player?1footsteps?1dirt_run?$CF@ 300b1388     cg_main.obj
 0002:000133b0       ??_C@_0CG@DJANFOAN@sound?1player?1footsteps?1mud_walk?$CF@ 300b13b0     cg_main.obj
 0002:000133d8       ??_C@_0CF@MPPLJPLI@sound?1player?1footsteps?1mud_run?$CFi@ 300b13d8     cg_main.obj
 0002:00013400       ??_C@_0CJ@MJFKMPMO@sound?1player?1footsteps?1gravel_wa@ 300b1400     cg_main.obj
 0002:0001342c       ??_C@_0CI@JHPJBICI@sound?1player?1footsteps?1gravel_ru@ 300b142c     cg_main.obj
 0002:00013454       ??_C@_0CG@GIABMMBJ@sound?1player?1footsteps?1rug_step?$CF@ 300b1454     cg_main.obj
 0002:0001347c       ??_C@_0CF@IIEDMFNC@sound?1player?1footsteps?1rug_run?$CFi@ 300b147c     cg_main.obj
 0002:000134a4       ??_C@_0CH@KEIEAAOE@sound?1player?1footsteps?1wood_walk@ 300b14a4     cg_main.obj
 0002:000134cc       ??_C@_0CG@JENCNJDN@sound?1player?1footsteps?1wood_run?$CF@ 300b14cc     cg_main.obj
 0002:000134f4       ??_C@_0BN@KKOEBMCN@sound?1chars?1seeker?1misc?1hiss?$AA@ 300b14f4     cg_main.obj
 0002:00013514       ??_C@_0BK@FFKIOHJN@sound?1items?1use_bacta?4wav?$AA@ 300b1514     cg_main.obj
 0002:00013530       ??_C@_0CD@PGDBKJHO@sound?1chars?1protocol?1misc?140MOM0@ 300b1530     cg_main.obj
 0002:00013554       ??_C@_0CD@KBKJGEMP@sound?1chars?1protocol?1misc?140MOM0@ 300b1554     cg_main.obj
 0002:00013578       ??_C@_0O@MGCCPCPC@materials?1mud?$AA@ 300b1578     cg_main.obj
 0002:00013588       ??_C@_0P@FPNIHDJM@materials?1sand?$AA@ 300b1588     cg_main.obj
 0002:00013598       ??_C@_0P@GHJGEIGP@materials?1snow?$AA@ 300b1598     cg_main.obj
 0002:000135a8       ??_C@_0BB@PNDPFHAF@materials?1gravel?$AA@ 300b15a8     cg_main.obj
 0002:000135bc       ??_C@_0BE@GPGKBELK@materials?1mud_large?$AA@ 300b15bc     cg_main.obj
 0002:000135d0       ??_C@_0BF@MKALJGAO@materials?1sand_large?$AA@ 300b15d0     cg_main.obj
 0002:000135e8       ??_C@_0BF@GIFOIHPM@materials?1dirt_large?$AA@ 300b15e8     cg_main.obj
 0002:00013600       ??_C@_0BF@NOEPOPAI@materials?1snow_large?$AA@ 300b1600     cg_main.obj
 0002:00013618       ??_C@_0BH@FFHHKIMO@materials?1gravel_large?$AA@ 300b1618     cg_main.obj
 0002:00013630       ??_C@_0BB@JJBGBOML@env?1water_impact?$AA@ 300b1630     cg_main.obj
 0002:00013644       ??_C@_0BA@LJAMMEG@env?1lava_splash?$AA@ 300b1644     cg_main.obj
 0002:00013654       ??_C@_0BA@FBGBOLED@env?1acid_splash?$AA@ 300b1654     cg_main.obj
 0002:00013664       ??_C@_0BH@HELDPHNE@gfx?1mp?1pduel_icon_lone?$AA@ 300b1664     cg_main.obj
 0002:0001367c       ??_C@_0BJ@CGMCGOPM@gfx?1mp?1pduel_icon_double?$AA@ 300b167c     cg_main.obj
 0002:00013698       ??_C@_0BB@EPCKOLB@gfx?1mp?1chat_icon?$AA@ 300b1698     cg_main.obj
 0002:000136ac       ??_C@_0BC@OGJIGJAP@gfx?1mp?1vchat_icon?$AA@ 300b16ac     cg_main.obj
 0002:000136c0       ??_C@_0BB@OIENEINL@gfx?12d?1defer?4tga?$AA@ 300b16c0     cg_main.obj
 0002:000136d4       ??_C@_0BK@IEPPFEFE@gfx?1menus?1radar?1radar?4png?$AA@ 300b16d4     cg_main.obj
 0002:000136f0       ??_C@_0BJ@NPICMJA@gfx?1menus?1radar?1goalitem?$AA@ 300b16f0     cg_main.obj
 0002:0001370c       ??_C@_0BI@FIOLLEHN@gfx?1menus?1radar?1arrow_w?$AA@ 300b170c     cg_main.obj
 0002:00013724       ??_C@_0BH@BPNHLMKG@gfx?1menus?1radar?1rocket?$AA@ 300b1724     cg_main.obj
 0002:0001373c       ??_C@_0CB@FGMDPPAE@gfx?1mp_automap?1mpauto_frame_left@ 300b173c     cg_main.obj
 0002:00013760       ??_C@_0CC@BNMEAIIP@gfx?1mp_automap?1mpauto_frame_righ@ 300b1760     cg_main.obj
 0002:00013784       ??_C@_0CA@KDPBNNGB@gfx?1mp_automap?1mpauto_frame_top?$AA@ 300b1784     cg_main.obj
 0002:000137a4       ??_C@_0CD@DBDCHJGE@gfx?1mp_automap?1mpauto_frame_bott@ 300b17a4     cg_main.obj
 0002:000137c8       ??_C@_0L@KHBCPNIG@gfx?12d?1lag?$AA@ 300b17c8     cg_main.obj
 0002:000137d4       ??_C@_0L@GLPNNMED@gfx?12d?1net?$AA@ 300b17d4     cg_main.obj
 0002:000137e0       ??_C@_0BC@DOELBOML@gfx?1misc?1blueLine?$AA@ 300b17e0     cg_main.obj
 0002:000137f4       ??_C@_0M@DOBEFLEE@turret?1shot?$AA@ 300b17f4     cg_main.obj
 0002:00013800       ??_C@_0BI@DFPFFJME@emplaced?1dead_smoke?4efx?$AA@ 300b1800     cg_main.obj
 0002:00013818       ??_C@_0BF@JBOEDKLA@emplaced?1explode?4efx?$AA@ 300b1818     cg_main.obj
 0002:00013830       ??_C@_0BD@CIEJDHGF@turret?1explode?4efx?$AA@ 300b1830     cg_main.obj
 0002:00013844       ??_C@_0BL@GALBHNII@sparks?1spark_explosion?4efx?$AA@ 300b1844     cg_main.obj
 0002:00013860       ??_C@_0BH@LGEKJMJF@tripMine?1explosion?4efx?$AA@ 300b1860     cg_main.obj
 0002:00013878       ??_C@_0BG@OPKCOLIH@detpack?1explosion?4efx?$AA@ 300b1878     cg_main.obj
 0002:00013890       ??_C@_0BH@IGPEPEKB@flechette?1alt_blow?4efx?$AA@ 300b1890     cg_main.obj
 0002:000138a8       ??_C@_0BL@ENBMGPII@stunBaton?1flesh_impact?4efx?$AA@ 300b18a8     cg_main.obj
 0002:000138c4       ??_C@_0BG@JJPEKAJ@demp2?1altDetonate?4efx?$AA@ 300b18c4     cg_main.obj
 0002:000138dc       ??_C@_0BH@HKDCPBHI@sparks?1spark_exp_nosnd?$AA@ 300b18dc     cg_main.obj
 0002:000138f4       ??_C@_0BD@BEOLDAGA@tripMine?1laser?4efx?$AA@ 300b18f4     cg_main.obj
 0002:00013908       ??_C@_0BO@JELNEKOO@effects?1emplaced?1muzzle_flash?$AA@ 300b1908     cg_main.obj
 0002:00013928       ??_C@_0BE@EJCDPDIJ@concussion?1alt_ring?$AA@ 300b1928     cg_main.obj
 0002:0001393c       ??_C@_0BA@CDHDMGGO@mp?1itemcone?4efx?$AA@ 300b193c     cg_main.obj
 0002:0001394c       ??_C@_0CA@HGFMJEIC@effects?1turret?1muzzle_flash?4efx?$AA@ 300b194c     cg_main.obj
 0002:0001396c       ??_C@_0BH@JDPGNKAL@sparks?1spark_nosnd?4efx?$AA@ 300b196c     cg_main.obj
 0002:00013984       ??_C@_0BE@JLBEFIFN@saber?1saber_cut?4efx?$AA@ 300b1984     cg_main.obj
 0002:00013998       ??_C@_0BG@NKEPHOMN@saber?1saber_block?4efx?$AA@ 300b1998     cg_main.obj
 0002:000139b0       ??_C@_0BK@POKMLLAA@saber?1blood_sparks_mp?4efx?$AA@ 300b19b0     cg_main.obj
 0002:000139cc       ??_C@_0BN@JCMGEEBK@saber?1blood_sparks_25_mp?4efx?$AA@ 300b19cc     cg_main.obj
 0002:000139ec       ??_C@_0BN@DKINBKCM@saber?1blood_sparks_50_mp?4efx?$AA@ 300b19ec     cg_main.obj
 0002:00013a0c       ??_C@_0BJ@LJIHBMG@saber?1saber_friction?4efx?$AA@ 300b1a0c     cg_main.obj
 0002:00013a28       ??_C@_0N@LLGCPGGE@mp?1spawn?4efx?$AA@ 300b1a28     cg_main.obj
 0002:00013a38       ??_C@_0BB@CKIDHIKN@mp?1jedispawn?4efx?$AA@ 300b1a38     cg_main.obj
 0002:00013a4c       ??_C@_0BE@EDNJGAOC@blaster?1deflect?4efx?$AA@ 300b1a4c     cg_main.obj
 0002:00013a60       ??_C@_0BF@BPNBJBAC@blaster?1smoke_bolton?$AA@ 300b1a60     cg_main.obj
 0002:00013a78       ??_C@_0BI@EKDCGGPA@force?1confusion_old?4efx?$AA@ 300b1a78     cg_main.obj
 0002:00013a90       ??_C@_0BM@PFBHLOPA@effects?1force?1lightning?4efx?$AA@ 300b1a90     cg_main.obj
 0002:00013aac       ??_C@_0CA@PJMOHHIO@effects?1force?1lightningwide?4efx?$AA@ 300b1aac     cg_main.obj
 0002:00013acc       ??_C@_0BH@CKBEHNDL@effects?1boba?1fthrw?4efx?$AA@ 300b1acc     cg_main.obj
 0002:00013ae4       ??_C@_0BF@DOMCBFFK@effects?1mp?1drain?4efx?$AA@ 300b1ae4     cg_main.obj
 0002:00013afc       ??_C@_0BJ@POMMBGAM@effects?1mp?1drainwide?4efx?$AA@ 300b1afc     cg_main.obj
 0002:00013b18       ??_C@_0BI@FFKPJFGI@effects?1mp?1drainhit?4efx?$AA@ 300b1b18     cg_main.obj
 0002:00013b30       ??_C@_0BG@KLAJLGNE@disruptor?1death_smoke?$AA@ 300b1b30     cg_main.obj
 0002:00013b48       ??_C@_0BD@PPPBDMEH@gfx?12d?1crosshair?$CFc?$AA@ 300b1b48     cg_main.obj
 0002:00013b5c       ??_C@_0BA@PJMLIFEA@gfx?12d?1backtile?$AA@ 300b1b5c     cg_main.obj
 0002:00013b6c       ??_C@_0BF@KCKLAPFP@powerups?1placeholder?$AA@ 300b1b6c     cg_main.obj
 0002:00013b84       ??_C@_0BA@PEFPEMDE@powerups?1rezout?$AA@ 300b1b84     cg_main.obj
 0002:00013b94       ??_C@_0BI@MGAOKANG@gfx?1misc?1personalshield?$AA@ 300b1b94     cg_main.obj
 0002:00013bac       ??_C@_0BG@LLDBPCCL@gfx?1misc?1forceprotect?$AA@ 300b1bac     cg_main.obj
 0002:00013bc4       ??_C@_0BF@NLDNMFFP@gfx?1misc?1sightbubble?$AA@ 300b1bc4     cg_main.obj
 0002:00013bdc       ??_C@_0BE@DDKEHNDP@powerups?1forceshell?$AA@ 300b1bdc     cg_main.obj
 0002:00013bf0       ??_C@_0BE@JLIPOJOD@powerups?1sightshell?$AA@ 300b1bf0     cg_main.obj
 0002:00013c04       ??_C@_0BP@JIAHAICB@models?1map_objects?1mp?1holo?4md3?$AA@ 300b1c04     cg_main.obj
 0002:00013c24       ??_C@_0BK@NHEDDPHF@models?1flag2?1flagpole?4md3?$AA@ 300b1c24     cg_main.obj
 0002:00013c40       ??_C@_0BL@NNONIMAN@models?1flag2?1flagflap3?4md3?$AA@ 300b1c40     cg_main.obj
 0002:00013c5c       ??_C@_0CI@PFOOJNMO@models?1mapobjects?1flagbase?1red_b@ 300b1c5c     cg_main.obj
 0002:00013c84       ??_C@_0CJ@MEDKOFPD@models?1mapobjects?1flagbase?1blue_@ 300b1c84     cg_main.obj
 0002:00013cb0       ??_C@_0CJ@PBONGGD@models?1mapobjects?1flagbase?1ntrl_@ 300b1cb0     cg_main.obj
 0002:00013cdc       ??_C@_0BB@NJDEKCOL@sprites?1team_red?$AA@ 300b1cdc     cg_main.obj
 0002:00013cf0       ??_C@_0BC@CPIHIBPP@sprites?1team_blue?$AA@ 300b1cf0     cg_main.obj
 0002:00013d04       ??_C@_0BE@MEJHIMJO@gfx?12d?1colorbar?4tga?$AA@ 300b1d04     cg_main.obj
 0002:00013d18       ??_C@_0CH@BGFFCLAG@ui?1assets?1statusbar?1selectedheal@ 300b1d18     cg_main.obj
 0002:00013d40       ??_C@_0BH@CBLAHDFN@powerups?1ysaliredshell?$AA@ 300b1d40     cg_main.obj
 0002:00013d58       ??_C@_0BI@PCIGPAA@powerups?1ysaliblueshell?$AA@ 300b1d58     cg_main.obj
 0002:00013d70       ??_C@_0BD@FDOCLGBJ@powerups?1boonshell?$AA@ 300b1d70     cg_main.obj
 0002:00013d84       ??_C@_0BL@JAOFPJCP@powerups?1endarkenmentshell?$AA@ 300b1d84     cg_main.obj
 0002:00013da0       ??_C@_0BM@CILICBLC@powerups?1enlightenmentshell?$AA@ 300b1da0     cg_main.obj
 0002:00013dbc       ??_C@_0BO@PBALHOFA@powerups?1invulnerabilityshell?$AA@ 300b1dbc     cg_main.obj
 0002:00013ddc       ??_C@_0BB@ENOKEJMK@gfx?12d?1binCircle?$AA@ 300b1ddc     cg_main.obj
 0002:00013df0       ??_C@_0P@LHEFCKJK@gfx?12d?1binMask?$AA@ 300b1df0     cg_main.obj
 0002:00013e00       ??_C@_0BE@IIMHDGMO@gfx?12d?1binSideArrow?$AA@ 300b1e00     cg_main.obj
 0002:00013e14       ??_C@_0BB@JEPLFKJJ@gfx?12d?1binTopTri?$AA@ 300b1e14     cg_main.obj
 0002:00013e28       ??_C@_0BH@MANIHANO@gfx?12d?1binocularWindow?$AA@ 300b1e28     cg_main.obj
 0002:00013e40       ??_C@_0BL@MMBFBAIB@gfx?12d?1binocularNumOverlay?$AA@ 300b1e40     cg_main.obj
 0002:00013e5c       ??_C@_0CC@GKPEHNOE@models?1chunks?1metal?1metal1_?$CFi?4md@ 300b1e5c     cg_main.obj
 0002:00013e80       ??_C@_0CC@FDHJEBCB@models?1chunks?1metal?1metal2_?$CFi?4md@ 300b1e80     cg_main.obj
 0002:00013ea4       ??_C@_0CA@LNLFMHFJ@models?1chunks?1rock?1rock1_?$CFi?4md3?$AA@ 300b1ea4     cg_main.obj
 0002:00013ec4       ??_C@_0CA@IEDIPLJM@models?1chunks?1rock?1rock2_?$CFi?4md3?$AA@ 300b1ec4     cg_main.obj
 0002:00013ee4       ??_C@_0CA@JDEDOPNP@models?1chunks?1rock?1rock3_?$CFi?4md3?$AA@ 300b1ee4     cg_main.obj
 0002:00013f04       ??_C@_0CC@GLENOMLP@models?1chunks?1crate?1crate1_?$CFi?4md@ 300b1f04     cg_main.obj
 0002:00013f28       ??_C@_0CC@FCMANAHK@models?1chunks?1crate?1crate2_?$CFi?4md@ 300b1f28     cg_main.obj
 0002:00013f4c       ??_C@_0CD@KGJEJJO@models?1chunks?1metal?1wmetal1_?$CFi?4m@ 300b1f4c     cg_main.obj
 0002:00013f70       ??_C@_0CD@JACKJPA@sound?1weapons?1explosions?1glasslc@ 300b1f70     cg_main.obj
 0002:00013f94       ??_C@_0BM@OAFICFND@sound?1effects?1grate_destroy?$AA@ 300b1f94     cg_main.obj
 0002:00013fb0       ??_C@_0BJ@DLLIGKEF@sound?1effects?1wall_smash?$AA@ 300b1fb0     cg_main.obj
 0002:00013fcc       ??_C@_0BL@MIMICCND@sound?1effects?1stone_bounce?$AA@ 300b1fcc     cg_main.obj
 0002:00013fe8       ??_C@_0BM@PCGCBPDN@sound?1effects?1stone_bounce2?$AA@ 300b1fe8     cg_main.obj
 0002:00014004       ??_C@_0BL@MBOLIHHD@sound?1effects?1metal_bounce?$AA@ 300b2004     cg_main.obj
 0002:00014020       ??_C@_0BM@CELNJPHA@sound?1effects?1metal_bounce2?$AA@ 300b2020     cg_main.obj
 0002:0001403c       ??_C@_0CF@BGPACEFC@sound?1weapons?1explosions?1glassbr@ 300b203c     cg_main.obj
 0002:00014064       ??_C@_0CE@NAAHHAPB@sound?1weapons?1explosions?1crateBu@ 300b2064     cg_main.obj
 0002:00014088       ??_C@_0CE@PLCKCDDC@sound?1weapons?1explosions?1crateBu@ 300b2088     cg_main.obj
 0002:000140ac       ??_C@_0BG@JIBKAJPC@gfx?1misc?1test_crackle?$AA@ 300b20ac     cg_main.obj
 0002:000140c4       ??_C@_0BC@KOPBJOAL@gfx?1misc?1electric?$AA@ 300b20c4     cg_main.obj
 0002:000140d8       ??_C@_0BL@KONNHIGJ@gfx?1misc?1fullbodyelectric2?$AA@ 300b20d8     cg_main.obj
 0002:000140f4       ??_C@_0L@KKACDDLD@footstep_r?$AA@ 300b20f4     cg_main.obj
 0002:00014100       ??_C@_0L@HOEDAMGM@footstep_l?$AA@ 300b2100     cg_main.obj
 0002:0001410c       ??_C@_0BB@OJCIKJGO@footstep_heavy_r?$AA@ 300b210c     cg_main.obj
 0002:00014120       ??_C@_0BB@DNGJJGLB@footstep_heavy_l?$AA@ 300b2120     cg_main.obj
 0002:00014134       ??_C@_0BD@MCDAOGIB@effects?1refraction?$AA@ 300b2134     cg_main.obj
 0002:00014148       ??_C@_0BK@IBFDCHFF@gfx?1effects?1cloakedShader?$AA@ 300b2148     cg_main.obj
 0002:00014164       ??_C@_0L@KHLAIOEE@markShadow?$AA@ 300b2164     cg_main.obj
 0002:00014170       ??_C@_04KNLNBPHI@wake?$AA@ 300b2170     cg_main.obj
 0002:00014178       ??_C@_0BG@HJJFHBCH@gfx?1misc?1borgeyeflare?$AA@ 300b2178     cg_main.obj
 0002:00014190       ??_C@_0BJ@DBMHLADB@gfx?1mp?1dmgshader_shields?$AA@ 300b2190     cg_main.obj
 0002:000141ac       ??_C@_0CC@BMBLEHAM@gfx?1mp?1dmgshader_shieldsandhealt@ 300b21ac     cg_main.obj
 0002:000141d0       ??_C@_03JLINDLFM@?$CK?$CFi?$AA@ 300b21d0     cg_main.obj
 0002:000141d4       ??_C@_04HAEDHBJD@?4glm?$AA@ 300b21d4     cg_main.obj
 0002:000141dc       ??_C@_06FPMCFOBA@?$CK?$CFd?9?$CFd?$AA@ 300b21dc     cg_main.obj
 0002:000141e4       ??_C@_0BP@JMKNBDMD@ui?1assets?1statusbar?1patrol?4tga?$AA@ 300b21e4     cg_main.obj
 0002:00014204       ??_C@_0CA@BMENIIHA@ui?1assets?1statusbar?1assault?4tga?$AA@ 300b2204     cg_main.obj
 0002:00014224       ??_C@_0BN@IFHLAFIM@ui?1assets?1statusbar?1camp?4tga?$AA@ 300b2224     cg_main.obj
 0002:00014244       ??_C@_0BP@NDBPBMNA@ui?1assets?1statusbar?1follow?4tga?$AA@ 300b2244     cg_main.obj
 0002:00014264       ??_C@_0BP@DFAFNPOM@ui?1assets?1statusbar?1defend?4tga?$AA@ 300b2264     cg_main.obj
 0002:00014284       ??_C@_0CE@MMLKAKOP@ui?1assets?1statusbar?1team_leader?4@ 300b2284     cg_main.obj
 0002:000142a8       ??_C@_0CB@LAIMNJFD@ui?1assets?1statusbar?1retrieve?4tga@ 300b22a8     cg_main.obj
 0002:000142cc       ??_C@_0BP@KGMEFMCF@ui?1assets?1statusbar?1escort?4tga?$AA@ 300b22cc     cg_main.obj
 0002:000142ec       ??_C@_0BD@CHEDBJDN@menu?1art?13_cursor2?$AA@ 300b22ec     cg_main.obj
 0002:00014300       ??_C@_0BJ@LEDAGAI@ui?1assets?1sizecursor?4tga?$AA@ 300b2300     cg_main.obj
 0002:0001431c       ??_C@_0BL@LPJJLJJG@ui?1assets?1selectcursor?4tga?$AA@ 300b231c     cg_main.obj
 0002:00014338       ??_C@_0CF@ENDMFFOH@ui?1assets?1statusbar?1flag_in_base@ 300b2338     cg_main.obj
 0002:00014360       ??_C@_0CF@LPJBOID@ui?1assets?1statusbar?1flag_capture@ 300b2360     cg_main.obj
 0002:00014388       ??_C@_0CF@BBPPIJMH@ui?1assets?1statusbar?1flag_missing@ 300b2388     cg_main.obj
 0002:000143b0       ??_C@_0BN@OJIAAIJF@models?1weaphits?1testboom?4md3?$AA@ 300b23b0     cg_main.obj
 0002:000143d0       ??_C@_0BA@GPIBLNDH@halfShieldShell?$AA@ 300b23d0     cg_main.obj
 0002:000143e0       ??_C@_0BC@LNMDPJLI@force?1force_touch?$AA@ 300b23e0     cg_main.obj
 0002:000143f4       ??_C@_05ONEOBAM@?$CFs_?$CFs?$AA@ 300b23f4     cg_main.obj
 0002:000143fc       ??_C@_02DPKJAMEF@?$CFd?$AA@ 300b23fc     cg_main.obj
 0002:00014400       ??_C@_0BH@OELCJKFF@gfx?1mp?1c_icon_infantry?$AA@ 300b2400     cg_main.obj
 0002:00014418       ??_C@_0BM@GFHJFCLE@gfx?1mp?1c_icon_heavy_weapons?$AA@ 300b2418     cg_main.obj
 0002:00014434       ??_C@_0BM@NBLAFLJO@gfx?1mp?1c_icon_demolitionist?$AA@ 300b2434     cg_main.obj
 0002:00014450       ??_C@_0BH@CEMGMFAB@gfx?1mp?1c_icon_vanguard?$AA@ 300b2450     cg_main.obj
 0002:00014468       ??_C@_0BG@HPEKJBCG@gfx?1mp?1c_icon_support?$AA@ 300b2468     cg_main.obj
 0002:00014480       ??_C@_0BL@JNENHOLE@gfx?1mp?1c_icon_jedi_general?$AA@ 300b2480     cg_main.obj
 0002:0001449c       ??_C@_07DNFNGBFM@?$CFs?5?5?5?5?5?$AA@ 300b249c     cg_main.obj
 0002:000144a4       ??_C@_0BP@KAAOENNK@CG_ConfigString?3?5bad?5index?3?5?$CFi?$AA@ 300b24a4     cg_main.obj
 0002:000144c4       ??_C@_0CK@ECPONHFG@?$FO1menu?5file?5not?5found?3?5?$CFs?0?5using@ 300b24c4     cg_main.obj
 0002:000144f0       ??_C@_0DD@JILOANNP@?$FO1menu?5file?5too?5large?3?5?$CFs?5is?5?$CFi?0@ 300b24f0     cg_main.obj
 0002:00014524       ??_C@_04EFPADHIC@font?$AA@ 300b2524     cg_main.obj
 0002:0001452c       ??_C@_09DOKKJGBA@smallFont?$AA@ 300b252c     cg_main.obj
 0002:00014538       ??_C@_0L@KDLFEFGB@small2Font?$AA@ 300b2538     cg_main.obj
 0002:00014544       ??_C@_07HPOBIOOE@bigfont?$AA@ 300b2544     cg_main.obj
 0002:0001454c       ??_C@_0M@KMLBJNNP@gradientbar?$AA@ 300b254c     cg_main.obj
 0002:00014558       ??_C@_0P@HOFNPEDB@menuEnterSound?$AA@ 300b2558     cg_main.obj
 0002:00014568       ??_C@_0O@CCIDDBMD@menuExitSound?$AA@ 300b2568     cg_main.obj
 0002:00014578       ??_C@_0P@IGAMHAPB@itemFocusSound?$AA@ 300b2578     cg_main.obj
 0002:00014588       ??_C@_0O@JDBLIAHI@menuBuzzSound?$AA@ 300b2588     cg_main.obj
 0002:00014598       ??_C@_06CHDIMBDP@cursor?$AA@ 300b2598     cg_main.obj
 0002:000145a0       ??_C@_09DPBPOIDH@fadeClamp?$AA@ 300b25a0     cg_main.obj
 0002:000145ac       ??_C@_09LGBLEGN@fadeCycle?$AA@ 300b25ac     cg_main.obj
 0002:000145b8       ??_C@_0L@JDDHILPC@fadeAmount?$AA@ 300b25b8     cg_main.obj
 0002:000145c4       ??_C@_07OPNIPHMJ@shadowX?$AA@ 300b25c4     cg_main.obj
 0002:000145cc       ??_C@_07PGMDMGII@shadowY?$AA@ 300b25cc     cg_main.obj
 0002:000145d4       ??_C@_0M@JPJLLJDB@shadowColor?$AA@ 300b25d4     cg_main.obj
 0002:000145e0       ??_C@_0BA@HHBGDHLB@ui?1testhud?4menu?$AA@ 300b25e0     cg_main.obj
 0002:000145f0       ??_C@_0P@JJKHBDCP@assetGlobalDef?$AA@ 300b25f0     cg_main.obj
 0002:00014600       ??_C@_07MCIOFCJF@menudef?$AA@ 300b2600     cg_main.obj
 0002:00014608       ??_C@_09BCJOCADI@Spectator?$AA@ 300b2608     cg_main.obj
 0002:00014614       ??_C@_06PKACINHD@Leader?$AA@ 300b2614     cg_main.obj
 0002:0001461c       ??_C@_03NOAKOCEN@?$CF4i?$AA@ 300b261c     cg_main.obj
 0002:00014620       ??_C@_0L@FJAFPCBC@connecting?$AA@ 300b2620     cg_main.obj
 0002:0001462c       ??_C@_06DAMJBNEB@Empire?$AA@ 300b262c     cg_main.obj
 0002:00014634       ??_C@_09CBAPOGED@Rebellion?$AA@ 300b2634     cg_main.obj
 0002:00014640       ??_C@_0EA@NOKNMOHD@?$FO1default?5menu?5file?5not?5found?3?5u@ 300b2640     cg_main.obj
 0002:00014680       ??_C@_08GJJFPOLP@loadmenu?$AA@ 300b2680     cg_main.obj
 0002:0001468c       ??_C@_0BL@LDKEDAHM@ui?1assets?1gradientbar2?4tga?$AA@ 300b268c     cg_main.obj
 0002:000146a8       ??_C@_0BB@OMABGHIG@menu?1art?1fx_base?$AA@ 300b26a8     cg_main.obj
 0002:000146bc       ??_C@_0BA@NNOEOMD@menu?1art?1fx_red?$AA@ 300b26bc     cg_main.obj
 0002:000146cc       ??_C@_0BA@BCAGEDMK@menu?1art?1fx_yel?$AA@ 300b26cc     cg_main.obj
 0002:000146dc       ??_C@_0BA@IJJPLEBB@menu?1art?1fx_grn?$AA@ 300b26dc     cg_main.obj
 0002:000146ec       ??_C@_0BB@ECKDFOKE@menu?1art?1fx_teal?$AA@ 300b26ec     cg_main.obj
 0002:00014700       ??_C@_0BB@BKOGMDOJ@menu?1art?1fx_blue?$AA@ 300b2700     cg_main.obj
 0002:00014714       ??_C@_0BB@LIJKJPJD@menu?1art?1fx_cyan?$AA@ 300b2714     cg_main.obj
 0002:00014728       ??_C@_0BC@GAPGDHHF@menu?1art?1fx_white?$AA@ 300b2728     cg_main.obj
 0002:0001473c       ??_C@_0BI@FDOMFDJL@gfx?1menus?1scrollbar?4tga?$AA@ 300b273c     cg_main.obj
 0002:00014754       ??_C@_0CE@COBFEBJB@gfx?1menus?1scrollbar_arrow_dwn_a?4@ 300b2754     cg_main.obj
 0002:00014778       ??_C@_0CD@CMMKEMFC@gfx?1menus?1scrollbar_arrow_up_a?4t@ 300b2778     cg_main.obj
 0002:0001479c       ??_C@_0CD@HGBCPEJO@gfx?1menus?1scrollbar_arrow_left?4t@ 300b279c     cg_main.obj
 0002:000147c0       ??_C@_0CE@EBDHDKAC@gfx?1menus?1scrollbar_arrow_right?4@ 300b27c0     cg_main.obj
 0002:000147e4       ??_C@_0BO@OGCKOCFI@gfx?1menus?1scrollbar_thumb?4tga?$AA@ 300b27e4     cg_main.obj
 0002:00014804       ??_C@_0BA@IIPDBPAH@menu?1new?1slider?$AA@ 300b2804     cg_main.obj
 0002:00014814       ??_C@_0BF@IMFGDGLA@menu?1new?1sliderthumb?$AA@ 300b2814     cg_main.obj
 0002:0001482c       ??_C@_0DK@MEMBGKNJ@You?5exceeded?5the?5cgame?5string?5po@ 300b282c     cg_main.obj
 0002:00014868       ??_C@_0GN@MCPHADGE@Too?5many?5misc_model_static?8s?5on?5@ 300b2868     cg_main.obj
 0002:000148d8       ??_C@_0CB@IEGPOIHD@misc_model_static?5with?5no?5model?4@ 300b28d8     cg_main.obj
 0002:000148fc       ??_C@_0CM@COEPIPFK@misc_model_static?5failed?5to?5load@ 300b28fc     cg_main.obj
 0002:00014928       ??_C@_0CE@KFIMGHLL@CG_AddSpawnVarToken?3?5MAX_SPAWN_V@ 300b2928     cg_main.obj
 0002:0001494c       ??_C@_0CN@LHOGJKHF@CG_ParseSpawnVars?3?5found?5?$CFs?5when@ 300b294c     cg_main.obj
 0002:0001497c       ??_C@_0CN@KDIJEMJC@CG_ParseSpawnVars?3?5EOF?5without?5c@ 300b297c     cg_main.obj
 0002:000149ac       ??_C@_0CO@LBIGDOPL@CG_ParseSpawnVars?3?5closing?5brace@ 300b29ac     cg_main.obj
 0002:000149dc       ??_C@_0CC@FFKCCAOL@CG_ParseSpawnVars?3?5MAX_SPAWN_VAR@ 300b29dc     cg_main.obj
 0002:00014a00       ??_C@_0L@BIFLFHPF@worldspawn?$AA@ 300b2a00     cg_main.obj
 0002:00014a0c       ??_C@_0BC@LMMEGHFB@misc_model_static?$AA@ 300b2a0c     cg_main.obj
 0002:00014a20       ??_C@_0BG@DHHABGNA@misc_skyportal_orient?$AA@ 300b2a20     cg_main.obj
 0002:00014a38       ??_C@_0P@IFKMPLOL@misc_skyportal?$AA@ 300b2a38     cg_main.obj
 0002:00014a48       ??_C@_0BC@CAFACOKO@misc_weather_zone?$AA@ 300b2a48     cg_main.obj
 0002:00014a5c       ??_C@_0BM@BLBJHDKM@no?5entities?5for?5cgame?5parse?$AA@ 300b2a5c     cg_main.obj
 0002:00014a78       ??_C@_05LDDNLFDC@ocr_a?$AA@ 300b2a78     cg_main.obj
 0002:00014a80       ??_C@_06LFGMJCKO@ergoec?$AA@ 300b2a80     cg_main.obj
 0002:00014a88       ??_C@_0BF@NCICKGDM@gfx?12d?1charsgrid_med?$AA@ 300b2a88     cg_main.obj
 0002:00014aa0       ??_C@_05PMAELIEO@white?$AA@ 300b2aa0     cg_main.obj
 0002:00014aa8       ??_C@_0BC@EMACFANC@gfx?1hud?1load_tick?$AA@ 300b2aa8     cg_main.obj
 0002:00014abc       ??_C@_0BG@FIEHOIIN@gfx?1hud?1load_tick_cap?$AA@ 300b2abc     cg_main.obj
 0002:00014ad4       ??_C@_0BF@EGEEPHON@gfx?1hud?1mp_levelload?$AA@ 300b2ad4     cg_main.obj
 0002:00014aec       ??_C@_05KOPPDPO@?$CFs_na?$AA@ 300b2aec     cg_main.obj
 0002:00014af4       ??_C@_0BA@BMAIBDM@com_buildscript?$AA@ 300b2af4     cg_main.obj
 0002:00014b04       ??_C@_0BK@DOBGMPNF@gfx?1hud?1w_icon_saberstaff?$AA@ 300b2b04     cg_main.obj
 0002:00014b20       ??_C@_0BO@FFKCLDKB@gfx?1hud?1w_icon_duallightsaber?$AA@ 300b2b20     cg_main.obj
 0002:00014b40       ??_C@_0BD@GDEFAJLE@gfx?1hud?1background?$AA@ 300b2b40     cg_main.obj
 0002:00014b54       ??_C@_0BF@KNDCBFPB@gfx?1hud?1background_f?$AA@ 300b2b54     cg_main.obj
 0002:00014b6c       ??_C@_0BF@CKKKAJDO@gfx?1hud?1background_i?$AA@ 300b2b6c     cg_main.obj
 0002:00014b84       ??_C@_0BG@BLLMADBO@gfx?1mp?1f_icon_ragerec?$AA@ 300b2b84     cg_main.obj
 0002:00014b9c       ??_C@_0BJ@KJBKAEPO@gfx?1damage?1bodyburnmark1?$AA@ 300b2b9c     cg_main.obj
 0002:00014bb8       ??_C@_0BJ@PPPMPMKG@gfx?1damage?1saberglowmark?$AA@ 300b2bb8     cg_main.obj
 0002:00014bd4       ??_C@_0BM@CCKANNO@gfx?1damage?1bodybigburnmark1?$AA@ 300b2bd4     cg_main.obj
 0002:00014bf0       ??_C@_0BM@EGCEFOFI@gfx?1effects?1saberDamageGlow?$AA@ 300b2bf0     cg_main.obj
 0002:00014c0c       ??_C@_09ELPBALBF@basejka?91?$AA@ 300b2c0c     cg_main.obj
 0002:00014c18       ??_C@_0CD@GOCPBDLD@Client?1Server?5game?5mismatch?3?5?$CFs?1@ 300b2c18     cg_main.obj
 0002:00014c3c       ??_C@_0CJ@BAJLPPAG@Unable?5to?5find?5map?5?$CFs?4?6Download?5@ 300b2c3c     cg_main.obj
 0002:00014c68       ??_C@_03DFHDCPPK@die?$AA@  300b2c68     cg_main.obj
 0002:00014c70       __real@407e000000000000    300b2c70     cg_main.obj
 0002:00014c78       __real@4084000000000000    300b2c78     cg_main.obj
 0002:00014c80       ??_C@_08MEIODECE@explode1?$AA@ 300b2c80     cg_marks.obj
 0002:00014c8c       ??_C@_0CG@NBPMFGF@CG_ImpactMark?5called?5with?5?$DM?$DN?50?5r@ 300b2c8c     cg_marks.obj
 0002:00014cb4       __real@3e6147ae            300b2cb4     cg_marks.obj
 0002:00014cb8       __real@3f7ff972            300b2cb8     cg_marks.obj
 0002:00014cc0       __real@4049000000000000    300b2cc0     cg_marks.obj
 0002:00014cc8       __real@c1000000            300b2cc8     cg_marks.obj
 0002:00014ccc       ??_C@_08BENANNLH@KILLEDBY?$AA@ 300b2ccc     cg_newDraw.obj
 0002:00014cd8       ??_C@_08PPGKHGBD@?$CFs?5?$CFs?5?$CFi?$AA@ 300b2cd8     cg_newDraw.obj
 0002:00014ce4       ??_C@_06LGLENBHF@TIEDAT?$AA@ 300b2ce4     cg_newDraw.obj
 0002:00014cec       ??_C@_09GAPPNLAA@RED_LEADS?$AA@ 300b2cec     cg_newDraw.obj
 0002:00014cf8       ??_C@_0M@HFOGODEL@?$CFs?0?5?$CFi?5?1?5?$CFi?$AA@ 300b2cf8     cg_newDraw.obj
 0002:00014d04       ??_C@_0L@DPNLFBAA@BLUE_LEADS?$AA@ 300b2d04     cg_newDraw.obj
 0002:00014d10       ??_C@_0M@PCGKGEOC@Cooperative?$AA@ 300b2d10     cg_newDraw.obj
 0002:00014d1c       ??_C@_08JIDHMNC@teamMenu?$AA@ 300b2d1c     cg_newDraw.obj
 0002:00014d28       ??_C@_07LFFEFFPB@getMenu?$AA@ 300b2d28     cg_newDraw.obj
 0002:00014d30       ??_C@_06KFNDIJM@rtalus?$AA@ 300b2d30     cg_players.obj
 0002:00014d38       ??_C@_06DNLMNPAP@ltalus?$AA@ 300b2d38     cg_players.obj
 0002:00014d40       ??_C@_08BPGGEBNG@lradiusX?$AA@ 300b2d40     cg_players.obj
 0002:00014d4c       ??_C@_07NMKDNJHN@rfemurX?$AA@ 300b2d4c     cg_players.obj
 0002:00014d54       ??_C@_07LFJCPKGE@lfemurX?$AA@ 300b2d54     cg_players.obj
 0002:00014d5c       ??_C@_07BFDNFMAL@?$CKdeath1?$AA@ 300b2d5c     cg_players.obj
 0002:00014d64       ??_C@_07DOBAAPMI@?$CKdeath2?$AA@ 300b2d64     cg_players.obj
 0002:00014d6c       ??_C@_07CHALDOIJ@?$CKdeath3?$AA@ 300b2d6c     cg_players.obj
 0002:00014d74       ??_C@_06MKODEFOM@?$CKjump1?$AA@ 300b2d74     cg_players.obj
 0002:00014d7c       ??_C@_07BHKODEJI@?$CKpain25?$AA@ 300b2d7c     cg_players.obj
 0002:00014d84       ??_C@_07GPJGNGFI@?$CKpain50?$AA@ 300b2d84     cg_players.obj
 0002:00014d8c       ??_C@_07BBGFPGHD@?$CKpain75?$AA@ 300b2d8c     cg_players.obj
 0002:00014d94       ??_C@_08DFPLOOLE@?$CKpain100?$AA@ 300b2d94     cg_players.obj
 0002:00014da0       ??_C@_09IAAMPKDA@?$CKfalling1?$AA@ 300b2da0     cg_players.obj
 0002:00014dac       ??_C@_07NDJGBLKA@?$CKchoke1?$AA@ 300b2dac     cg_players.obj
 0002:00014db4       ??_C@_07PILLEIGD@?$CKchoke2?$AA@ 300b2db4     cg_players.obj
 0002:00014dbc       ??_C@_07OBKAHJCC@?$CKchoke3?$AA@ 300b2dbc     cg_players.obj
 0002:00014dc4       ??_C@_05DJAKOMMI@?$CKgasp?$AA@ 300b2dc4     cg_players.obj
 0002:00014dcc       ??_C@_06IAEADDPB@?$CKland1?$AA@ 300b2dcc     cg_players.obj
 0002:00014dd4       ??_C@_06GIEEFNAP@?$CKtaunt?$AA@ 300b2dd4     cg_players.obj
 0002:00014ddc       ??_C@_08LNKGKNOM@?$CKpushed1?$AA@ 300b2ddc     cg_players.obj
 0002:00014de8       ??_C@_08JGILPOCP@?$CKpushed2?$AA@ 300b2de8     cg_players.obj
 0002:00014df4       ??_C@_08IPJAMPGO@?$CKpushed3?$AA@ 300b2df4     cg_players.obj
 0002:00014e00       ??_C@_07FLJGGAJD@?$CKanger1?$AA@ 300b2e00     cg_players.obj
 0002:00014e08       ??_C@_07HALLDDFA@?$CKanger2?$AA@ 300b2e08     cg_players.obj
 0002:00014e10       ??_C@_07GJKAACBB@?$CKanger3?$AA@ 300b2e10     cg_players.obj
 0002:00014e18       ??_C@_09GFNDMABG@?$CKvictory1?$AA@ 300b2e18     cg_players.obj
 0002:00014e24       ??_C@_09EOPOJDNF@?$CKvictory2?$AA@ 300b2e24     cg_players.obj
 0002:00014e30       ??_C@_09FHOFKCJE@?$CKvictory3?$AA@ 300b2e30     cg_players.obj
 0002:00014e3c       ??_C@_09ONPCLOKN@?$CKconfuse1?$AA@ 300b2e3c     cg_players.obj
 0002:00014e48       ??_C@_09MGNPONGO@?$CKconfuse2?$AA@ 300b2e48     cg_players.obj
 0002:00014e54       ??_C@_09NPMENMCP@?$CKconfuse3?$AA@ 300b2e54     cg_players.obj
 0002:00014e60       ??_C@_07KAMDJNDO@?$CKffwarn?$AA@ 300b2e60     cg_players.obj
 0002:00014e68       ??_C@_07DIBICHCG@?$CKffturn?$AA@ 300b2e68     cg_players.obj
 0002:00014e70       ??_C@_07PJALNKLB@?$CKchase1?$AA@ 300b2e70     cg_players.obj
 0002:00014e78       ??_C@_07NCCGIJHC@?$CKchase2?$AA@ 300b2e78     cg_players.obj
 0002:00014e80       ??_C@_07MLDNLIDD@?$CKchase3?$AA@ 300b2e80     cg_players.obj
 0002:00014e88       ??_C@_07FKNFBMCN@?$CKcover1?$AA@ 300b2e88     cg_players.obj
 0002:00014e90       ??_C@_07HBPIEPOO@?$CKcover2?$AA@ 300b2e90     cg_players.obj
 0002:00014e98       ??_C@_07GIODHOKP@?$CKcover3?$AA@ 300b2e98     cg_players.obj
 0002:00014ea0       ??_C@_07CHKCOIGI@?$CKcover4?$AA@ 300b2ea0     cg_players.obj
 0002:00014ea8       ??_C@_07DOLJNJCJ@?$CKcover5?$AA@ 300b2ea8     cg_players.obj
 0002:00014eb0       ??_C@_0L@MIGOFNAN@?$CKdetected1?$AA@ 300b2eb0     cg_players.obj
 0002:00014ebc       ??_C@_0L@ODEDAOMO@?$CKdetected2?$AA@ 300b2ebc     cg_players.obj
 0002:00014ec8       ??_C@_0L@PKFIDPIP@?$CKdetected3?$AA@ 300b2ec8     cg_players.obj
 0002:00014ed4       ??_C@_0L@LFBJKJEI@?$CKdetected4?$AA@ 300b2ed4     cg_players.obj
 0002:00014ee0       ??_C@_0L@KMACJIAJ@?$CKdetected5?$AA@ 300b2ee0     cg_players.obj
 0002:00014eec       ??_C@_06IBCFKBKC@?$CKlost1?$AA@ 300b2eec     cg_players.obj
 0002:00014ef4       ??_C@_0L@CIKNJEAN@?$CKoutflank1?$AA@ 300b2ef4     cg_players.obj
 0002:00014f00       ??_C@_0L@DIAMHMO@?$CKoutflank2?$AA@ 300b2f00     cg_players.obj
 0002:00014f0c       ??_C@_0L@LCDCALLH@?$CKescaping1?$AA@ 300b2f0c     cg_players.obj
 0002:00014f18       ??_C@_0L@JJBPFIHE@?$CKescaping2?$AA@ 300b2f18     cg_players.obj
 0002:00014f24       ??_C@_0L@IAAEGJDF@?$CKescaping3?$AA@ 300b2f24     cg_players.obj
 0002:00014f30       ??_C@_08IIMNGKFF@?$CKgiveup1?$AA@ 300b2f30     cg_players.obj
 0002:00014f3c       ??_C@_08KDOADJJG@?$CKgiveup2?$AA@ 300b2f3c     cg_players.obj
 0002:00014f48       ??_C@_08LKPLAINH@?$CKgiveup3?$AA@ 300b2f48     cg_players.obj
 0002:00014f54       ??_C@_08PFLKJOBA@?$CKgiveup4?$AA@ 300b2f54     cg_players.obj
 0002:00014f60       ??_C@_06IMJAKNMI@?$CKlook1?$AA@ 300b2f60     cg_players.obj
 0002:00014f68       ??_C@_06KHLNPOAL@?$CKlook2?$AA@ 300b2f68     cg_players.obj
 0002:00014f70       ??_C@_07EADFHJKD@?$CKsight1?$AA@ 300b2f70     cg_players.obj
 0002:00014f78       ??_C@_07GLBICKGA@?$CKsight2?$AA@ 300b2f78     cg_players.obj
 0002:00014f80       ??_C@_07HCADBLCB@?$CKsight3?$AA@ 300b2f80     cg_players.obj
 0002:00014f88       ??_C@_07LFABKCPA@?$CKsound1?$AA@ 300b2f88     cg_players.obj
 0002:00014f90       ??_C@_07JOCMPBDD@?$CKsound2?$AA@ 300b2f90     cg_players.obj
 0002:00014f98       ??_C@_07IHDHMAHC@?$CKsound3?$AA@ 300b2f98     cg_players.obj
 0002:00014fa0       ??_C@_0N@MFLOBGKG@?$CKsuspicious1?$AA@ 300b2fa0     cg_players.obj
 0002:00014fb0       ??_C@_0N@OOJDEFGF@?$CKsuspicious2?$AA@ 300b2fb0     cg_players.obj
 0002:00014fc0       ??_C@_0N@PHIIHECE@?$CKsuspicious3?$AA@ 300b2fc0     cg_players.obj
 0002:00014fd0       ??_C@_0N@LIMJOCOD@?$CKsuspicious4?$AA@ 300b2fd0     cg_players.obj
 0002:00014fe0       ??_C@_0N@KBNCNDKC@?$CKsuspicious5?$AA@ 300b2fe0     cg_players.obj
 0002:00014ff0       ??_C@_08GMBEBHMJ@?$CKcombat1?$AA@ 300b2ff0     cg_players.obj
 0002:00014ffc       ??_C@_08EHDJEEAK@?$CKcombat2?$AA@ 300b2ffc     cg_players.obj
 0002:00015008       ??_C@_08FOCCHFEL@?$CKcombat3?$AA@ 300b3008     cg_players.obj
 0002:00015014       ??_C@_0M@PMHCAAPI@?$CKjdetected1?$AA@ 300b3014     cg_players.obj
 0002:00015020       ??_C@_0M@NHFPFDDL@?$CKjdetected2?$AA@ 300b3020     cg_players.obj
 0002:0001502c       ??_C@_0M@MOEEGCHK@?$CKjdetected3?$AA@ 300b302c     cg_players.obj
 0002:00015038       ??_C@_07FGIKFOHO@?$CKtaunt1?$AA@ 300b3038     cg_players.obj
 0002:00015040       ??_C@_07HNKHANLN@?$CKtaunt2?$AA@ 300b3040     cg_players.obj
 0002:00015048       ??_C@_07GELMDMPM@?$CKtaunt3?$AA@ 300b3048     cg_players.obj
 0002:00015050       ??_C@_08EEGCNLKG@?$CKjchase1?$AA@ 300b3050     cg_players.obj
 0002:0001505c       ??_C@_08GPEPIIGF@?$CKjchase2?$AA@ 300b305c     cg_players.obj
 0002:00015068       ??_C@_08HGFELJCE@?$CKjchase3?$AA@ 300b3068     cg_players.obj
 0002:00015074       ??_C@_07FFNGKKFC@?$CKjlost1?$AA@ 300b3074     cg_players.obj
 0002:0001507c       ??_C@_07HOPLPJJB@?$CKjlost2?$AA@ 300b307c     cg_players.obj
 0002:00015084       ??_C@_07GHOAMINA@?$CKjlost3?$AA@ 300b3084     cg_players.obj
 0002:0001508c       ??_C@_09KHDKKLPH@?$CKdeflect1?$AA@ 300b308c     cg_players.obj
 0002:00015098       ??_C@_09IMBHPIDE@?$CKdeflect2?$AA@ 300b3098     cg_players.obj
 0002:000150a4       ??_C@_09JFAMMJHF@?$CKdeflect3?$AA@ 300b30a4     cg_players.obj
 0002:000150b0       ??_C@_07MOBBFEIG@?$CKgloat1?$AA@ 300b30b0     cg_players.obj
 0002:000150b8       ??_C@_07OFDMAHEF@?$CKgloat2?$AA@ 300b30b8     cg_players.obj
 0002:000150c0       ??_C@_07PMCHDGAE@?$CKgloat3?$AA@ 300b30c0     cg_players.obj
 0002:000150c8       ??_C@_09HCJINJLP@?$CKpushfail?$AA@ 300b30c8     cg_players.obj
 0002:000150d4       ??_C@_09PNKHLONK@AEV_SOUND?$AA@ 300b30d4     cg_players.obj
 0002:000150e0       ??_C@_0N@GPBLCBDN@AEV_FOOTSTEP?$AA@ 300b30e0     cg_players.obj
 0002:000150f0       ??_C@_0L@GOCDIAMO@AEV_EFFECT?$AA@ 300b30f0     cg_players.obj
 0002:000150fc       ??_C@_08NPCGKNPD@AEV_FIRE?$AA@ 300b30fc     cg_players.obj
 0002:00015108       ??_C@_08IKJEGLOC@AEV_MOVE?$AA@ 300b3108     cg_players.obj
 0002:00015114       ??_C@_0O@PKDCPJFP@AEV_SOUNDCHAN?$AA@ 300b3114     cg_players.obj
 0002:00015124       ??_C@_0BA@CIODMBIG@AEV_SABER_SWING?$AA@ 300b3124     cg_players.obj
 0002:00015134       ??_C@_0P@JEBGPELC@AEV_SABER_SPIN?$AA@ 300b3134     cg_players.obj
 0002:00015144       ??_C@_0M@EOJDNIAK@AEV_AMBIENT?$AA@ 300b3144     cg_players.obj
 0002:00015150       ??_C@_0L@CECCMHHD@FOOTSTEP_R?$AA@ 300b3150     cg_players.obj
 0002:0001515c       ??_C@_0L@PAGDPIKM@FOOTSTEP_L?$AA@ 300b315c     cg_players.obj
 0002:00015168       ??_C@_0BB@DCILEAMB@FOOTSTEP_HEAVY_R?$AA@ 300b3168     cg_players.obj
 0002:0001517c       ??_C@_0BB@OGMKHPBO@FOOTSTEP_HEAVY_L?$AA@ 300b317c     cg_players.obj
 0002:00015190       ??_C@_0FB@MCGFNKCO@ParseAnimationEvtBlock?3?5number?5e@ 300b3190     cg_players.obj
 0002:000151e4       ??_C@_0BB@EAIMOIAK@CHAN_VOICE_ATTEN?$AA@ 300b31e4     cg_players.obj
 0002:000151f8       ??_C@_0BC@LBLHAJCE@CHAN_VOICE_GLOBAL?$AA@ 300b31f8     cg_players.obj
 0002:0001520c       ??_C@_0P@PGMEJIPP@CHAN_ANNOUNCER?$AA@ 300b320c     cg_players.obj
 0002:0001521c       ??_C@_09PNMHHMAD@CHAN_BODY?$AA@ 300b321c     cg_players.obj
 0002:00015228       ??_C@_0M@EGDHGLJA@CHAN_WEAPON?$AA@ 300b3228     cg_players.obj
 0002:00015234       ??_C@_0L@GPGGJDHA@CHAN_VOICE?$AA@ 300b3234     cg_players.obj
 0002:00015240       ??_C@_0DC@LINDEPHM@?$FO3WARNING?3?5Unknown?5token?5?$CFs?5in?5a@ 300b3240     cg_players.obj
 0002:00015274       ??_C@_0DO@HMMANOI@?$FO3WARNING?3?5?$CFs?5animevents?4cfg?3?5an@ 300b3274     cg_players.obj
 0002:000152b4       ??_C@_0BN@MFOGPCAH@sound?1weapons?1saber?1saberhup?$AA@ 300b32b4     cg_players.obj
 0002:000152d4       ??_C@_0BO@FGMGPLCG@sound?1weapons?1saber?1saberspin?$AA@ 300b32d4     cg_players.obj
 0002:000152f4       ??_C@_0BB@DEPPJPMH@?$CFsanimevents?4cfg?$AA@ 300b32f4     cg_players.obj
 0002:00015308       ??_C@_0BC@NFDFKMPA@File?5?$CFs?5too?5long?6?$AA@ 300b3308     cg_players.obj
 0002:0001531c       ??_C@_07FHOHOHLG@include?$AA@ 300b331c     cg_players.obj
 0002:00015324       ??_C@_0BD@MMOHBCGG@models?1players?1?$CFs?1?$AA@ 300b3324     cg_players.obj
 0002:00015338       ??_C@_0M@LPEBDMOL@UPPEREVENTS?$AA@ 300b3338     cg_players.obj
 0002:00015344       ??_C@_0M@PBCCMAPC@LOWEREVENTS?$AA@ 300b3344     cg_players.obj
 0002:00015350       ??_C@_0CA@ILAKKBMK@models?1players?1?$CFs?1model_?$CFs?4surf?$AA@ 300b3350     cg_players.obj
 0002:00015370       ??_C@_07OKEAFEJG@surfOff?$AA@ 300b3370     cg_players.obj
 0002:00015378       ??_C@_01IHBHIGKO@?0?$AA@   300b3378     cg_players.obj
 0002:0001537c       ??_C@_06PJBLOBOB@surfOn?$AA@ 300b337c     cg_players.obj
 0002:00015388       ??_C@_0HG@JDBGMCOG@WARNING?3?5Attempted?5to?5load?5an?5un@ 300b3388     cg_players.obj
 0002:00015400       ??_C@_0BG@BBLNABEM@models?1players?1?$CFs?1?$HM?$CFs?$AA@ 300b3400     cg_players.obj
 0002:00015418       ??_C@_0CF@FIHHFCC@models?1players?1?$CFs?1model_default?4@ 300b3418     cg_players.obj
 0002:00015440       ??_C@_0P@BNFHKDFH@?1animation?4cfg?$AA@ 300b3440     cg_players.obj
 0002:00015450       ??_C@_0CH@JMNIMDPG@models?1players?1_humanoid?1animati@ 300b3450     cg_players.obj
 0002:00015478       ??_C@_0DA@JJDBLPFJ@Model?5does?5not?5use?5supported?5ani@ 300b3478     cg_players.obj
 0002:000154a8       ??_C@_0EG@ONAEEHHL@Failed?5to?5load?5animation?5file?5mo@ 300b34a8     cg_players.obj
 0002:000154f0       ??_C@_0BK@HAPHLECL@models?1players?1_humanoid?1?$AA@ 300b34f0     cg_players.obj
 0002:0001550c       ??_C@_07CKKFCGNI@?$CKl_hand?$AA@ 300b350c     cg_players.obj
 0002:00015514       ??_C@_07PNIOEPOE@?$CKchestg?$AA@ 300b3514     cg_players.obj
 0002:0001551c       ??_C@_0BC@BGMHBOJP@?$CKl_hand_cap_l_arm?$AA@ 300b351c     cg_players.obj
 0002:00015530       ??_C@_09LHLEBJNE@?$CKhead_top?$AA@ 300b3530     cg_players.obj
 0002:0001553c       ??_C@_08MEOLNMOI@ceyebrow?$AA@ 300b353c     cg_players.obj
 0002:00015548       ??_C@_06EMGELNAF@Motion?$AA@ 300b3548     cg_players.obj
 0002:00015550       ??_C@_0P@CCBJNGIA@?$CKholster_saber?$AA@ 300b3550     cg_players.obj
 0002:00015560       ??_C@_0BA@OKMOIH@?$CKholster_saber2?$AA@ 300b3560     cg_players.obj
 0002:00015570       ??_C@_0P@LEEEAIJA@?$CKholster_staff?$AA@ 300b3570     cg_players.obj
 0002:00015580       ??_C@_0BB@JKLPMACJ@?$CKholster_blaster?$AA@ 300b3580     cg_players.obj
 0002:00015594       ??_C@_0BC@KPFIHDNN@?$CKholster_blaster2?$AA@ 300b3594     cg_players.obj
 0002:000155a8       ??_C@_0P@EMPKKNO@?$CKholster_golan?$AA@ 300b35a8     cg_players.obj
 0002:000155b8       ??_C@_0BC@BJPMHNLJ@?$CKholster_launcher?$AA@ 300b35b8     cg_players.obj
 0002:000155cc       ??_C@_08GPPOHBLB@rfemurYZ?$AA@ 300b35cc     cg_players.obj
 0002:000155d8       ??_C@_08LPMOIFC@lfemurYZ?$AA@ 300b35d8     cg_players.obj
 0002:000155e4       ??_C@_09KELKOKG@boba_fett?$AA@ 300b35e4     cg_players.obj
 0002:000155f0       ??_C@_0L@FEAFNKGA@torso_rjet?$AA@ 300b35f0     cg_players.obj
 0002:000155fc       ??_C@_0L@JIFGEFC@torso_cjet?$AA@ 300b35fc     cg_players.obj
 0002:00015608       ??_C@_0L@ILNFPDID@torso_ljet?$AA@ 300b3608     cg_players.obj
 0002:00015614       ??_C@_0BK@DLHLILP@models?1players?1?$CFs?1icon_?$CFs?$AA@ 300b3614     cg_players.obj
 0002:00015630       ??_C@_05KDHLENLH@icon_?$AA@ 300b3630     cg_players.obj
 0002:00015638       ??_C@_0BF@PKIKNPLA@models?1players?1?$CFs?1?$CFs?$AA@ 300b3638     cg_players.obj
 0002:00015650       ??_C@_0BN@CHNFAMLI@models?1players?1?$CFs?1sounds?4cfg?$AA@ 300b3650     cg_players.obj
 0002:00015670       ??_C@_0CF@NEPCHIHA@models?1players?1?$CFs?1sounds_default@ 300b3670     cg_players.obj
 0002:00015698       ??_C@_0CA@JPONKMJK@models?1players?1?$CFs?1sounds_?$CFs?4cfg?$AA@ 300b3698     cg_players.obj
 0002:000156b8       ??_C@_0BH@FNMNDJNM@sound?1chars?1?$CFs?1misc?1?$CFs?$AA@ 300b36b8     cg_players.obj
 0002:000156d0       ??_C@_0BN@JCOIBIKF@chars?1mp_generic_female?1misc?$AA@ 300b36d0     cg_players.obj
 0002:000156f0       ??_C@_0M@NGJBOEHI@sound?1?$CFs?1?$CFs?$AA@ 300b36f0     cg_players.obj
 0002:000156fc       ??_C@_0BL@JMBOPOOA@chars?1mp_generic_male?1misc?$AA@ 300b36fc     cg_players.obj
 0002:00015718       ??_C@_01KMDKNFGN@?1?$AA@   300b3718     cg_players.obj
 0002:0001571c       ??_C@_0CG@NFMPGJHJ@DEFAULT_MODEL?5?$CI?$CFs?$CJ?5failed?5to?5reg@ 300b371c     cg_players.obj
 0002:00015744       ??_C@_0DA@IABNNPOG@DEFAULT_MODEL?5?1?5skin?5?$CI?$CFs?1?$CFs?$CJ?5fai@ 300b3744     cg_players.obj
 0002:00015774       ??_C@_04POCOPAPC@face?$AA@ 300b3774     cg_players.obj
 0002:0001577c       ??_C@_08BPBKIHMF@tag_flag?$AA@ 300b377c     cg_players.obj
 0002:00015788       ??_C@_02IMHCFECG@c1?$AA@   300b3788     cg_players.obj
 0002:0001578c       ??_C@_02KHFPAHOF@c2?$AA@   300b378c     cg_players.obj
 0002:00015790       ??_C@_05ODMCMJAJ@skill?$AA@ 300b3790     cg_players.obj
 0002:00015798       ??_C@_02IKKIEBB@hc?$AA@    300b3798     cg_players.obj
 0002:0001579c       ??_C@_01NOFIACDB@w?$AA@    300b379c     cg_players.obj
 0002:000157a0       ??_C@_01HHGOMJKL@l?$AA@    300b37a0     cg_players.obj
 0002:000157a4       ??_C@_01PFHFFBPC@t?$AA@    300b37a4     cg_players.obj
 0002:000157a8       ??_C@_07EHHPJLF@ui_team?$AA@ 300b37a8     cg_players.obj
 0002:000157b0       ??_C@_03LGCKGFOD@tc1?$AA@  300b37b0     cg_players.obj
 0002:000157b4       ??_C@_03JNAHDGCA@tc2?$AA@  300b37b4     cg_players.obj
 0002:000157b8       ??_C@_03DHNLPOCK@ss1?$AA@  300b37b8     cg_players.obj
 0002:000157bc       ??_C@_0BL@CIMOGGPG@?3255?00?0255?3500?30?00?0255?3500?$AA@ 300b37bc     cg_players.obj
 0002:000157d8       ??_C@_03BMPGKNOJ@ss2?$AA@  300b37d8     cg_players.obj
 0002:000157dc       ??_C@_0BL@MDKOGEH@?30?0255?0255?3500?30?00?0255?3500?$AA@ 300b37dc     cg_players.obj
 0002:000157f8       ??_C@_02BIBFFKJD@tt?$AA@   300b37f8     cg_players.obj
 0002:000157fc       ??_C@_02JKAOMCMK@tl?$AA@   300b37fc     cg_players.obj
 0002:00015800       ??_C@_03KDLMPAJP@sdt?$AA@  300b3800     cg_players.obj
 0002:00015804       ??_C@_02BNFKEMBG@st?$AA@   300b3804     cg_players.obj
 0002:00015808       ??_C@_03BJLJLLGM@st2?$AA@  300b3808     cg_players.obj
 0002:0001580c       ??_C@_02EDDPJOD@dt?$AA@    300b380c     cg_players.obj
 0002:00015810       ??_C@_0M@HEAHHNIP@?$CKr_leg_foot?$AA@ 300b3810     cg_players.obj
 0002:0001581c       ??_C@_0M@IIIHJCEC@?$CKl_leg_foot?$AA@ 300b381c     cg_players.obj
 0002:00015828       ??_C@_0CF@NMGCPJNB@sound?1weapons?1saber?1saberspinoff@ 300b3828     cg_players.obj
 0002:00015850       ??_C@_0CC@JLAJJOPN@sound?1weapons?1saber?1saberspin?4wa@ 300b3850     cg_players.obj
 0002:00015874       ??_C@_0CD@BBGKPJAN@sound?1weapons?1saber?1saberspin1?4w@ 300b3874     cg_players.obj
 0002:00015898       ??_C@_0CD@JHPOILKD@sound?1weapons?1saber?1saberspin2?4w@ 300b3898     cg_players.obj
 0002:000158bc       ??_C@_0CD@FMKCFIAG@sound?1weapons?1saber?1saberspin3?4w@ 300b38bc     cg_players.obj
 0002:000158e0       ??_C@_0CE@GDIPEJOP@sound?1weapons?1saber?1saberspin?$CFd?4@ 300b38e0     cg_players.obj
 0002:00015904       ??_C@_06MEGOBODG@?$CKblade?$AA@ 300b3904     cg_players.obj
 0002:00015910       ??_C@_0FA@CELEIPLF@ERROR?3?5CG_PlayerAnimEvents?$CI?$CJ?5tri@ 300b3910     cg_players.obj
 0002:00015960       ??_C@_0DN@MAELLKKL@ERROR?3?5No?5eventType?5for?5animeven@ 300b3960     cg_players.obj
 0002:000159a0       ??_C@_0BJ@OHDPKGG@Bad?5animation?5number?3?5?$CFi?$AA@ 300b39a0     cg_players.obj
 0002:000159bc       ??_C@_0BN@MKPFOCIE@?$CFd?3?5?$CFd?5TORSO?5Anim?3?5?$CFi?0?5?8?$CFs?8?6?$AA@ 300b39bc     cg_players.obj
 0002:000159dc       ??_C@_0BM@FOJNPCCA@?$CFd?3?5?$CFd?5LEGS?5Anim?3?5?$CFi?0?5?8?$CFs?8?6?$AA@ 300b39dc     cg_players.obj
 0002:000159f8       ??_C@_08HLGENIDF@rradiusX?$AA@ 300b39f8     cg_players.obj
 0002:00015a04       ??_C@_09KELMCPPM@rhumerusX?$AA@ 300b3a04     cg_players.obj
 0002:00015a10       ??_C@_08IFLEIKA@rhumerus?$AA@ 300b3a10     cg_players.obj
 0002:00015a1c       ??_C@_04PFJNHAEB@reye?$AA@ 300b3a1c     cg_players.obj
 0002:00015a24       ??_C@_04CKENFJKC@leye?$AA@ 300b3a24     cg_players.obj
 0002:00015a2c       ??_C@_0BC@GCOANANI@effects?1refract_2?$AA@ 300b3a2c     cg_players.obj
 0002:00015a40       ??_C@_06CKEMEABK@?$CFs?1?$HM?$CFs?$AA@ 300b3a40     cg_players.obj
 0002:00015a48       ??_C@_0BB@HCAEDMI@?$CFs?1model_?$CFs?4skin?$AA@ 300b3a48     cg_players.obj
 0002:00015a5c       ??_C@_0BJ@OHOJGDLI@sound?1weapons?1noammo?4wav?$AA@ 300b3a5c     cg_players.obj
 0002:00015a78       ??_C@_0L@JEAMIDKG@?$CKdroidunit?$AA@ 300b3a78     cg_players.obj
 0002:00015a84       ??_C@_0L@CJEIKOKF@?$CKexhaust?$CFi?$AA@ 300b3a84     cg_players.obj
 0002:00015a90       ??_C@_09DFLEJFMN@?$CKmuzzle?$CFi?$AA@ 300b3a90     cg_players.obj
 0002:00015a9c       ??_C@_08FNEKKBCI@?$CKflash?$CFi?$AA@ 300b3a9c     cg_players.obj
 0002:00015aa8       ??_C@_0O@BKEPGGED@?$CKr_wingdamage?$AA@ 300b3aa8     cg_players.obj
 0002:00015ab8       ??_C@_0O@FEKOMMCJ@?$CKl_wingdamage?$AA@ 300b3ab8     cg_players.obj
 0002:00015ac8       ??_C@_0M@ODMGMNB@?$CKnosedamage?$AA@ 300b3ac8     cg_players.obj
 0002:00015ad4       ??_C@_09ILKHDDNA@?$CKexhaust1?$AA@ 300b3ad4     cg_players.obj
 0002:00015ae0       ??_C@_0CF@FECOKLKD@Bad?5modelPath?5passed?5to?5FindGend@ 300b3ae0     cg_players.obj
 0002:00015b08       ??_C@_0O@PBKKAPLB@?$CFs?1sounds?4cfg?$AA@ 300b3b08     cg_players.obj
 0002:00015b18       ??_C@_0DC@CEKFOBIF@FindGender?5Error?3?5Couldnt?5find?5s@ 300b3b18     cg_players.obj
 0002:00015b4c       ??_C@_0N@HHJGGMON@?$CKl_arm_elbow?$AA@ 300b3b4c     cg_players.obj
 0002:00015b5c       ??_C@_0N@JCLPFCAP@?$CKr_arm_elbow?$AA@ 300b3b5c     cg_players.obj
 0002:00015b6c       ??_C@_0N@BNEPHBPB@?$CKhips_l_knee?$AA@ 300b3b6c     cg_players.obj
 0002:00015b7c       ??_C@_0N@CKKOJGGC@?$CKhips_r_knee?$AA@ 300b3b7c     cg_players.obj
 0002:00015b8c       ??_C@_09BKJBOOKM@?$CKbicep_lg?$AA@ 300b3b8c     cg_players.obj
 0002:00015b98       ??_C@_09MCJGANG@?$CKbicep_rg?$AA@ 300b3b98     cg_players.obj
 0002:00015ba4       ??_C@_07LFHEGECL@?$CKhand_l?$AA@ 300b3ba4     cg_players.obj
 0002:00015bac       ??_C@_07PEAFBKBB@?$CKweapon?$AA@ 300b3bac     cg_players.obj
 0002:00015bb4       ??_C@_09LAMJPHMP@?$CKthigh_lg?$AA@ 300b3bb4     cg_players.obj
 0002:00015bc0       ??_C@_09KGHBHJLF@?$CKthigh_rg?$AA@ 300b3bc0     cg_players.obj
 0002:00015bcc       ??_C@_08GILMFNAM@?$CKfoot_lg?$AA@ 300b3bcc     cg_players.obj
 0002:00015bd8       ??_C@_08HOAENDHG@?$CKfoot_rg?$AA@ 300b3bd8     cg_players.obj
 0002:00015be4       ??_C@_0CC@JOOHECEC@models?1weapons2?1jetpack?1model?4gl@ 300b3be4     cg_players.obj
 0002:00015c08       ??_C@_08EEKJBGNE@?$CKtrail?$CFd?$AA@ 300b3c08     cg_players.obj
 0002:00015c14       ??_C@_0DD@NEOCHPPA@Error?3?5?5Bad?5rotType?5?$CFi?5given?5to?5@ 300b3c14     cg_players.obj
 0002:00015c48       ??_C@_0EE@LCPDMCFD@Unknown?5weaponType?5for?5holsterTy@ 300b3c48     cg_players.obj
 0002:00015c90       ??_C@_0EC@PIMBHDMP@Unknown?5offsetBolt?5for?5boneIndex@ 300b3c90     cg_players.obj
 0002:00015cd4       ??_C@_0BP@EEHJJPLA@Bad?5clientNum?5on?5player?5entity?$AA@ 300b3cd4     cg_players.obj
 0002:00015cf4       ??_C@_0BG@ECFPMGGA@sound?1effects?1fire_lp?$AA@ 300b3cf4     cg_players.obj
 0002:00015d0c       ??_C@_0BE@ONCAFADF@sound?1boba?1JETHOVER?$AA@ 300b3d0c     cg_players.obj
 0002:00015d20       ??_C@_0L@LHAEFPAL@?$CKhead_eyes?$AA@ 300b3d20     cg_players.obj
 0002:00015d2c       ??_C@_0M@FGDBPCNN@?$CKhead_front?$AA@ 300b3d2c     cg_players.obj
 0002:00015d38       ??_C@_0GO@DNMEGDJE@WARNING?3?5?5This?5Model?5seems?5to?5ha@ 300b3d38     cg_players.obj
 0002:00015da8       ??_C@_0BN@PLJLAFDF@sound?1weapons?1baton?1idle?4wav?$AA@ 300b3da8     cg_players.obj
 0002:00015dc8       ??_C@_0BN@FKDGBGEH@?$CFi?5ResetPlayerEntity?5yaw?$DN?$CFi?6?$AA@ 300b3dc8     cg_players.obj
 0002:00015de8       __real@3b83126f            300b3de8     cg_players.obj
 0002:00015dec       __real@3cf5c28f            300b3dec     cg_players.obj
 0002:00015df0       __real@3d99999a            300b3df0     cg_players.obj
 0002:00015df4       __real@3ef9db23            300b3df4     cg_players.obj
 0002:00015df8       __real@3f28f5c3            300b3df8     cg_players.obj
 0002:00015e00       __real@3f70624dd2f1a9fc    300b3e00     cg_players.obj
 0002:00015e08       __real@3f70a3d7            300b3e08     cg_players.obj
 0002:00015e0c       __real@3f733333            300b3e0c     cg_players.obj
 0002:00015e10       __real@3f91eb85            300b3e10     cg_players.obj
 0002:00015e14       __real@3fa66666            300b3e14     cg_players.obj
 0002:00015e18       __real@3fb33333            300b3e18     cg_players.obj
 0002:00015e1c       __real@3fd9999a            300b3e1c     cg_players.obj
 0002:00015e20       __real@3ff921fb60000000    300b3e20     cg_players.obj
 0002:00015e28       __real@3ff999999999999a    300b3e28     cg_players.obj
 0002:00015e30       __real@4022000000000000    300b3e30     cg_players.obj
 0002:00015e38       __real@4039999a            300b3e38     cg_players.obj
 0002:00015e40       __real@4060000000000000    300b3e40     cg_players.obj
 0002:00015e48       __real@40c90fdb            300b3e48     cg_players.obj
 0002:00015e4c       __real@41180000            300b3e4c     cg_players.obj
 0002:00015e50       __real@41580000            300b3e50     cg_players.obj
 0002:00015e54       __real@42280000            300b3e54     cg_players.obj
 0002:00015e58       __real@425c0000            300b3e58     cg_players.obj
 0002:00015e5c       __real@43570000            300b3e5c     cg_players.obj
 0002:00015e60       __real@43740000            300b3e60     cg_players.obj
 0002:00015e64       __real@43800000            300b3e64     cg_players.obj
 0002:00015e68       __real@4ab71b00            300b3e68     cg_players.obj
 0002:00015e6c       __real@4cbebc20            300b3e6c     cg_players.obj
 0002:00015e70       __real@c25c0000            300b3e70     cg_players.obj
 0002:00015e80       __xmm@0000000000000000000000003f800000 300b3e80     cg_players.obj
 0002:00015e90       __xmm@000000000000000040c0000040c00000 300b3e90     cg_players.obj
 0002:00015ea0       __xmm@000000003f8000000000000000000000 300b3ea0     cg_players.obj
 0002:00015eb0       __xmm@00000000408000000000000000000000 300b3eb0     cg_players.obj
 0002:00015ec0       __xmm@00000000408000000000000040800000 300b3ec0     cg_players.obj
 0002:00015ed0       __xmm@00000000437f0000000000003f800000 300b3ed0     cg_players.obj
 0002:00015ee0       __xmm@3f800000000000000000000000000000 300b3ee0     cg_players.obj
 0002:00015ef0       __xmm@3f80000000000000408000003fc00000 300b3ef0     cg_players.obj
 0002:00015f00       __xmm@3f8000003f800000000000003f000000 300b3f00     cg_players.obj
 0002:00015f10       __xmm@3f8000003f8000003f80000000000000 300b3f10     cg_players.obj
 0002:00015f20       __xmm@40800000408000004080000000000000 300b3f20     cg_players.obj
 0002:00015f30       __xmm@40800000408000004080000040800000 300b3f30     cg_players.obj
 0002:00015f40       __xmm@80000000000000008000000000000000 300b3f40     cg_players.obj
 0002:00015f50       ??_C@_0CE@JCAHPAJ@exceeded?5PACKET_BACKUP?5on?5comman@ 300b3f50     cg_predict.obj
 0002:00015f74       ??_C@_02NCPIBIBE@33?$AA@   300b3f74     cg_predict.obj
 0002:00015f78       ??_C@_0BI@BEHCKC@VEH?5PredictionTeleport?6?$AA@ 300b3f78     cg_predict.obj
 0002:00015f90       ??_C@_0BG@EBLEHBAE@VEH?5prediction?5error?6?$AA@ 300b3f90     cg_predict.obj
 0002:00015fa8       ??_C@_0BJ@HCFMGHKL@VEH?5Prediction?5miss?3?5?$CFf?6?$AA@ 300b3fa8     cg_predict.obj
 0002:00015fc4       ??_C@_0CB@NOHEDLOG@VEH?5Double?5prediction?5decay?3?5?$CFf?6@ 300b3fc4     cg_predict.obj
 0002:00015fe8       ??_C@_0BN@PFOHEJFJ@VEH?5orient?5prediction?5error?6?$AA@ 300b3fe8     cg_predict.obj
 0002:00016008       ??_C@_0BP@EMNHCEKM@VEH?5pitch?5prediction?5miss?3?5?$CFf?6?$AA@ 300b4008     cg_predict.obj
 0002:00016028       ??_C@_0BN@FDMMHJCM@VEH?5yaw?5prediction?5miss?3?5?$CFf?6?$AA@ 300b4028     cg_predict.obj
 0002:00016048       ??_C@_0BO@EJDICJHE@VEH?5roll?5prediction?5miss?3?5?$CFf?6?$AA@ 300b4048     cg_predict.obj
 0002:00016068       ??_C@_0BE@DPKKIGLP@PredictionTeleport?6?$AA@ 300b4068     cg_predict.obj
 0002:0001607c       ??_C@_0BC@GIKLPGML@prediction?5error?6?$AA@ 300b407c     cg_predict.obj
 0002:00016090       ??_C@_0BF@BBGFLFIG@Prediction?5miss?3?5?$CFf?6?$AA@ 300b4090     cg_predict.obj
 0002:000160a8       ??_C@_0BN@HNLMAFPF@Double?5prediction?5decay?3?5?$CFf?6?$AA@ 300b40a8     cg_predict.obj
 0002:000160c8       ??_C@_0L@NKHFPHNI@?$FL?$CFi?5?3?5?$CFi?$FN?5?$AA@ 300b40c8     cg_predict.obj
 0002:000160d4       ??_C@_0L@DOJHFFNN@not?5moved?6?$AA@ 300b40d4     cg_predict.obj
 0002:000160e0       ??_C@_0BI@ELMKHMCD@WARNING?3?5dropped?5event?6?$AA@ 300b40e0     cg_predict.obj
 0002:000160f8       ??_C@_0BH@JOJLKMBP@WARNING?3?5double?5event?6?$AA@ 300b40f8     cg_predict.obj
 0002:00016110       __real@4be6ca08            300b4110     cg_predict.obj
 0002:00016114       ??_C@_0N@EKFFDIFK@ui_siegeInfo?$AA@ 300b4114     cg_saga.obj
 0002:00016124       ??_C@_02BBAHNLBA@?$CFp?$AA@ 300b4124     cg_saga.obj
 0002:00016128       ??_C@_09DOINKFHP@?7?$CFs?5?$CC?$CFs?$CC?6?$AA@ 300b4128     cg_saga.obj
 0002:00016134       ??_C@_0BA@MGGJEBOG@?$CFd?5total?5cvars?6?$AA@ 300b4134     cg_saga.obj
 0002:00016144       ??_C@_0CG@DGOPCHAC@Siege?5data?5does?5not?5exist?5on?5cli@ 300b4144     cg_saga.obj
 0002:0001616c       ??_C@_0M@IHDPCFPD@Objective?$CFi?$AA@ 300b416c     cg_saga.obj
 0002:00016178       ??_C@_0M@NFIGFDNC@sound_team1?$AA@ 300b4178     cg_saga.obj
 0002:00016184       ??_C@_0M@POKLAABB@sound_team2?$AA@ 300b4184     cg_saga.obj
 0002:00016190       ??_C@_06IEJOFGOG@objgfx?$AA@ 300b4190     cg_saga.obj
 0002:00016198       ??_C@_07PCJEFIIJ@mapicon?$AA@ 300b4198     cg_saga.obj
 0002:000161a0       ??_C@_0L@CGECIPJA@litmapicon?$AA@ 300b41a0     cg_saga.obj
 0002:000161ac       ??_C@_0M@NNMBIECO@donemapicon?$AA@ 300b41ac     cg_saga.obj
 0002:000161b8       ??_C@_03BPOAKJOG@?$CFs?$AA?$AA@ 300b41b8     cg_saga.obj
 0002:000161bc       ??_C@_09NLJHHKAB@?$CFs?4siege?$AA?$AA@ 300b41bc     cg_saga.obj
 0002:000161c8       ??_C@_05EPHHAOKA@Teams?$AA@ 300b41c8     cg_saga.obj
 0002:000161d0       ??_C@_0O@HPPEFNIJ@cg_siegeTeam1?$AA@ 300b41d0     cg_saga.obj
 0002:000161e0       ??_C@_05IKJECGBB@team1?$AA@ 300b41e0     cg_saga.obj
 0002:000161e8       ??_C@_0BC@HIIDLNJJ@cg_siegeTeam1Name?$AA@ 300b41e8     cg_saga.obj
 0002:000161fc       ??_C@_0O@FENJAOEK@cg_siegeTeam2?$AA@ 300b41fc     cg_saga.obj
 0002:0001620c       ??_C@_05KBLJHFNC@team2?$AA@ 300b420c     cg_saga.obj
 0002:00016214       ??_C@_0BC@POBHMPDH@cg_siegeTeam2Name?$AA@ 300b4214     cg_saga.obj
 0002:00016228       ??_C@_0BI@IFMEDMFB@Siege?5teams?5not?5defined?$AA@ 300b4228     cg_saga.obj
 0002:00016240       ??_C@_08PDGNKGMA@TeamIcon?$AA@ 300b4240     cg_saga.obj
 0002:0001624c       ??_C@_0L@BLDDBDPK@team1_icon?$AA@ 300b424c     cg_saga.obj
 0002:00016258       ??_C@_05MLMBIJDH@Timed?$AA@ 300b4258     cg_saga.obj
 0002:00016260       ??_C@_0BI@HADAPHEO@No?5team?5entry?5for?5?8?$CFs?8?6?$AA@ 300b4260     cg_saga.obj
 0002:00016278       ??_C@_0L@KNFJHKAA@mapgraphic?$AA@ 300b4278     cg_saga.obj
 0002:00016284       ??_C@_0BB@BJLPFOEO@siege_mapgraphic?$AA@ 300b4284     cg_saga.obj
 0002:00016298       ??_C@_0BJ@MIDFBPDP@gfx?1mplevels?1siege1_hoth?$AA@ 300b4298     cg_saga.obj
 0002:000162b4       ??_C@_0M@LAKHEKCN@missionname?$AA@ 300b42b4     cg_saga.obj
 0002:000162c0       ??_C@_0BC@CBHHMAJO@siege_missionname?$AA@ 300b42c0     cg_saga.obj
 0002:000162d4       ??_C@_0L@CKNLAJGH@team2_icon?$AA@ 300b42d4     cg_saga.obj
 0002:000162e0       ??_C@_0CL@BBGLILIJ@Couldn?8t?5find?5any?5player?5classes@ 300b42e0     cg_saga.obj
 0002:0001630c       ??_C@_0CJ@KLKCMJCL@Couldn?8t?5find?5any?5player?5teams?5f@ 300b430c     cg_saga.obj
 0002:00016338       ??_C@_07FKIPFDKM@UseTeam?$AA@ 300b4338     cg_saga.obj
 0002:00016340       ??_C@_0BM@OPMJLBOG@team?$CFi_objective?$CFi_longdesc?$AA@ 300b4340     cg_saga.obj
 0002:0001635c       ??_C@_07FOHNNLKA@objdesc?$AA@ 300b435c     cg_saga.obj
 0002:00016364       ??_C@_0M@GLJPNNOF@UNSPECIFIED?$AA@ 300b4364     cg_saga.obj
 0002:00016370       ??_C@_0BH@FONBELKG@team?$CFi_objective?$CFi_gfx?$AA@ 300b4370     cg_saga.obj
 0002:00016388       ??_C@_0BL@LNEPILJL@team?$CFi_objective?$CFi_mapicon?$AA@ 300b4388     cg_saga.obj
 0002:000163a4       ??_C@_0BO@ICPEGFEB@team?$CFi_objective?$CFi_litmapicon?$AA@ 300b43a4     cg_saga.obj
 0002:000163c4       ??_C@_0BP@CMLBNAIG@team?$CFi_objective?$CFi_donemapicon?$AA@ 300b43c4     cg_saga.obj
 0002:000163e4       ??_C@_0BK@JKAPHHID@team?$CFi_objective?$CFi_mappos?$AA@ 300b43e4     cg_saga.obj
 0002:00016400       ??_C@_06JOCODHCA@mappos?$AA@ 300b4400     cg_saga.obj
 0002:00016408       ??_C@_09IOGHMDJA@0?50?532?532?$AA@ 300b4408     cg_saga.obj
 0002:00016414       ??_C@_0CN@BEHJJGAC@ERROR?3?5Siege?5data?5does?5not?5exist@ 300b4414     cg_saga.obj
 0002:00016444       ??_C@_08BNMHJEJD@wonround?$AA@ 300b4444     cg_saga.obj
 0002:00016450       ??_C@_09CMDNALDI@lostround?$AA@ 300b4450     cg_saga.obj
 0002:0001645c       ??_C@_0BG@LLHJNGLO@roundover_sound_wewon?$AA@ 300b445c     cg_saga.obj
 0002:00016474       ??_C@_0BH@GEPPMNBP@roundover_sound_welost?$AA@ 300b4474     cg_saga.obj
 0002:0001648c       ??_C@_08IHNFKDIA@goalname?$AA@ 300b448c     cg_saga.obj
 0002:00016498       ??_C@_05FPBGKCKL@final?$AA@ 300b4498     cg_saga.obj
 0002:000164a0       ??_C@_0BE@CPFHCKII@siege_primobj_inuse?$AA@ 300b44a0     cg_saga.obj
 0002:000164b4       ??_C@_0O@EMONNPOK@siege_primobj?$AA@ 300b44b4     cg_saga.obj
 0002:000164c4       ??_C@_0BC@ONOHELI@siege_objective?$CFi?$AA@ 300b44c4     cg_saga.obj
 0002:000164d8       ??_C@_0BH@CHBOEPOM@siege_primobj_longdesc?$AA@ 300b44d8     cg_saga.obj
 0002:000164f0       ??_C@_0BL@FHIGMJGO@siege_objective?$CFi_longdesc?$AA@ 300b44f0     cg_saga.obj
 0002:0001650c       ??_C@_0BC@BMKDIAIH@siege_primobj_gfx?$AA@ 300b450c     cg_saga.obj
 0002:00016520       ??_C@_0BG@MEDDLAKD@siege_objective?$CFi_gfx?$AA@ 300b4520     cg_saga.obj
 0002:00016538       ??_C@_0BG@LNOAABKJ@siege_primobj_mapicon?$AA@ 300b4538     cg_saga.obj
 0002:00016550       ??_C@_0BK@EPJCAMKM@siege_objective?$CFi_mapicon?$AA@ 300b4550     cg_saga.obj
 0002:0001656c       ??_C@_0BF@DFIFEFID@siege_primobj_mappos?$AA@ 300b456c     cg_saga.obj
 0002:00016584       ??_C@_0BJ@CFIIAONA@siege_objective?$CFi_mappos?$AA@ 300b4584     cg_saga.obj
 0002:000165a0       ??_C@_0BD@GEFALHLI@siege_primobj_desc?$AA@ 300b45a0     cg_saga.obj
 0002:000165b4       ??_C@_0BI@PIGGCDBC@siege_objective?$CFi_inuse?$AA@ 300b45b4     cg_saga.obj
 0002:000165cc       ??_C@_0BJ@KPHOGGCB@team?$CFi_objective?$CFi_inuse?$AA@ 300b45cc     cg_saga.obj
 0002:000165e8       ??_C@_0BH@FIILMDFJ@siege_objective?$CFi_desc?$AA@ 300b45e8     cg_saga.obj
 0002:00016600       ??_C@_0O@LNLDLLBO@message_team1?$AA@ 300b4600     cg_saga.obj
 0002:00016610       ??_C@_0O@JGJOOINN@message_team2?$AA@ 300b4610     cg_saga.obj
 0002:00016620       ??_C@_0O@EBADDJCE@ui_siegeTimer?$AA@ 300b4620     cg_saga.obj
 0002:00016630       ??_C@_0N@EIDMFNAP@trueview?4cfg?$AA@ 300b4630     cg_saga.obj
 0002:00016640       ??_C@_0CF@FMFPFLLF@Error?3?5File?5Not?5Found?3?5trueview?4@ 300b4640     cg_saga.obj
 0002:00016668       ??_C@_0DO@FIPLBDBC@Error?3?5trueview?4cfg?5is?5over?5the?5@ 300b4668     cg_saga.obj
 0002:000166a8       ??_C@_0CF@FBOHGFNE@True?5View?5Eye?5Adjust?5Loaded?5for?5@ 300b46a8     cg_saga.obj
 0002:000166d0       ??_C@_0BH@DLHNHBEG@Bad?5score?9?$DOclient?3?5?$CFi?6?$AA@ 300b46d0     cg_scoreboard.obj
 0002:000166e8       ??_C@_05KACKNMMA@READY?$AA@ 300b46e8     cg_scoreboard.obj
 0002:000166f0       ??_C@_09CLFCPHPN@DUEL_WINS?$AA@ 300b46f0     cg_scoreboard.obj
 0002:000166fc       ??_C@_07EJOIIKAD@?$CFs?$FO7?5?$CFs?$AA@ 300b46fc     cg_scoreboard.obj
 0002:00016704       ??_C@_0BA@HAPNLPLG@MP_INGAME_PLACE?$AA@ 300b4704     cg_scoreboard.obj
 0002:00016714       ??_C@_0N@FJCIJIB@MP_INGAME_OF?$AA@ 300b4714     cg_scoreboard.obj
 0002:00016724       ??_C@_0P@ONBKBIGI@MP_INGAME_WITH?$AA@ 300b4724     cg_scoreboard.obj
 0002:00016734       ??_C@_0BE@NFGIJENK@?$CFs?5?$CFs?5?$CI?$CFs?5?$CFi?$CJ?5?$CFs?5?$CFi?$AA@ 300b4734     cg_scoreboard.obj
 0002:00016748       ??_C@_0O@KEEFDKDA@SIEGETEAM1WIN?$AA@ 300b4748     cg_scoreboard.obj
 0002:00016758       ??_C@_0O@ODOFEAOA@SIEGETEAM2WIN?$AA@ 300b4758     cg_scoreboard.obj
 0002:00016768       ??_C@_0BO@OHCPGADJ@gfx?1menus?1menu_buttonback?4tga?$AA@ 300b4768     cg_scoreboard.obj
 0002:00016788       ??_C@_04IPKHEEB@NAME?$AA@  300b4788     cg_scoreboard.obj
 0002:00016790       ??_C@_0O@EACMMGLJ@MP_INGAME_W_L?$AA@ 300b4790     cg_scoreboard.obj
 0002:000167a0       ??_C@_04CCOOKJJG@PING?$AA@ 300b47a0     cg_scoreboard.obj
 0002:000167a8       ??_C@_04OHBONDIN@TIME?$AA@ 300b47a8     cg_scoreboard.obj
 0002:000167b0       ??_C@_05CIFECOEH@SKILL?$AA@ 300b47b0     cg_scoreboard.obj
 0002:000167b8       ??_C@_0N@HGBPBCI@g_debugMelee?$AA@ 300b47b8     cg_servercmds.obj
 0002:000167c8       ??_C@_0P@HJKJKMBJ@g_stepSlideFix?$AA@ 300b47c8     cg_servercmds.obj
 0002:000167d8       ??_C@_0N@NEBLEAPN@g_noSpecMove?$AA@ 300b47d8     cg_servercmds.obj
 0002:000167e8       ??_C@_0BC@HHPGHHIK@g_siegeTeamSwitch?$AA@ 300b47e8     cg_servercmds.obj
 0002:000167fc       ??_C@_0BC@FPNNEGCD@g_showDuelHealths?$AA@ 300b47fc     cg_servercmds.obj
 0002:00016810       ??_C@_08HHFKLNCD@needpass?$AA@ 300b4810     cg_servercmds.obj
 0002:0001681c       ??_C@_0M@HDALJKN@g_jediVmerc?$AA@ 300b481c     cg_servercmds.obj
 0002:00016828       ??_C@_08CGDHFBIG@wdisable?$AA@ 300b4828     cg_servercmds.obj
 0002:00016834       ??_C@_08JNIMAHLE@fdisable?$AA@ 300b4834     cg_servercmds.obj
 0002:00016840       ??_C@_07GMGCLCAP@dmflags?$AA@ 300b4840     cg_servercmds.obj
 0002:00016848       ??_C@_09ELHMOKHN@teamflags?$AA@ 300b4848     cg_servercmds.obj
 0002:00016854       ??_C@_0O@OCOCOONB@sv_maxclients?$AA@ 300b4854     cg_servercmds.obj
 0002:00016864       ??_C@_06HNKPDEND@mapURL?$AA@ 300b4864     cg_servercmds.obj
 0002:0001686c       ??_C@_0M@DKNJHPLK@maps?1?$CFs?4bsp?$AA@ 300b486c     cg_servercmds.obj
 0002:00016878       ??_C@_0L@MLCEEGBP@g_needpass?$AA@ 300b4878     cg_servercmds.obj
 0002:00016884       ??_C@_0P@IGNPDGBD@bot_minplayers?$AA@ 300b4884     cg_servercmds.obj
 0002:00016894       ??_C@_0N@FBIHMIDO@g_siegeTeam1?$AA@ 300b4894     cg_servercmds.obj
 0002:000168a4       ??_C@_0N@HKKKJLPN@g_siegeTeam2?$AA@ 300b48a4     cg_servercmds.obj
 0002:000168b4       ??_C@_03HIMFCAJL@RMG?$AA@  300b48b4     cg_servercmds.obj
 0002:000168b8       ??_C@_0M@IFFNJHPN@RMG_weather?$AA@ 300b48b8     cg_servercmds.obj
 0002:000168c4       ??_C@_01NEMOKFLO@?$DN?$AA@ 300b48c4     cg_servercmds.obj
 0002:000168c8       ??_C@_01JLIPDDHJ@?3?$AA@   300b48c8     cg_servercmds.obj
 0002:000168cc       ??_C@_01EOFPKCAF@?$EA?$AA@ 300b48cc     cg_servercmds.obj
 0002:000168d0       ??_C@_05DJHCPMHD@1?4wav?$AA@ 300b48d0     cg_servercmds.obj
 0002:000168d8       ??_C@_0P@HFBEHELF@CG_MapRestart?6?$AA@ 300b48d8     cg_servercmds.obj
 0002:000168e8       ??_C@_03PMECLINK@sxd?$AA@  300b48e8     cg_servercmds.obj
 0002:000168ec       ??_C@_02BMCPJMB@sb?$AA@    300b48ec     cg_servercmds.obj
 0002:000168f0       ??_C@_03CEOIHOED@scl?$AA@  300b48f0     cg_servercmds.obj
 0002:000168f4       ??_C@_09KCOOEDFG@briefmenu?$AA@ 300b48f4     cg_servercmds.obj
 0002:00016900       ??_C@_03LNBAHPKF@spc?$AA@  300b4900     cg_servercmds.obj
 0002:00016904       ??_C@_03FEBBAMDF@nfr?$AA@  300b4904     cg_servercmds.obj
 0002:00016908       ??_C@_03JCHENJDF@kg2?$AA@  300b4908     cg_servercmds.obj
 0002:0001690c       ??_C@_03HHEDEIJA@kls?$AA@  300b490c     cg_servercmds.obj
 0002:00016910       ??_C@_04MOEPNNA@ircg?$AA@  300b4910     cg_servercmds.obj
 0002:00016918       ??_C@_03HPKAMAON@rcg?$AA@  300b4918     cg_servercmds.obj
 0002:0001691c       ??_C@_02GFBACKGC@cp?$AA@   300b491c     cg_servercmds.obj
 0002:00016920       ??_C@_03KHMLDKGL@cps?$AA@  300b4920     cg_servercmds.obj
 0002:00016924       ??_C@_02EODNHJKB@cs?$AA@   300b4924     cg_servercmds.obj
 0002:00016928       ??_C@_05IJDJACGD@print?$AA@ 300b4928     cg_servercmds.obj
 0002:00016930       ??_C@_04BLJLMHHG@chat?$AA@ 300b4930     cg_servercmds.obj
 0002:00016938       ??_C@_04IJBIFOMI@?$CK?$CFs?6?$AA@ 300b4938     cg_servercmds.obj
 0002:00016940       ??_C@_05PMMINOBP@tchat?$AA@ 300b4940     cg_servercmds.obj
 0002:00016948       ??_C@_05BDENFOOJ@lchat?$AA@ 300b4948     cg_servercmds.obj
 0002:00016950       ??_C@_0M@HPOJCEBD@?$CFs?$DM?$CFs?$DO?$FO?$CFs?$CFs?$AA@ 300b4950     cg_servercmds.obj
 0002:0001695c       ??_C@_06JMHAIGFD@ltchat?$AA@ 300b495c     cg_servercmds.obj
 0002:00016964       ??_C@_0N@GMGFOMKM@?$CFs?$DM?$CFs?$DO?5?$FO?$CFs?$CFs?$AA@ 300b4964     cg_servercmds.obj
 0002:00016974       ??_C@_06KBCJDMLG@scores?$AA@ 300b4974     cg_servercmds.obj
 0002:0001697c       ??_C@_05DPGKEEHN@tinfo?$AA@ 300b497c     cg_servercmds.obj
 0002:00016984       ??_C@_0M@BLBAMFDN@remapShader?$AA@ 300b4984     cg_servercmds.obj
 0002:00016990       ??_C@_0BA@GNMFKLDC@clientLevelShot?$AA@ 300b4990     cg_servercmds.obj
 0002:000169a0       ??_C@_0BA@FMENIEPN@inGameCinematic?$AA@ 300b49a0     cg_servercmds.obj
 0002:000169b0       ??_C@_0N@PBHFAMDA@video?1?$CFs?4roq?$AA@ 300b49b0     cg_servercmds.obj
 0002:000169c0       ??_C@_06MHOPBCLI@LMSWin?$AA@ 300b49c0     cg_servercmds.obj
 0002:000169c8       ??_C@_07PLFCICCC@LMSLose?$AA@ 300b49c8     cg_servercmds.obj
 0002:000169d0       ??_C@_0CB@KPHIIGNM@Unknown?5client?5game?5command?3?5?$CFs?6@ 300b49d0     cg_servercmds.obj
 0002:000169f4       ??_C@_0CE@BCLPNDDL@CG_TransitionSnapshot?3?5NULL?5cg?4s@ 300b49f4     cg_snapshot.obj
 0002:00016a18       ??_C@_0CI@JDFDPIEH@CG_TransitionSnapshot?3?5NULL?5cg?4n@ 300b4a18     cg_snapshot.obj
 0002:00016a40       ??_C@_0DJ@OLNOPAEM@WARNING?3?5CG_ReadNextSnapshot?3?5wa@ 300b4a40     cg_snapshot.obj
 0002:00016a7c       ??_C@_0CO@FFJEMNFE@CG_ProcessSnapshots?3?5n?5?$DM?5cg?4late@ 300b4a7c     cg_snapshot.obj
 0002:00016aac       ??_C@_0DA@GODLLJKJ@CG_ProcessSnapshots?3?5Server?5time@ 300b4aac     cg_snapshot.obj
 0002:00016adc       ??_C@_0CF@EPBFNJFD@CG_ProcessSnapshots?3?5cg?4snap?5?$DN?$DN?5@ 300b4adc     cg_snapshot.obj
 0002:00016b04       ??_C@_0DI@NCDIEGIG@CG_ProcessSnapshots?3?5cg?4nextSnap@ 300b4b04     cg_snapshot.obj
 0002:00016b3c       ??_C@_0L@JLHFAJNM@bone_hinge?$AA@ 300b4b3c     cg_turret.obj
 0002:00016b48       ??_C@_0L@NMBKBPBM@bone_gback?$AA@ 300b4b48     cg_turret.obj
 0002:00016b54       ??_C@_0M@MMECMPFA@bone_barrel?$AA@ 300b4b54     cg_turret.obj
 0002:00016b60       __real@3f9eb851eb851eb8    300b4b60     cg_turret.obj
 0002:00016b68       __real@43b48000            300b4b68     cg_turret.obj
 0002:00016b6c       ??_C@_0BG@GCFGCMGP@Can?8t?5register?5model?6?$AA@ 300b4b6c     cg_view.obj
 0002:00016b84       ??_C@_09FLAEHDCJ@frame?5?$CFi?6?$AA@ 300b4b84     cg_view.obj
 0002:00016b90       ??_C@_08JKENKHJN@skin?5?$CFi?6?$AA@ 300b4b90     cg_view.obj
 0002:00016b9c       ??_C@_02PJNFELNH@30?$AA@   300b4b9c     cg_view.obj
 0002:00016ba0       ??_C@_0DI@FBMMMHLO@CG_DrawSkyBoxPortal?3?5error?5parsi@ 300b4ba0     cg_view.obj
 0002:00016bd8       ??_C@_0EH@HBCAEGHH@CG_DrawSkyBoxPortal?3?5error?5parsi@ 300b4bd8     cg_view.obj
 0002:00016c20       ??_C@_0EE@BEKLHJKK@CG_DrawSkyBoxPortal?3?5error?5parsi@ 300b4c20     cg_view.obj
 0002:00016c68       ??_C@_0EE@KMBHBOMP@CG_DrawSkyBoxPortal?3?5error?5parsi@ 300b4c68     cg_view.obj
 0002:00016cb0       ??_C@_0EE@LOKCLBCB@CG_DrawSkyBoxPortal?3?5error?5parsi@ 300b4cb0     cg_view.obj
 0002:00016cf4       ??_C@_02NJPGOMH@?$CFf?$AA@ 300b4cf4     cg_view.obj
 0002:00016cf8       ??_C@_0M@OGBIOKHN@s_musicMult?$AA@ 300b4cf8     cg_view.obj
 0002:00016d04       ??_C@_06PAOMPDJH@?$DMnone?$DO?$AA@ 300b4d04     cg_view.obj
 0002:00016d0c       ??_C@_0BA@NOFPOCEH@ui_mySiegeClass?$AA@ 300b4d0c     cg_view.obj
 0002:00016d1c       ??_C@_0N@BFFGCGIH@EndCinematic?$AA@ 300b4d1c     cg_view.obj
 0002:00016d2c       ??_C@_0BD@PLOBIDP@cg?4clientFrame?3?$CFi?6?$AA@ 300b4d2c     cg_view.obj
 0002:00016d40       __real@3f947ae147ae147b    300b4d40     cg_view.obj
 0002:00016d48       __real@405cc00000000000    300b4d48     cg_view.obj
 0002:00016d50       __real@42b20000            300b4d50     cg_view.obj
 0002:00016d54       __real@43020000            300b4d54     cg_view.obj
 0002:00016d58       __real@43200000            300b4d58     cg_view.obj
 0002:00016d60       __real@bfe8000000000000    300b4d60     cg_view.obj
 0002:00016d68       __real@c2a00000            300b4d68     cg_view.obj
 0002:00016d6c       __real@c2b20000            300b4d6c     cg_view.obj
 0002:00016d70       __real@c32a0000            300b4d70     cg_view.obj
 0002:00016d74       ??_C@_0BI@JJFMDMDC@Couldn?8t?5find?5weapon?5?$CFi?$AA@ 300b4d74     cg_weaponinit.obj
 0002:00016d8c       ??_C@_0M@GGMINFPA@_barrel?4md3?$AA@ 300b4d8c     cg_weaponinit.obj
 0002:00016d98       ??_C@_0CM@BAIIJBLO@models?1weapons2?1stun_baton?1baton@ 300b4d98     cg_weaponinit.obj
 0002:00016dc4       ??_C@_0CN@KHBOOEOM@models?1weapons2?1stun_baton?1baton@ 300b4dc4     cg_weaponinit.obj
 0002:00016df4       ??_C@_0CN@GMECDHEJ@models?1weapons2?1stun_baton?1baton@ 300b4df4     cg_weaponinit.obj
 0002:00016e24       ??_C@_09OLHEALFG@_hand?4md3?$AA@ 300b4e24     cg_weaponinit.obj
 0002:00016e30       ??_C@_0BH@HJDNBHMB@stunBaton?1flesh_impact?$AA@ 300b4e30     cg_weaponinit.obj
 0002:00016e48       ??_C@_0BN@CHIIPNFK@sound?1weapons?1baton?1fire?4mp3?$AA@ 300b4e48     cg_weaponinit.obj
 0002:00016e68       ??_C@_0CE@KGGFKOKK@sound?1weapons?1concussion?1select?4@ 300b4e68     cg_weaponinit.obj
 0002:00016e8c       ??_C@_0BI@LEFNPLAK@concussion?1muzzle_flash?$AA@ 300b4e8c     cg_weaponinit.obj
 0002:00016ea4       ??_C@_0CC@PMHFGFB@sound?1weapons?1bryar?1altcharge?4wa@ 300b4ea4     cg_weaponinit.obj
 0002:00016ec8       ??_C@_0BL@NBLMMMNB@concussion?1altmuzzle_flash?$AA@ 300b4ec8     cg_weaponinit.obj
 0002:00016ee4       ??_C@_0BD@GMJOGKFI@disruptor?1alt_miss?$AA@ 300b4ee4     cg_weaponinit.obj
 0002:00016ef8       ??_C@_0BA@LLBDOLLK@concussion?1shot?$AA@ 300b4ef8     cg_weaponinit.obj
 0002:00016f08       ??_C@_0BF@IMIJKLAL@concussion?1explosion?$AA@ 300b4f08     cg_weaponinit.obj
 0002:00016f20       ??_C@_0BF@JPNAFPJM@gfx?1effects?1blueLine?$AA@ 300b4f20     cg_weaponinit.obj
 0002:00016f38       ??_C@_0BE@DCALKONJ@gfx?1misc?1whiteline2?$AA@ 300b4f38     cg_weaponinit.obj
 0002:00016f4c       ??_C@_0BP@FGCADJJP@sound?1weapons?1bryar?1select?4wav?$AA@ 300b4f4c     cg_weaponinit.obj
 0002:00016f6c       ??_C@_0BN@JIOEMEHN@sound?1weapons?1bryar?1fire?4wav?$AA@ 300b4f6c     cg_weaponinit.obj
 0002:00016f8c       ??_C@_0BD@FEAFGDCF@bryar?1muzzle_flash?$AA@ 300b4f8c     cg_weaponinit.obj
 0002:00016fa0       ??_C@_0CB@NOOHMAPO@sound?1weapons?1bryar?1alt_fire?4wav@ 300b4fa0     cg_weaponinit.obj
 0002:00016fc4       ??_C@_0L@OLAIOCBJ@bryar?1shot?$AA@ 300b4fc4     cg_weaponinit.obj
 0002:00016fd0       ??_C@_0BC@BOLKNOFJ@bryar?1crackleShot?$AA@ 300b4fd0     cg_weaponinit.obj
 0002:00016fe4       ??_C@_0BC@EBGIPNAG@bryar?1wall_impact?$AA@ 300b4fe4     cg_weaponinit.obj
 0002:00016ff8       ??_C@_0BD@EFCJJLJ@bryar?1wall_impact2?$AA@ 300b4ff8     cg_weaponinit.obj
 0002:0001700c       ??_C@_0BD@BNEJKIPI@bryar?1wall_impact3?$AA@ 300b500c     cg_weaponinit.obj
 0002:00017020       ??_C@_0BD@FELCOKJA@bryar?1flesh_impact?$AA@ 300b5020     cg_weaponinit.obj
 0002:00017034       ??_C@_0BD@OFNANLII@bryar?1droid_impact?$AA@ 300b5034     cg_weaponinit.obj
 0002:00017048       ??_C@_0BM@JKHHLDPP@gfx?1effects?1bryarFrontFlash?$AA@ 300b5048     cg_weaponinit.obj
 0002:00017064       ??_C@_0BI@BJLFJMEC@blaster?1wall_impact?4efx?$AA@ 300b5064     cg_weaponinit.obj
 0002:0001707c       ??_C@_0BJ@JOIPHIFH@blaster?1flesh_impact?4efx?$AA@ 300b507c     cg_weaponinit.obj
 0002:00017098       ??_C@_0CB@BLKDMLBK@sound?1weapons?1blaster?1select?4wav@ 300b5098     cg_weaponinit.obj
 0002:000170bc       ??_C@_0BP@GFLHELND@sound?1weapons?1blaster?1fire?4wav?$AA@ 300b50bc     cg_weaponinit.obj
 0002:000170dc       ??_C@_0BF@DOFNBELO@blaster?1muzzle_flash?$AA@ 300b50dc     cg_weaponinit.obj
 0002:000170f4       ??_C@_0CD@MLKAHCED@sound?1weapons?1blaster?1alt_fire?4w@ 300b50f4     cg_weaponinit.obj
 0002:00017118       ??_C@_0BA@BHMDGDMI@blaster?1deflect?$AA@ 300b5118     cg_weaponinit.obj
 0002:00017128       ??_C@_0N@MPCJLPHJ@blaster?1shot?$AA@ 300b5128     cg_weaponinit.obj
 0002:00017138       ??_C@_0BE@KJDPJEBH@blaster?1wall_impact?$AA@ 300b5138     cg_weaponinit.obj
 0002:0001714c       ??_C@_0BF@DOOKJNAL@blaster?1flesh_impact?$AA@ 300b514c     cg_weaponinit.obj
 0002:00017164       ??_C@_0BF@IPIIKMBD@blaster?1droid_impact?$AA@ 300b5164     cg_weaponinit.obj
 0002:0001717c       ??_C@_0CD@DFFAFGLL@sound?1weapons?1disruptor?1select?4w@ 300b517c     cg_weaponinit.obj
 0002:000171a0       ??_C@_0CB@EHFIEJDN@sound?1weapons?1disruptor?1fire?4wav@ 300b51a0     cg_weaponinit.obj
 0002:000171c4       ??_C@_0BH@CPCPJCBI@disruptor?1muzzle_flash?$AA@ 300b51c4     cg_weaponinit.obj
 0002:000171dc       ??_C@_0CF@PCACDOOB@sound?1weapons?1disruptor?1alt_fire@ 300b51dc     cg_weaponinit.obj
 0002:00017204       ??_C@_0CG@EHPDBIN@sound?1weapons?1disruptor?1altCharg@ 300b5204     cg_weaponinit.obj
 0002:0001722c       ??_C@_0BA@CPFGKGDJ@disruptor?1rings?$AA@ 300b522c     cg_weaponinit.obj
 0002:0001723c       ??_C@_0P@BFCHPLMK@disruptor?1shot?$AA@ 300b523c     cg_weaponinit.obj
 0002:0001724c       ??_C@_0BG@NKLCGOMM@disruptor?1wall_impact?$AA@ 300b524c     cg_weaponinit.obj
 0002:00017264       ??_C@_0BH@CPJIBLKN@disruptor?1flesh_impact?$AA@ 300b5264     cg_weaponinit.obj
 0002:0001727c       ??_C@_0BC@CJGMPDCH@disruptor?1alt_hit?$AA@ 300b527c     cg_weaponinit.obj
 0002:00017290       ??_C@_0BE@MOEMNEGA@gfx?1effects?1redLine?$AA@ 300b5290     cg_weaponinit.obj
 0002:000172a4       ??_C@_0BH@MMADONKH@gfx?1effects?1smokeTrail?$AA@ 300b52a4     cg_weaponinit.obj
 0002:000172bc       ??_C@_0BD@EJMIPBKG@gfx?12d?1cropCircle2?$AA@ 300b52bc     cg_weaponinit.obj
 0002:000172d0       ??_C@_0BC@GJGBLKGG@gfx?12d?1cropCircle?$AA@ 300b52d0     cg_weaponinit.obj
 0002:000172e4       ??_C@_0BG@CGNKPPMN@gfx?12d?1cropCircleGlow?$AA@ 300b52e4     cg_weaponinit.obj
 0002:000172fc       ??_C@_0BC@MNEMOCHO@gfx?12d?1insertTick?$AA@ 300b52fc     cg_weaponinit.obj
 0002:00017310       ??_C@_0BD@FIJJMHEA@gfx?12d?1crop_charge?$AA@ 300b5310     cg_weaponinit.obj
 0002:00017324       ??_C@_0CF@DBNAAJNN@sound?1weapons?1disruptor?1zoomloop@ 300b5324     cg_weaponinit.obj
 0002:0001734c       ??_C@_0CD@PAHBPJGI@sound?1weapons?1bowcaster?1select?4w@ 300b534c     cg_weaponinit.obj
 0002:00017370       ??_C@_0CB@LHPHEBPN@sound?1weapons?1bowcaster?1fire?4wav@ 300b5370     cg_weaponinit.obj
 0002:00017394       ??_C@_0BH@MDFDHPJM@bowcaster?1muzzle_flash?$AA@ 300b5394     cg_weaponinit.obj
 0002:000173ac       ??_C@_0CG@GINKIFIO@sound?1weapons?1bowcaster?1altcharg@ 300b53ac     cg_weaponinit.obj
 0002:000173d4       ??_C@_0P@PMMDLPAJ@bowcaster?1shot?$AA@ 300b53d4     cg_weaponinit.obj
 0002:000173e4       ??_C@_0BE@KNDAKNMI@bowcaster?1explosion?$AA@ 300b53e4     cg_weaponinit.obj
 0002:000173f8       ??_C@_0BC@DONAAMN@bowcaster?1deflect?$AA@ 300b53f8     cg_weaponinit.obj
 0002:0001740c       ??_C@_0BM@GFMCAJED@gfx?1effects?1greenFrontFlash?$AA@ 300b540c     cg_weaponinit.obj
 0002:00017428       ??_C@_0CC@FIKMAEPH@sound?1weapons?1repeater?1select?4wa@ 300b5428     cg_weaponinit.obj
 0002:0001744c       ??_C@_0CA@EFALOJAJ@sound?1weapons?1repeater?1fire?4wav?$AA@ 300b544c     cg_weaponinit.obj
 0002:0001746c       ??_C@_0BG@IKAOHIPP@repeater?1muzzle_flash?$AA@ 300b546c     cg_weaponinit.obj
 0002:00017484       ??_C@_0CE@CLKLGDMM@sound?1weapons?1repeater?1alt_fire?4@ 300b5484     cg_weaponinit.obj
 0002:000174a8       ??_C@_0BE@MHMDAGJH@repeater?1projectile?$AA@ 300b54a8     cg_weaponinit.obj
 0002:000174bc       ??_C@_0BI@KJBEKPOJ@repeater?1alt_projectile?$AA@ 300b54bc     cg_weaponinit.obj
 0002:000174d4       ??_C@_0BF@PBONOCOL@repeater?1wall_impact?$AA@ 300b54d4     cg_weaponinit.obj
 0002:000174ec       ??_C@_0BG@IKLJPBEK@repeater?1flesh_impact?$AA@ 300b54ec     cg_weaponinit.obj
 0002:00017504       ??_C@_0BE@BNCJIELK@repeater?1concussion?$AA@ 300b5504     cg_weaponinit.obj
 0002:00017518       ??_C@_0BP@GCOEPOOB@sound?1weapons?1demp2?1select?4wav?$AA@ 300b5518     cg_weaponinit.obj
 0002:00017538       ??_C@_0BN@IMCKPCBD@sound?1weapons?1demp2?1fire?4wav?$AA@ 300b5538     cg_weaponinit.obj
 0002:00017558       ??_C@_0BD@OALJFEIK@demp2?1muzzle_flash?$AA@ 300b5558     cg_weaponinit.obj
 0002:0001756c       ??_C@_0CA@PGAHJLAO@sound?1weapons?1demp2?1altfire?4wav?$AA@ 300b556c     cg_weaponinit.obj
 0002:0001758c       ??_C@_0CC@MPIGNLMI@sound?1weapons?1demp2?1altCharge?4wa@ 300b558c     cg_weaponinit.obj
 0002:000175b0       ??_C@_0BB@KGIAAOJD@demp2?1projectile?$AA@ 300b55b0     cg_weaponinit.obj
 0002:000175c4       ??_C@_0BC@PGOBGFPK@demp2?1wall_impact?$AA@ 300b55c4     cg_weaponinit.obj
 0002:000175d8       ??_C@_0BD@OAAONNDP@demp2?1flesh_impact?$AA@ 300b55d8     cg_weaponinit.obj
 0002:000175ec       ??_C@_0BI@EMCCKEMO@models?1items?1sphere?4md3?$AA@ 300b55ec     cg_weaponinit.obj
 0002:00017604       ??_C@_0BH@IBMEBMI@gfx?1effects?1demp2shell?$AA@ 300b5604     cg_weaponinit.obj
 0002:0001761c       ??_C@_0BI@BPJONCHM@gfx?1misc?1lightningFlash?$AA@ 300b561c     cg_weaponinit.obj
 0002:00017634       ??_C@_0CD@MMBOCDNN@sound?1weapons?1flechette?1select?4w@ 300b5634     cg_weaponinit.obj
 0002:00017658       ??_C@_0CB@IPAGIIKJ@sound?1weapons?1flechette?1fire?4wav@ 300b5658     cg_weaponinit.obj
 0002:0001767c       ??_C@_0BH@DMOHCCME@flechette?1muzzle_flash?$AA@ 300b567c     cg_weaponinit.obj
 0002:00017694       ??_C@_0CO@KGLEGKPD@models?1weapons2?1golan_arms?1proje@ 300b5694     cg_weaponinit.obj
 0002:000176c4       ??_C@_0CF@OBMKIODN@sound?1weapons?1flechette?1alt_fire@ 300b56c4     cg_weaponinit.obj
 0002:000176ec       ??_C@_0CK@KOEFLOG@models?1weapons2?1golan_arms?1proje@ 300b56ec     cg_weaponinit.obj
 0002:00017718       ??_C@_0P@JNBALAPP@flechette?1shot?$AA@ 300b5718     cg_weaponinit.obj
 0002:00017728       ??_C@_0BD@JJNBCJJJ@flechette?1alt_shot?$AA@ 300b5728     cg_weaponinit.obj
 0002:0001773c       ??_C@_0BG@HOJKOENE@flechette?1wall_impact?$AA@ 300b573c     cg_weaponinit.obj
 0002:00017754       ??_C@_0BH@DMFAKLHB@flechette?1flesh_impact?$AA@ 300b5754     cg_weaponinit.obj
 0002:0001776c       ??_C@_0CA@BFPHOFPP@sound?1weapons?1rocket?1select?4wav?$AA@ 300b576c     cg_weaponinit.obj
 0002:0001778c       ??_C@_0BO@KGPOLMAP@sound?1weapons?1rocket?1fire?4wav?$AA@ 300b578c     cg_weaponinit.obj
 0002:000177ac       ??_C@_0BE@EHKIPHHK@rocket?1muzzle_flash?$AA@ 300b57ac     cg_weaponinit.obj
 0002:000177c0       ??_C@_0CJ@EIJKNCLJ@models?1weapons2?1merr_sonn?1projec@ 300b57c0     cg_weaponinit.obj
 0002:000177ec       ??_C@_0CE@IOBLFLKH@sound?1weapons?1rocket?1missleloop?4@ 300b57ec     cg_weaponinit.obj
 0002:00017810       ??_C@_0CC@DEHPHGHB@sound?1weapons?1rocket?1alt_fire?4wa@ 300b5810     cg_weaponinit.obj
 0002:00017834       ??_C@_0BH@OECPONON@rocket?1altmuzzle_flash?$AA@ 300b5834     cg_weaponinit.obj
 0002:0001784c       ??_C@_0M@FFHPHMBH@rocket?1shot?$AA@ 300b584c     cg_weaponinit.obj
 0002:00017858       ??_C@_0BB@KFJJMFBH@rocket?1explosion?$AA@ 300b5858     cg_weaponinit.obj
 0002:0001786c       ??_C@_0CB@CGKIDHAK@sound?1weapons?1thermal?1select?4wav@ 300b586c     cg_weaponinit.obj
 0002:00017890       ??_C@_0BP@NKIENFLE@sound?1weapons?1thermal?1fire?4wav?$AA@ 300b5890     cg_weaponinit.obj
 0002:000178b0       ??_C@_0CB@MGFEFCDJ@sound?1weapons?1thermal?1charge?4wav@ 300b58b0     cg_weaponinit.obj
 0002:000178d4       ??_C@_0CJ@BFFBHEKC@models?1weapons2?1thermal?1thermal_@ 300b58d4     cg_weaponinit.obj
 0002:00017900       ??_C@_0BC@NHJFLKCE@thermal?1explosion?$AA@ 300b5900     cg_weaponinit.obj
 0002:00017914       ??_C@_0BC@FJJANHJJ@thermal?1shockwave?$AA@ 300b5914     cg_weaponinit.obj
 0002:00017928       ??_C@_0CC@NPFLGFIJ@sound?1weapons?1thermal?1bounce1?4wa@ 300b5928     cg_weaponinit.obj
 0002:0001794c       ??_C@_0CC@FJMPBHCH@sound?1weapons?1thermal?1bounce2?4wa@ 300b594c     cg_weaponinit.obj
 0002:00017970       ??_C@_0CE@MDLOFNAP@sound?1weapons?1thermal?1thermloop?4@ 300b5970     cg_weaponinit.obj
 0002:00017994       ??_C@_0CC@LCFKGMMC@sound?1weapons?1thermal?1warning?4wa@ 300b5994     cg_weaponinit.obj
 0002:000179b8       ??_C@_0CB@IPONPKH@sound?1weapons?1detpack?1select?4wav@ 300b59b8     cg_weaponinit.obj
 0002:000179dc       ??_C@_0CC@MCJFLHDA@sound?1weapons?1laser_trap?1fire?4wa@ 300b59dc     cg_weaponinit.obj
 0002:00017a00       ??_C@_0BF@MMIBFHCA@tripMine?1laserMP?4efx?$AA@ 300b5a00     cg_weaponinit.obj
 0002:00017a18       ??_C@_0BF@BCFHNODM@tripMine?1glowbit?4efx?$AA@ 300b5a18     cg_weaponinit.obj
 0002:00017a30       ??_C@_0BD@NFNOIGGP@tripMine?1explosion?$AA@ 300b5a30     cg_weaponinit.obj
 0002:00017a44       ??_C@_0CD@IHPKAHHF@sound?1weapons?1laser_trap?1stick?4w@ 300b5a44     cg_weaponinit.obj
 0002:00017a68       ??_C@_0CF@GJBNPGFB@sound?1weapons?1laser_trap?1warning@ 300b5a68     cg_weaponinit.obj
 0002:00017a90       ??_C@_0BP@IHNCLMHN@sound?1weapons?1detpack?1fire?4wav?$AA@ 300b5a90     cg_weaponinit.obj
 0002:00017ab0       ??_C@_0CA@IPNCHNFD@sound?1weapons?1detpack?1stick?4wav?$AA@ 300b5ab0     cg_weaponinit.obj
 0002:00017ad0       ??_C@_0CC@BKBDOFHP@sound?1weapons?1detpack?1warning?4wa@ 300b5ad0     cg_weaponinit.obj
 0002:00017af4       ??_C@_0CG@KEDFKHHA@sound?1weapons?1explosions?1explode@ 300b5af4     cg_weaponinit.obj
 0002:00017b1c       ??_C@_0CA@JPEAOPNB@effects?1blaster?1wall_impact?4efx?$AA@ 300b5b1c     cg_weaponinit.obj
 0002:00017b3c       ??_C@_0CB@PHAPEPNK@effects?1blaster?1flesh_impact?4efx@ 300b5b3c     cg_weaponinit.obj
 0002:00017b60       ??_C@_0CC@OIFCIFP@sound?1weapons?1rocket?1rocklf1a?4wa@ 300b5b60     cg_weaponinit.obj
 0002:00017b84       ??_C@_0DH@ECKDIILO@CG_RegisterItemVisuals?3?5itemNum?5@ 300b5b84     cg_weapons.obj
 0002:00017bbc       ??_C@_0L@FGMMEJDC@tag_weapon?$AA@ 300b5bbc     cg_weapons.obj
 0002:00017bc8       ??_C@_0L@EKFDHKMA@tag_barrel?$AA@ 300b5bc8     cg_weapons.obj
 0002:00017bd4       ??_C@_0M@HGFOMFLL@tag_barrel2?$AA@ 300b5bd4     cg_weapons.obj
 0002:00017be0       ??_C@_0M@GPEFPEPK@tag_barrel3?$AA@ 300b5be0     cg_weapons.obj
 0002:00017bec       ??_C@_09FNBKMGLL@tag_flash?$AA@ 300b5bec     cg_weapons.obj
 0002:00017bf8       ??_C@_0BA@FIDILDHD@sv_saberswitch?6?$AA@ 300b5bf8     cg_weapons.obj
 0002:00017c08       ??_C@_0CN@NBNBAPF@CG_FireWeapon?3?5ent?9?$DOweapon?5?$DO?$DN?5WP@ 300b5c08     cg_weapons.obj
 0002:00017c38       ??_C@_07JCDPMDF@?$CKblade1?$AA@ 300b5c38     cg_weapons.obj
 0002:00017c40       __real@3fe00000            300b5c40     cg_weapons.obj
 0002:00017c48       __real@4072c00000000000    300b5c48     cg_weapons.obj
 0002:00017c50       __real@41600000            300b5c50     cg_weapons.obj
 0002:00017c54       __real@42380000            300b5c54     cg_weapons.obj
 0002:00017c58       __real@bfc999999999999a    300b5c58     cg_weapons.obj
 0002:00017c60       __xmm@3f8000003df7ced93f37ced93f600000 300b5c60     cg_weapons.obj
 0002:00017c70       ??_C@_0CB@LNGBPGCI@NULL?5PS?5in?5BG_FighterUpdate?5?$CI?$CFs?$CJ@ 300b5c70     FighterNPC.obj
 0002:00017c94       __real@3faaaaab            300b5c94     FighterNPC.obj
 0002:00017c98       __real@4029000000000000    300b5c98     FighterNPC.obj
 0002:00017ca0       __real@46192000            300b5ca0     FighterNPC.obj
 0002:00017ca4       __real@c4fa0000            300b5ca4     FighterNPC.obj
 0002:00017cb0       __xmm@3f0000003f0000003f0000003f000000 300b5cb0     fx_heavyrepeater.obj
 0002:00017cc0       __real@37800000            300b5cc0     q_math.obj
 0002:00017cc4       __real@38000000            300b5cc4     q_math.obj
 0002:00017cc8       __real@3c8efa35            300b5cc8     q_math.obj
 0002:00017cd0       __real@3f50624de0000000    300b5cd0     q_math.obj
 0002:00017cd8       __real@4066c16c16c16c17    300b5cd8     q_math.obj
 0002:00017ce0       __real@4b800000            300b5ce0     q_math.obj
 0002:00017ce4       __real@c3340000            300b5ce4     q_math.obj
 0002:00017cf0       __xmm@41f00000000000000000000000000000 300b5cf0     q_math.obj
 0002:00017d00       ??_C@_0BG@EKAPNPCH@Q_strncpyz?3?5NULL?5dest?$AA@ 300b5d00     q_shared.obj
 0002:00017d18       ??_C@_0BF@BJHHBLMD@Q_strncpyz?3?5NULL?5src?$AA@ 300b5d18     q_shared.obj
 0002:00017d30       ??_C@_0BJ@OLBOPICM@Q_strncpyz?3?5destsize?5?$DM?51?$AA@ 300b5d30     q_shared.obj
 0002:00017d4c       ??_C@_0BN@EFOOAHFL@Q_strcat?3?5already?5overflowed?$AA@ 300b5d4c     q_shared.obj
 0002:00017d6c       ??_C@_0CL@PJCCCJHN@Com_sprintf2?3?5overflow?5of?5?$CFi?5byt@ 300b5d6c     q_shared.obj
 0002:00017d98       ??_C@_0CO@NIJHFKAJ@Attempted?5to?5overrun?5string?5in?5c@ 300b5d98     q_shared.obj
 0002:00017dc8       ??_C@_0CG@FLHABLN@Info_ValueForKey?3?5oversize?5infos@ 300b5dc8     q_shared.obj
 0002:00017df0       __real@4039000000000000    300b5df0     SpeederNPC.obj
 0002:00017df8       ??_C@_0P@NOKHMHPD@model_rotation?$AA@ 300b5df8     ui_shared.obj
 0002:00017e08       ??_C@_06JFGPOFJL@fadein?$AA@ 300b5e08     ui_shared.obj
 0002:00017e10       ??_C@_0N@GEHEFKNH@model_g2mins?$AA@ 300b5e10     ui_shared.obj
 0002:00017e20       ??_C@_07BJADIKJG@fadeout?$AA@ 300b5e20     ui_shared.obj
 0002:00017e28       ??_C@_0N@LJGLKNPK@model_g2maxs?$AA@ 300b5e28     ui_shared.obj
 0002:00017e38       ??_C@_04FKMICODN@show?$AA@ 300b5e38     ui_shared.obj
 0002:00017e40       ??_C@_0O@DMCMCDJO@model_g2scale?$AA@ 300b5e40     ui_shared.obj
 0002:00017e50       ??_C@_04IBOFHAPJ@hide?$AA@ 300b5e50     ui_shared.obj
 0002:00017e58       ??_C@_0N@OLIOMBCG@model_g2skin?$AA@ 300b5e58     ui_shared.obj
 0002:00017e68       ??_C@_08OKIEAMBM@setcolor?$AA@ 300b5e68     ui_shared.obj
 0002:00017e74       ??_C@_0N@ONFNKGDF@model_g2anim?$AA@ 300b5e74     ui_shared.obj
 0002:00017e84       ??_C@_04PMOCAHAA@open?$AA@ 300b5e84     ui_shared.obj
 0002:00017e8c       ??_C@_0L@KAGOMOPN@mouseEnter?$AA@ 300b5e8c     ui_shared.obj
 0002:00017e98       ??_C@_05LBOHBHFK@close?$AA@ 300b5e98     ui_shared.obj
 0002:00017ea0       ??_C@_0P@BCEPHLNB@mouseEnterText?$AA@ 300b5ea0     ui_shared.obj
 0002:00017eb0       ??_C@_08FBOLLCAN@setasset?$AA@ 300b5eb0     ui_shared.obj
 0002:00017ebc       ??_C@_09OIHCIOIA@mouseExit?$AA@ 300b5ebc     ui_shared.obj
 0002:00017ec8       ??_C@_0O@FOIIKEEB@setbackground?$AA@ 300b5ec8     ui_shared.obj
 0002:00017ed8       ??_C@_0O@GFPABKKP@mouseExitText?$AA@ 300b5ed8     ui_shared.obj
 0002:00017ee8       ??_C@_0BA@GEEJLPGN@setitemrectcvar?$AA@ 300b5ee8     ui_shared.obj
 0002:00017ef8       ??_C@_0BC@IHOKDANM@setitembackground?$AA@ 300b5ef8     ui_shared.obj
 0002:00017f0c       ??_C@_0O@FDEIBLKE@notselectable?$AA@ 300b5f0c     ui_shared.obj
 0002:00017f1c       ??_C@_0M@KNPKGGHL@setitemtext?$AA@ 300b5f1c     ui_shared.obj
 0002:00017f28       ??_C@_07PFEHHELH@onFocus?$AA@ 300b5f28     ui_shared.obj
 0002:00017f30       ??_C@_0N@EBBIOPHN@setitemcolor?$AA@ 300b5f30     ui_shared.obj
 0002:00017f40       ??_C@_0N@LGJOCBPD@outlinecolor?$AA@ 300b5f40     ui_shared.obj
 0002:00017f50       ??_C@_0BB@HMPBEODN@setitemcolorcvar?$AA@ 300b5f50     ui_shared.obj
 0002:00017f64       ??_C@_09HGLBOMNF@ownerdraw?$AA@ 300b5f64     ui_shared.obj
 0002:00017f70       ??_C@_0M@DCMJNPEK@setitemrect?$AA@ 300b5f70     ui_shared.obj
 0002:00017f7c       ??_C@_0O@DACAJCLK@ownerdrawFlag?$AA@ 300b5f7c     ui_shared.obj
 0002:00017f8c       ??_C@_0N@KMLJLNON@setteamcolor?$AA@ 300b5f8c     ui_shared.obj
 0002:00017f9c       ??_C@_04LHPFHFPH@rect?$AA@ 300b5f9c     ui_shared.obj
 0002:00017fa4       ??_C@_08OKIAJKBO@setfocus?$AA@ 300b5fa4     ui_shared.obj
 0002:00017fb0       ??_C@_08LBJPPPMM@rectcvar?$AA@ 300b5fb0     ui_shared.obj
 0002:00017fbc       ??_C@_0P@COHLPKKB@setplayermodel?$AA@ 300b5fbc     ui_shared.obj
 0002:00017fcc       ??_C@_08LNBEMJIA@showCvar?$AA@ 300b5fcc     ui_shared.obj
 0002:00017fd8       ??_C@_0L@KGLELNDP@transition?$AA@ 300b5fd8     ui_shared.obj
 0002:00017fe4       ??_C@_07BELCMIIP@special?$AA@ 300b5fe4     ui_shared.obj
 0002:00017fec       ??_C@_07DFOFNCMO@setcvar?$AA@ 300b5fec     ui_shared.obj
 0002:00017ff4       ??_C@_05IAKJCFIM@style?$AA@ 300b5ff4     ui_shared.obj
 0002:00017ffc       ??_C@_0O@DOIJMEIF@setcvartocvar?$AA@ 300b5ffc     ui_shared.obj
 0002:0001800c       ??_C@_04CIMGMMMG@text?$AA@ 300b600c     ui_shared.obj
 0002:00018014       ??_C@_04MGEIEJAD@exec?$AA@ 300b6014     ui_shared.obj
 0002:0001801c       ??_C@_09PNBDGNCL@textalign?$AA@ 300b601c     ui_shared.obj
 0002:00018028       ??_C@_04GBHMDDO@play?$AA@  300b6028     ui_shared.obj
 0002:00018030       ??_C@_0L@ELKHBJND@textalignx?$AA@ 300b6030     ui_shared.obj
 0002:0001803c       ??_C@_0L@NDOCJLDE@playlooped?$AA@ 300b603c     ui_shared.obj
 0002:00018048       ??_C@_0L@FCLMCIJC@textaligny?$AA@ 300b6048     ui_shared.obj
 0002:00018054       ??_C@_05KJPHCDKJ@orbit?$AA@ 300b6054     ui_shared.obj
 0002:0001805c       ??_C@_09BLEIEHKP@textscale?$AA@ 300b605c     ui_shared.obj
 0002:00018068       ??_C@_05MHMEBBGO@scale?$AA@ 300b6068     ui_shared.obj
 0002:00018070       ??_C@_09FMCFHDEN@textstyle?$AA@ 300b6070     ui_shared.obj
 0002:0001807c       ??_C@_05JPFPPFDI@text2?$AA@ 300b607c     ui_shared.obj
 0002:00018084       ??_C@_05MBNCFBEN@defer?$AA@ 300b6084     ui_shared.obj
 0002:0001808c       ??_C@_0M@MIFHPNPG@text2alignx?$AA@ 300b608c     ui_shared.obj
 0002:00018098       ??_C@_0M@CIHCAJBI@rundeferred?$AA@ 300b6098     ui_shared.obj
 0002:000180a4       ??_C@_0M@NBEMMMLH@text2aligny?$AA@ 300b60a4     ui_shared.obj
 0002:000180b0       ??_C@_0M@FLLAMNPB@transition2?$AA@ 300b60b0     ui_shared.obj
 0002:000180bc       ??_C@_09OHPGAJCO@playvoice?$AA@ 300b60bc     ui_shared.obj
 0002:000180c8       ??_C@_07DPDAEJMK@visible?$AA@ 300b60c8     ui_shared.obj
 0002:000180d0       ??_C@_07FJHHECNJ@wrapped?$AA@ 300b60d0     ui_shared.obj
 0002:000180d8       ??_C@_0N@NGJINDLF@maxLineChars?$AA@ 300b60d8     ui_shared.obj
 0002:000180e8       ??_C@_0L@PPHHMIKE@lineHeight?$AA@ 300b60e8     ui_shared.obj
 0002:000180f4       ??_C@_0M@IMNLLLNC@invertyesno?$AA@ 300b60f4     ui_shared.obj
 0002:00018100       ??_C@_0N@OJPOMGGP@scrollhidden?$AA@ 300b6100     ui_shared.obj
 0002:00018110       ??_C@_09GCPJPMCM@xoffset?7?7?$AA@ 300b6110     ui_shared.obj
 0002:0001811c       ??_C@_0O@IEMOPEEA@cvarSubString?$AA@ 300b611c     ui_shared.obj
 0002:0001812c       ??_C@_08GFFBPDLD@?$CLbutton2?$AA@ 300b612c     ui_shared.obj
 0002:00018138       ??_C@_06JIDIHCBO@?$CLspeed?$AA@ 300b6138     ui_shared.obj
 0002:00018140       ??_C@_08KKEOHAPB@?$CLforward?$AA@ 300b6140     ui_shared.obj
 0002:0001814c       ??_C@_05IPKGNIPH@?$CLback?$AA@ 300b614c     ui_shared.obj
 0002:00018154       ??_C@_09IPJNFGKP@?$CLmoveleft?$AA@ 300b6154     ui_shared.obj
 0002:00018160       ??_C@_0L@FMBJCMEG@?$CLmoveright?$AA@ 300b6160     ui_shared.obj
 0002:0001816c       ??_C@_07CKGNAPCP@?$CLmoveup?$AA@ 300b616c     ui_shared.obj
 0002:00018174       ??_C@_09HNJJMOJG@?$CLmovedown?$AA@ 300b6174     ui_shared.obj
 0002:00018180       ??_C@_05HEGFDNLE@?$CLleft?$AA@ 300b6180     ui_shared.obj
 0002:00018188       ??_C@_06NGIHBNMB@?$CLright?$AA@ 300b6188     ui_shared.obj
 0002:00018190       ??_C@_07CHKKNAEO@?$CLstrafe?$AA@ 300b6190     ui_shared.obj
 0002:00018198       ??_C@_07BDFIGFL@?$CLlookup?$AA@ 300b6198     ui_shared.obj
 0002:000181a0       ??_C@_09KCKOGCLI@?$CLlookdown?$AA@ 300b61a0     ui_shared.obj
 0002:000181ac       ??_C@_06OBEGBCAL@?$CLmlook?$AA@ 300b61ac     ui_shared.obj
 0002:000181b4       ??_C@_0L@FHIBDANG@centerview?$AA@ 300b61b4     ui_shared.obj
 0002:000181c0       ??_C@_08NFHIAPM@weapon?51?$AA@ 300b61c0     ui_shared.obj
 0002:000181cc       ??_C@_08CGHKNDDP@weapon?52?$AA@ 300b61cc     ui_shared.obj
 0002:000181d8       ??_C@_08DPGBOCHO@weapon?53?$AA@ 300b61d8     ui_shared.obj
 0002:000181e4       ??_C@_08HACAHELJ@weapon?54?$AA@ 300b61e4     ui_shared.obj
 0002:000181f0       ??_C@_08GJDLEFPI@weapon?55?$AA@ 300b61f0     ui_shared.obj
 0002:000181fc       ??_C@_08ECBGBGDL@weapon?56?$AA@ 300b61fc     ui_shared.obj
 0002:00018208       ??_C@_08FLANCHHK@weapon?57?$AA@ 300b6208     ui_shared.obj
 0002:00018214       ??_C@_08NMJFDLLF@weapon?58?$AA@ 300b6214     ui_shared.obj
 0002:00018220       ??_C@_08MFIOAKPE@weapon?59?$AA@ 300b6220     ui_shared.obj
 0002:0001822c       ??_C@_09GLEANPEE@weapon?510?$AA@ 300b622c     ui_shared.obj
 0002:00018238       ??_C@_09HCFLOOAF@weapon?511?$AA@ 300b6238     ui_shared.obj
 0002:00018244       ??_C@_09FJHGLNMG@weapon?512?$AA@ 300b6244     ui_shared.obj
 0002:00018250       ??_C@_09EAGNIMIH@weapon?513?$AA@ 300b6250     ui_shared.obj
 0002:0001825c       ??_C@_07MAODEHGM@?$CLattack?$AA@ 300b625c     ui_shared.obj
 0002:00018264       ??_C@_0L@GDIPNNOO@?$CLaltattack?$AA@ 300b6264     ui_shared.obj
 0002:00018270       ??_C@_04JNBAAPLC@?$CLuse?$AA@ 300b6270     ui_shared.obj
 0002:00018278       ??_C@_05CPCHEFAA@taunt?$AA@ 300b6278     ui_shared.obj
 0002:00018280       ??_C@_03GMGBHMEH@bow?$AA@  300b6280     ui_shared.obj
 0002:00018284       ??_C@_08LIGJJMBO@meditate?$AA@ 300b6284     ui_shared.obj
 0002:00018290       ??_C@_08KJHFDKHF@flourish?$AA@ 300b6290     ui_shared.obj
 0002:0001829c       ??_C@_05GGANABEC@gloat?$AA@ 300b629c     ui_shared.obj
 0002:000182a4       ??_C@_0P@NMPIEJIB@prevTeamMember?$AA@ 300b62a4     ui_shared.obj
 0002:000182b4       ??_C@_0P@GJIGAACM@nextTeamMember?$AA@ 300b62b4     ui_shared.obj
 0002:000182c4       ??_C@_09DIHAGAEB@nextOrder?$AA@ 300b62c4     ui_shared.obj
 0002:000182d0       ??_C@_0N@KJLGMAFH@confirmOrder?$AA@ 300b62d0     ui_shared.obj
 0002:000182e0       ??_C@_09PEFBKJOE@denyOrder?$AA@ 300b62e0     ui_shared.obj
 0002:000182ec       ??_C@_0M@PDBEJPDO@taskOffense?$AA@ 300b62ec     ui_shared.obj
 0002:000182f8       ??_C@_0M@JPJGJJPF@taskDefense?$AA@ 300b62f8     ui_shared.obj
 0002:00018304       ??_C@_0L@HNDPADH@taskPatrol?$AA@ 300b6304     ui_shared.obj
 0002:00018310       ??_C@_08OELCHPPI@taskCamp?$AA@ 300b6310     ui_shared.obj
 0002:0001831c       ??_C@_0L@HALHAPMG@taskFollow?$AA@ 300b631c     ui_shared.obj
 0002:00018328       ??_C@_0N@DNLIECKN@taskRetrieve?$AA@ 300b6328     ui_shared.obj
 0002:00018338       ??_C@_0L@JKHNIMGE@taskEscort?$AA@ 300b6338     ui_shared.obj
 0002:00018344       ??_C@_0M@NPBCACOK@taskOwnFlag?$AA@ 300b6344     ui_shared.obj
 0002:00018350       ??_C@_0M@HEJOPHDA@taskSuicide?$AA@ 300b6350     ui_shared.obj
 0002:0001835c       ??_C@_0BA@LAKLAIKA@tauntKillInsult?$AA@ 300b635c     ui_shared.obj
 0002:0001836c       ??_C@_0M@FHJJKLIB@tauntPraise?$AA@ 300b636c     ui_shared.obj
 0002:00018378       ??_C@_0L@OFGCNOGN@tauntTaunt?$AA@ 300b6378     ui_shared.obj
 0002:00018384       ??_C@_0BB@DHLHLJJP@tauntDeathInsult?$AA@ 300b6384     ui_shared.obj
 0002:00018398       ??_C@_0O@BNPKDDEF@tauntGauntlet?$AA@ 300b6398     ui_shared.obj
 0002:000183a8       ??_C@_0M@JINOELJH@messagemode?$AA@ 300b63a8     ui_shared.obj
 0002:000183b4       ??_C@_0N@IDIDIMNN@messagemode2?$AA@ 300b63b4     ui_shared.obj
 0002:000183c4       ??_C@_0N@JKJILNJM@messagemode3?$AA@ 300b63c4     ui_shared.obj
 0002:000183d4       ??_C@_0N@NFNJCLFL@messagemode4?$AA@ 300b63d4     ui_shared.obj
 0002:000183e4       ??_C@_0M@DBDAMOEM@?$CLforce_jump?$AA@ 300b63e4     ui_shared.obj
 0002:000183f0       ??_C@_0M@FDHOJKJI@?$CLforce_grip?$AA@ 300b63f0     ui_shared.obj
 0002:000183fc       ??_C@_0BB@PDNGOECE@?$CLforce_lightning?$AA@ 300b63fc     ui_shared.obj
 0002:00018410       ??_C@_0N@FFCOOBHL@?$CLforce_drain?$AA@ 300b6410     ui_shared.obj
 0002:00018420       ??_C@_09LMEPJCFC@?$CLuseforce?$AA@ 300b6420     ui_shared.obj
 0002:0001842c       ??_C@_09OPNKCLNO@backcolor?$AA@ 300b642c     ui_shared.obj
 0002:00018438       ??_C@_0BB@IOOMJMJB@cg_thirdperson?5?$CB?$AA@ 300b6438     ui_shared.obj
 0002:0001844c       ??_C@_0P@FDFCLGNA@automap_button?$AA@ 300b644c     ui_shared.obj
 0002:0001845c       ??_C@_0P@HBEPEMGI@automap_toggle?$AA@ 300b645c     ui_shared.obj
 0002:0001846c       ??_C@_09MONNBKNO@forecolor?$AA@ 300b646c     ui_shared.obj
 0002:00018478       ??_C@_09GLHNJALG@voicechat?$AA@ 300b6478     ui_shared.obj
 0002:00018484       ??_C@_09LNDLFJON@?$CLbutton12?$AA@ 300b6484     ui_shared.obj
 0002:00018490       ??_C@_09KECAGIKM@?$CLbutton13?$AA@ 300b6490     ui_shared.obj
 0002:0001849c       ??_C@_0M@CJNAABJD@bordercolor?$AA@ 300b649c     ui_shared.obj
 0002:000184a8       ??_C@_09OLGBPOGL@?$CLbutton14?$AA@ 300b64a8     ui_shared.obj
 0002:000184d8       ??_C@_0BE@MBDLAKDH@appearanceIncrement?$AA@ 300b64d8     ui_shared.obj
 0002:000184ec       ??_C@_0L@NBMNMLHL@borderSize?$AA@ 300b64ec     ui_shared.obj
 0002:000184f8       ??_C@_0O@COCPBLJA@descAlignment?$AA@ 300b64f8     ui_shared.obj
 0002:00018508       ??_C@_09PAHMHFNJ@desccolor?$AA@ 300b6508     ui_shared.obj
 0002:00018514       ??_C@_05MNPDEGHK@descX?$AA@ 300b6514     ui_shared.obj
 0002:0001851c       ??_C@_05NEOIHHDL@descY?$AA@ 300b651c     ui_shared.obj
 0002:00018524       ??_C@_09MEFJHNGH@descScale?$AA@ 300b6524     ui_shared.obj
 0002:00018530       ??_C@_0N@EEPADJLO@disablecolor?$AA@ 300b6530     ui_shared.obj
 0002:00018540       ??_C@_0L@OKFLOHAM@focuscolor?$AA@ 300b6540     ui_shared.obj
 0002:0001854c       ??_C@_0L@GIACNHMO@fullscreen?$AA@ 300b654c     ui_shared.obj
 0002:00018558       ??_C@_07BNAIEIKL@itemDef?$AA@ 300b6558     ui_shared.obj
 0002:00018560       ??_C@_07LAOJOJAJ@onClose?$AA@ 300b6560     ui_shared.obj
 0002:00018568       ??_C@_08POJJMKJK@onAccept?$AA@ 300b6568     ui_shared.obj
 0002:00018574       ??_C@_05IIPJAONP@onESC?$AA@ 300b6574     ui_shared.obj
 0002:0001857c       ??_C@_0BB@FOHPFLED@outOfBoundsClick?$AA@ 300b657c     ui_shared.obj
 0002:00018590       ??_C@_06CJGNFCEB@onOpen?$AA@ 300b6590     ui_shared.obj
 0002:00018598       ??_C@_05EIEHMANA@popup?$AA@ 300b6598     ui_shared.obj
 0002:000185a0       ??_C@_06GEEPENGB@feeder?$AA@ 300b65a0     ui_shared.obj
 0002:000185a8       ??_C@_0BA@NNDAHIHE@WINDOW_INACTIVE?$AA@ 300b65a8     ui_shared.obj
 0002:000185b8       ??_C@_0BD@BJJNFIHK@WINDOW_STYLE_EMPTY?$AA@ 300b65b8     ui_shared.obj
 0002:000185cc       ??_C@_0BE@KLCEIIBH@WINDOW_STYLE_FILLED?$AA@ 300b65cc     ui_shared.obj
 0002:000185e0       ??_C@_0BG@IEFBEMMN@WINDOW_STYLE_GRADIENT?$AA@ 300b65e0     ui_shared.obj
 0002:000185f8       ??_C@_0BE@HECCLBFC@WINDOW_STYLE_SHADER?$AA@ 300b65f8     ui_shared.obj
 0002:0001860c       ??_C@_0BH@KNCNDPMK@WINDOW_STYLE_TEAMCOLOR?$AA@ 300b660c     ui_shared.obj
 0002:00018624       ??_C@_0BH@CDGHPFEH@WINDOW_STYLE_CINEMATIC?$AA@ 300b6624     ui_shared.obj
 0002:0001863c       ??_C@_0BA@CFDMPPCB@ITEM_ALIGN_LEFT?$AA@ 300b663c     ui_shared.obj
 0002:0001864c       ??_C@_0BC@JJHJJEIH@ITEM_ALIGN_CENTER?$AA@ 300b664c     ui_shared.obj
 0002:00018660       ??_C@_0BB@MDDHAHGK@ITEM_ALIGN_RIGHT?$AA@ 300b6660     ui_shared.obj
 0002:00018674       ??_C@_0P@ECMIINLB@ITEM_TYPE_TEXT?$AA@ 300b6674     ui_shared.obj
 0002:00018684       ??_C@_0BB@LJMDMMLE@ITEM_TYPE_BUTTON?$AA@ 300b6684     ui_shared.obj
 0002:00018698       ??_C@_0BG@BAAHBGEB@ITEM_TYPE_RADIOBUTTON?$AA@ 300b6698     ui_shared.obj
 0002:000186b0       ??_C@_0BD@ILDGMNNN@ITEM_TYPE_CHECKBOX?$AA@ 300b66b0     ui_shared.obj
 0002:000186c4       ??_C@_0BE@MNNMOPPO@ITEM_TYPE_EDITFIELD?$AA@ 300b66c4     ui_shared.obj
 0002:000186d8       ??_C@_0BA@OAMKEKLA@ITEM_TYPE_COMBO?$AA@ 300b66d8     ui_shared.obj
 0002:000186e8       ??_C@_0BC@OFIOAFNP@ITEM_TYPE_LISTBOX?$AA@ 300b66e8     ui_shared.obj
 0002:000186fc       ??_C@_0BA@IJKKCBAM@ITEM_TYPE_MODEL?$AA@ 300b66fc     ui_shared.obj
 0002:0001870c       ??_C@_0BE@EAPBKGDL@ITEM_TYPE_OWNERDRAW?$AA@ 300b670c     ui_shared.obj
 0002:00018720       ??_C@_0BH@GLLADPJF@ITEM_TYPE_NUMERICFIELD?$AA@ 300b6720     ui_shared.obj
 0002:00018738       ??_C@_0BB@HPDKNELK@ITEM_TYPE_SLIDER?$AA@ 300b6738     ui_shared.obj
 0002:0001874c       ??_C@_0BA@LBOLKKCE@ITEM_TYPE_YESNO?$AA@ 300b674c     ui_shared.obj
 0002:0001875c       ??_C@_0BA@GNNLLMC@ITEM_TYPE_MULTI?$AA@ 300b675c     ui_shared.obj
 0002:0001876c       ??_C@_0P@LFNHJNLI@ITEM_TYPE_BIND?$AA@ 300b676c     ui_shared.obj
 0002:0001877c       ??_C@_0BF@GHBOAADB@ITEM_TYPE_TEXTSCROLL?$AA@ 300b677c     ui_shared.obj
 0002:00018794       ??_C@_0BE@GKLJFFMB@ITEM_TYPE_INTSLIDER?$AA@ 300b6794     ui_shared.obj
 0002:000187a8       ??_C@_06DDLLCOJG@action?$AA@ 300b67a8     ui_shared.obj
 0002:000187b0       ??_C@_0O@BGFKBLBI@addColorRange?$AA@ 300b67b0     ui_shared.obj
 0002:000187c0       ??_C@_05CBJPDLOK@align?$AA@ 300b67c0     ui_shared.obj
 0002:000187c8       ??_C@_0M@HHKOOJO@autowrapped?$AA@ 300b67c8     ui_shared.obj
 0002:000187d4       ??_C@_0BA@HJNHMKEG@appearance_slot?$AA@ 300b67d4     ui_shared.obj
 0002:000187e4       ??_C@_0M@DKAIGAGN@asset_model?$AA@ 300b67e4     ui_shared.obj
 0002:000187f0       ??_C@_0N@HLFJAKEA@asset_shader?$AA@ 300b67f0     ui_shared.obj
 0002:00018800       ??_C@_06ODFLABIG@border?$AA@ 300b6800     ui_shared.obj
 0002:00018808       ??_C@_0L@BAAMOEHP@bordersize?$AA@ 300b6808     ui_shared.obj
 0002:00018814       ??_C@_09DHDJHDLH@cinematic?$AA@ 300b6814     ui_shared.obj
 0002:00018820       ??_C@_07HIFEPIJN@columns?$AA@ 300b6820     ui_shared.obj
 0002:00018828       ??_C@_04PNAHEAFM@cvar?$AA@ 300b6828     ui_shared.obj
 0002:00018830       ??_C@_07OELNEAOA@cvarInt?$AA@ 300b6830     ui_shared.obj
 0002:00018838       ??_C@_09CGGKHKAP@cvarFloat?$AA@ 300b6838     ui_shared.obj
 0002:00018844       ??_C@_0O@IKNDJMDK@cvarFloatList?$AA@ 300b6844     ui_shared.obj
 0002:00018854       ??_C@_0M@GOKMFACI@cvarStrList?$AA@ 300b6854     ui_shared.obj
 0002:00018860       ??_C@_08KBIDCBHN@cvarTest?$AA@ 300b6860     ui_shared.obj
 0002:0001886c       ??_C@_08MCIJOGEA@desctext?$AA@ 300b686c     ui_shared.obj
 0002:00018878       ??_C@_0L@GFEIECKE@decoration?$AA@ 300b6878     ui_shared.obj
 0002:00018884       ??_C@_0M@FBHLBFCC@disableCvar?$AA@ 300b6884     ui_shared.obj
 0002:00018890       ??_C@_0M@IHJKFHF@doubleclick?$AA@ 300b6890     ui_shared.obj
 0002:0001889c       ??_C@_0O@MNJDKOBB@elementheight?$AA@ 300b689c     ui_shared.obj
 0002:000188ac       ??_C@_0M@HBNIAHKL@elementtype?$AA@ 300b68ac     ui_shared.obj
 0002:000188b8       ??_C@_0N@MILKKPGL@elementwidth?$AA@ 300b68b8     ui_shared.obj
 0002:000188c8       ??_C@_0L@LCDHKNEJ@enableCvar?$AA@ 300b68c8     ui_shared.obj
 0002:000188d4       ??_C@_04DNPGJOMD@flag?$AA@ 300b68d4     ui_shared.obj
 0002:000188dc       ??_C@_0L@NOGKCHFE@focusSound?$AA@ 300b68dc     ui_shared.obj
 0002:000188e8       ??_C@_05MGJOOGAJ@group?$AA@ 300b68e8     ui_shared.obj
 0002:000188f0       ??_C@_08BDDCOCNI@hideCvar?$AA@ 300b68f0     ui_shared.obj
 0002:000188fc       ??_C@_0BB@EIBMEDHI@horizontalscroll?$AA@ 300b68fc     ui_shared.obj
 0002:00018910       ??_C@_0M@JODFBNF@isCharacter?$AA@ 300b6910     ui_shared.obj
 0002:0001891c       ??_C@_07GEILFICD@isSaber?$AA@ 300b691c     ui_shared.obj
 0002:00018924       ??_C@_08EPHDKOFL@isSaber2?$AA@ 300b6924     ui_shared.obj
 0002:00018930       ??_C@_0L@LMAJDKOE@leaveFocus?$AA@ 300b6930     ui_shared.obj
 0002:0001893c       ??_C@_08IHGPPBOI@maxChars?$AA@ 300b693c     ui_shared.obj
 0002:00018948       ??_C@_0O@HPCOAMJM@maxPaintChars?$AA@ 300b6948     ui_shared.obj
 0002:00018958       ??_C@_0M@HHMGANAM@model_angle?$AA@ 300b6958     ui_shared.obj
 0002:00018964       ??_C@_0L@MFDDKKLB@model_fovx?$AA@ 300b6964     ui_shared.obj
 0002:00018970       ??_C@_0L@NMCIJLPA@model_fovy?$AA@ 300b6970     ui_shared.obj
 0002:0001897c       ??_C@_0N@LHLPLFLG@model_origin?$AA@ 300b697c     ui_shared.obj
 0002:0001898c       ??_C@_0CD@LBKPCJLM@UI_Alloc?3?5Failure?4?5Out?5of?5memory@ 300b698c     ui_shared.obj
 0002:000189b0       ??_C@_0BK@OKFEFFGN@?$FO1ERROR?3?5?$CFs?0?5line?5?$CFd?3?5?$CFs?6?$AA@ 300b69b0     ui_shared.obj
 0002:000189cc       ??_C@_0BN@CKJPOGNB@expected?5float?5but?5found?5?$CFs?6?$AA@ 300b69cc     ui_shared.obj
 0002:000189ec       ??_C@_0BP@FLADEANJ@expected?5integer?5but?5found?5?$CFs?6?$AA@ 300b69ec     ui_shared.obj
 0002:00018a0c       ??_C@_04OEDFLLKD@?$CC?$CFs?$CC?$AA@ 300b6a0c     ui_shared.obj
 0002:00018a14       ??_C@_0CL@IDBGDCGN@?$FO3WARNING?3?5item?5has?5neither?5name@ 300b6a14     ui_shared.obj
 0002:00018a40       ??_C@_03NFKEKGGK@all?$AA@  300b6a40     ui_shared.obj
 0002:00018a44       ??_C@_0DD@ICNKGIM@?$FO3WARNING?3?5Script_Transition2?3?5e@ 300b6a44     ui_shared.obj
 0002:00018a78       ??_C@_04HIDEMJAH@vstr?$AA@ 300b6a78     ui_shared.obj
 0002:00018a80       ??_C@_0O@NAIAAIEJ@maptransition?$AA@ 300b6a80     ui_shared.obj
 0002:00018a90       ??_C@_06CICODAJE@map?5?$CFs?$AA@ 300b6a90     ui_shared.obj
 0002:00018a98       ??_C@_05LKKGNBCL@?$CFs?5?$DL?5?$AA@ 300b6a98     ui_shared.obj
 0002:00018aa0       ??_C@_0M@FHKEBODE@screenshot?6?$AA@ 300b6aa0     ui_shared.obj
 0002:00018aac       ??_C@_0CH@JIJGKJHM@Could?5not?5find?5?8?$CFs?8?5in?5the?5anim?5@ 300b6aac     ui_shared.obj
 0002:00018ad4       ??_C@_0CA@MBEPFCBH@?$FO3Unknown?5item?5style?5value?5?8?$CFs?8?$AA@ 300b6ad4     ui_shared.obj
 0002:00018af4       ??_C@_0BL@LEGNDHIH@?$FO3Unknown?5item?5style?5value?$AA@ 300b6af4     ui_shared.obj
 0002:00018b10       ??_C@_0BP@JDCINHG@?$FO3Unknown?5text?5alignment?5value?$AA@ 300b6b10     ui_shared.obj
 0002:00018b30       ??_C@_0BO@GKGLOPGG@end?5of?5file?5inside?5menu?5item?6?$AA@ 300b6b30     ui_shared.obj
 0002:00018b50       ??_C@_0BN@JHFMAPJL@unknown?5menu?5item?5keyword?5?$CFs?$AA@ 300b6b50     ui_shared.obj
 0002:00018b70       ??_C@_0CE@OIGKMGKE@couldn?8t?5parse?5menu?5item?5keyword@ 300b6b70     ui_shared.obj
 0002:00018b94       ??_C@_04GJDJEMBE@?$CFc?$CFc?$AA@ 300b6b94     ui_shared.obj
 0002:00018b9c       ??_C@_02HAOIJKIC@?$CFc?$AA@ 300b6b9c     ui_shared.obj
 0002:00018ba0       ??_C@_04GHJNJNPO@main?$AA@ 300b6ba0     ui_shared.obj
 0002:00018ba8       ??_C@_0BL@EDFDLOD@?$FO3Unknown?5menu?5style?5value?$AA@ 300b6ba8     ui_shared.obj
 0002:00018bc4       ??_C@_0CA@IBHJGPHG@?$FO3Unknown?5desc?5alignment?5value?6?$AA@ 300b6bc4     ui_shared.obj
 0002:00018be4       ??_C@_0BJ@MPIMCBOA@end?5of?5file?5inside?5menu?6?$AA@ 300b6be4     ui_shared.obj
 0002:00018c00       ??_C@_0BI@PALCAEGK@unknown?5menu?5keyword?5?$CFs?$AA@ 300b6c00     ui_shared.obj
 0002:00018c18       ??_C@_0BP@HJCDHJDP@couldn?8t?5parse?5menu?5keyword?5?$CFs?$AA@ 300b6c18     ui_shared.obj
 0002:00018c38       __real@4040000000000000    300b6c38     ui_shared.obj
 0002:00018c40       __real@4058000000000000    300b6c40     ui_shared.obj
 0002:00018c48       __real@41980000            300b6c48     ui_shared.obj
 0002:00018c4c       __FPinit                   300b6c4c     LIBCMT:fpinit.obj
 0002:00020640       __OP_FMODjmptab            300be640     LIBCMT:87fmod.obj
 0002:00020690       __pRawDllMain              300be690     LIBCMT:dllcrt0.obj
 0002:00020690       __pDefaultRawDllMain       300be690     LIBCMT:dllcrt0.obj
 0002:00020694       ??_C@_05KLBDPFGC@e?$CL000?$AA@ 300be694     LIBCMT:cvt.obj
 0002:000206ac       ??_C@_1M@HPNHIDJI@?$AAj?$AAa?$AA?9?$AAJ?$AAP?$AA?$AA@ 300be6ac     LIBCMT:mbctype.obj
 0002:000206b8       ??_C@_1M@BIBDDEMK@?$AAz?$AAh?$AA?9?$AAC?$AAN?$AA?$AA@ 300be6b8     LIBCMT:mbctype.obj
 0002:000206c4       ??_C@_1M@JLOOOEGK@?$AAk?$AAo?$AA?9?$AAK?$AAR?$AA?$AA@ 300be6c4     LIBCMT:mbctype.obj
 0002:000206d0       ??_C@_1M@CLNBBOPM@?$AAz?$AAh?$AA?9?$AAT?$AAW?$AA?$AA@ 300be6d0     LIBCMT:mbctype.obj
 0002:000206dc       ??_C@_03KOEHGMDN@Sun?$AA@  300be6dc     LIBCMT:nlsdata.obj
 0002:000206e0       ??_C@_03PDAGKDH@Mon?$AA@   300be6e0     LIBCMT:nlsdata.obj
 0002:000206e4       ??_C@_03NAGEINEP@Tue?$AA@  300be6e4     LIBCMT:nlsdata.obj
 0002:000206e8       ??_C@_03MHOMLAJA@Wed?$AA@  300be6e8     LIBCMT:nlsdata.obj
 0002:000206ec       ??_C@_03IOFIKPDN@Thu?$AA@  300be6ec     LIBCMT:nlsdata.obj
 0002:000206f0       ??_C@_03IDIOELNC@Fri?$AA@  300be6f0     LIBCMT:nlsdata.obj
 0002:000206f4       ??_C@_03FEFJNEK@Sat?$AA@   300be6f4     LIBCMT:nlsdata.obj
 0002:000206f8       ??_C@_06OOPIFAJ@Sunday?$AA@ 300be6f8     LIBCMT:nlsdata.obj
 0002:00020700       ??_C@_06JLEDEDGH@Monday?$AA@ 300be700     LIBCMT:nlsdata.obj
 0002:00020708       ??_C@_07BAAGCFCM@Tuesday?$AA@ 300be708     LIBCMT:nlsdata.obj
 0002:00020710       ??_C@_09DLIGFAKA@Wednesday?$AA@ 300be710     LIBCMT:nlsdata.obj
 0002:0002071c       ??_C@_08HACCIKIA@Thursday?$AA@ 300be71c     LIBCMT:nlsdata.obj
 0002:00020728       ??_C@_06JECMNKMI@Friday?$AA@ 300be728     LIBCMT:nlsdata.obj
 0002:00020730       ??_C@_08INBOOONO@Saturday?$AA@ 300be730     LIBCMT:nlsdata.obj
 0002:0002073c       ??_C@_03HJBDCHOM@Feb?$AA@  300be73c     LIBCMT:nlsdata.obj
 0002:00020740       ??_C@_03ODNJBKGA@Mar?$AA@  300be740     LIBCMT:nlsdata.obj
 0002:00020744       ??_C@_03LEOLGMJP@Apr?$AA@  300be744     LIBCMT:nlsdata.obj
 0002:00020748       ??_C@_03CNMDKL@May?$AA@    300be748     LIBCMT:nlsdata.obj
 0002:0002074c       ??_C@_03IDFGHECI@Jun?$AA@  300be74c     LIBCMT:nlsdata.obj
 0002:00020750       ??_C@_03LBGABGKK@Jul?$AA@  300be750     LIBCMT:nlsdata.obj
 0002:00020754       ??_C@_03IFJFEIGA@Aug?$AA@  300be754     LIBCMT:nlsdata.obj
 0002:00020758       ??_C@_03GGCAPAJC@Sep?$AA@  300be758     LIBCMT:nlsdata.obj
 0002:0002075c       ??_C@_03BMAOKBAD@Oct?$AA@  300be75c     LIBCMT:nlsdata.obj
 0002:00020760       ??_C@_03JPJOFNIA@Nov?$AA@  300be760     LIBCMT:nlsdata.obj
 0002:00020764       ??_C@_03MKABNOCG@Dec?$AA@  300be764     LIBCMT:nlsdata.obj
 0002:00020768       ??_C@_07CGJPFGJA@January?$AA@ 300be768     LIBCMT:nlsdata.obj
 0002:00020770       ??_C@_08GNJGEPFN@February?$AA@ 300be770     LIBCMT:nlsdata.obj
 0002:0002077c       ??_C@_05HPCKOFNC@March?$AA@ 300be77c     LIBCMT:nlsdata.obj
 0002:00020784       ??_C@_05DMJDNLEJ@April?$AA@ 300be784     LIBCMT:nlsdata.obj
 0002:0002078c       ??_C@_04CNLMGBGM@June?$AA@ 300be78c     LIBCMT:nlsdata.obj
 0002:00020794       ??_C@_04MIEPOIFP@July?$AA@ 300be794     LIBCMT:nlsdata.obj
 0002:0002079c       ??_C@_06LBBHFDDG@August?$AA@ 300be79c     LIBCMT:nlsdata.obj
 0002:000207a4       ??_C@_09BHHEALKD@September?$AA@ 300be7a4     LIBCMT:nlsdata.obj
 0002:000207b0       ??_C@_07JJNFCEND@October?$AA@ 300be7b0     LIBCMT:nlsdata.obj
 0002:000207b8       ??_C@_08HCHEGEOA@November?$AA@ 300be7b8     LIBCMT:nlsdata.obj
 0002:000207c4       ??_C@_08EDHMEBNP@December?$AA@ 300be7c4     LIBCMT:nlsdata.obj
 0002:000207d0       ??_C@_02DEDBPAFC@AM?$AA@   300be7d0     LIBCMT:nlsdata.obj
 0002:000207d4       ??_C@_02CJNFDJBF@PM?$AA@   300be7d4     LIBCMT:nlsdata.obj
 0002:000207d8       ??_C@_08BPBNCDIB@MM?1dd?1yy?$AA@ 300be7d8     LIBCMT:nlsdata.obj
 0002:000207e4       ??_C@_0BE@CKGJFCPC@dddd?0?5MMMM?5dd?0?5yyyy?$AA@ 300be7e4     LIBCMT:nlsdata.obj
 0002:000207f8       ??_C@_08JCCMCCIL@HH?3mm?3ss?$AA@ 300be7f8     LIBCMT:nlsdata.obj
 0002:00020804       ??_C@_17MBGCMIPB@?$AAS?$AAu?$AAn?$AA?$AA@ 300be804     LIBCMT:nlsdata.obj
 0002:0002080c       ??_C@_17KBOMKBF@?$AAM?$AAo?$AAn?$AA?$AA@ 300be80c     LIBCMT:nlsdata.obj
 0002:00020814       ??_C@_17BMKGEGOJ@?$AAT?$AAu?$AAe?$AA?$AA@ 300be814     LIBCMT:nlsdata.obj
 0002:0002081c       ??_C@_17CJEDCEPE@?$AAW?$AAe?$AAd?$AA?$AA@ 300be81c     LIBCMT:nlsdata.obj
 0002:00020824       ??_C@_17PDPHAADD@?$AAT?$AAh?$AAu?$AA?$AA@ 300be824     LIBCMT:nlsdata.obj
 0002:0002082c       ??_C@_17HFOLPPLP@?$AAF?$AAr?$AAi?$AA?$AA@ 300be82c     LIBCMT:nlsdata.obj
 0002:00020834       ??_C@_17GGIBDPIH@?$AAS?$AAa?$AAt?$AA?$AA@ 300be834     LIBCMT:nlsdata.obj
 0002:0002083c       ??_C@_1O@IHNHDHPB@?$AAS?$AAu?$AAn?$AAd?$AAa?$AAy?$AA?$AA@ 300be83c     LIBCMT:nlsdata.obj
 0002:0002084c       ??_C@_1O@MMNBFLIA@?$AAM?$AAo?$AAn?$AAd?$AAa?$AAy?$AA?$AA@ 300be84c     LIBCMT:nlsdata.obj
 0002:0002085c       ??_C@_1BA@ENFBFFEK@?$AAT?$AAu?$AAe?$AAs?$AAd?$AAa?$AAy?$AA?$AA@ 300be85c     LIBCMT:nlsdata.obj
 0002:0002086c       ??_C@_1BE@EBOGMDOH@?$AAW?$AAe?$AAd?$AAn?$AAe?$AAs?$AAd?$AAa?$AAy?$AA?$AA@ 300be86c     LIBCMT:nlsdata.obj
 0002:00020880       ??_C@_1BC@HHMNLIHE@?$AAT?$AAh?$AAu?$AAr?$AAs?$AAd?$AAa?$AAy?$AA?$AA@ 300be880     LIBCMT:nlsdata.obj
 0002:00020894       ??_C@_1O@PDICJHAG@?$AAF?$AAr?$AAi?$AAd?$AAa?$AAy?$AA?$AA@ 300be894     LIBCMT:nlsdata.obj
 0002:000208a4       ??_C@_1BC@ENMNNPAJ@?$AAS?$AAa?$AAt?$AAu?$AAr?$AAd?$AAa?$AAy?$AA?$AA@ 300be8a4     LIBCMT:nlsdata.obj
 0002:000208b8       ??_C@_17DKNBKCHM@?$AAJ?$AAa?$AAn?$AA?$AA@ 300be8b8     LIBCMT:nlsdata.obj
 0002:000208c0       ??_C@_17LMDJEKJN@?$AAF?$AAe?$AAb?$AA?$AA@ 300be8c0     LIBCMT:nlsdata.obj
 0002:000208c8       ??_C@_17CKNLEDEC@?$AAM?$AAa?$AAr?$AA?$AA@ 300be8c8     LIBCMT:nlsdata.obj
 0002:000208d0       ??_C@_17LFPOIHDD@?$AAA?$AAp?$AAr?$AA?$AA@ 300be8d0     LIBCMT:nlsdata.obj
 0002:000208d8       ??_C@_17PNNKMEED@?$AAM?$AAa?$AAy?$AA?$AA@ 300be8d8     LIBCMT:nlsdata.obj
 0002:000208e0       ??_C@_17KCJGOCPB@?$AAJ?$AAu?$AAn?$AA?$AA@ 300be8e0     LIBCMT:nlsdata.obj
 0002:000208e8       ??_C@_17IJPCKHK@?$AAJ?$AAu?$AAl?$AA?$AA@ 300be8e8     LIBCMT:nlsdata.obj
 0002:000208f0       ??_C@_17ICPELBCN@?$AAA?$AAu?$AAg?$AA?$AA@ 300be8f0     LIBCMT:nlsdata.obj
 0002:000208f8       ??_C@_17HCHCOKMG@?$AAS?$AAe?$AAp?$AA?$AA@ 300be8f8     LIBCMT:nlsdata.obj
 0002:00020900       ??_C@_17FNLKOI@?$AAO?$AAc?$AAt?$AA?$AA@ 300be900     LIBCMT:nlsdata.obj
 0002:00020908       ??_C@_17BBDMLCIG@?$AAN?$AAo?$AAv?$AA?$AA@ 300be908     LIBCMT:nlsdata.obj
 0002:00020910       ??_C@_17EGKACKIF@?$AAD?$AAe?$AAc?$AA?$AA@ 300be910     LIBCMT:nlsdata.obj
 0002:00020918       ??_C@_1BA@EFMEIEBA@?$AAJ?$AAa?$AAn?$AAu?$AAa?$AAr?$AAy?$AA?$AA@ 300be918     LIBCMT:nlsdata.obj
 0002:00020928       ??_C@_1BC@JGDDFFAM@?$AAF?$AAe?$AAb?$AAr?$AAu?$AAa?$AAr?$AAy?$AA?$AA@ 300be928     LIBCMT:nlsdata.obj
 0002:0002093c       ??_C@_1M@IKEENEDF@?$AAM?$AAa?$AAr?$AAc?$AAh?$AA?$AA@ 300be93c     LIBCMT:nlsdata.obj
 0002:00020948       ??_C@_1M@GJNLMHFD@?$AAA?$AAp?$AAr?$AAi?$AAl?$AA?$AA@ 300be948     LIBCMT:nlsdata.obj
 0002:00020954       ??_C@_19EPFLPGAP@?$AAJ?$AAu?$AAn?$AAe?$AA?$AA@ 300be954     LIBCMT:nlsdata.obj
 0002:00020960       ??_C@_19BIFMLPCD@?$AAJ?$AAu?$AAl?$AAy?$AA?$AA@ 300be960     LIBCMT:nlsdata.obj
 0002:0002096c       ??_C@_1O@PAHLKOAC@?$AAA?$AAu?$AAg?$AAu?$AAs?$AAt?$AA?$AA@ 300be96c     LIBCMT:nlsdata.obj
 0002:0002097c       ??_C@_1BE@DKAAMBJL@?$AAS?$AAe?$AAp?$AAt?$AAe?$AAm?$AAb?$AAe?$AAr?$AA?$AA@ 300be97c     LIBCMT:nlsdata.obj
 0002:00020990       ??_C@_1BA@EPANDLNG@?$AAO?$AAc?$AAt?$AAo?$AAb?$AAe?$AAr?$AA?$AA@ 300be990     LIBCMT:nlsdata.obj
 0002:000209a0       ??_C@_1BC@BGLIFPF@?$AAN?$AAo?$AAv?$AAe?$AAm?$AAb?$AAe?$AAr?$AA?$AA@ 300be9a0     LIBCMT:nlsdata.obj
 0002:000209b4       ??_C@_1BC@FEMKIFH@?$AAD?$AAe?$AAc?$AAe?$AAm?$AAb?$AAe?$AAr?$AA?$AA@ 300be9b4     LIBCMT:nlsdata.obj
 0002:000209c8       ??_C@_15ODEHAHHF@?$AAA?$AAM?$AA?$AA@ 300be9c8     LIBCMT:nlsdata.obj
 0002:000209d0       ??_C@_15CLMNNGEL@?$AAP?$AAM?$AA?$AA@ 300be9d0     LIBCMT:nlsdata.obj
 0002:000209d8       ??_C@_1BC@IEBCMHCM@?$AAM?$AAM?$AA?1?$AAd?$AAd?$AA?1?$AAy?$AAy?$AA?$AA@ 300be9d8     LIBCMT:nlsdata.obj
 0002:000209ec       ??_C@_1CI@KNAKOEBC@?$AAd?$AAd?$AAd?$AAd?$AA?0?$AA?5?$AAM?$AAM?$AAM?$AAM?$AA?5?$AAd?$AAd?$AA?0?$AA?5?$AAy?$AAy?$AAy?$AAy?$AA?$AA@ 300be9ec     LIBCMT:nlsdata.obj
 0002:00020a14       ??_C@_1BC@GDGBMEMK@?$AAH?$AAH?$AA?3?$AAm?$AAm?$AA?3?$AAs?$AAs?$AA?$AA@ 300bea14     LIBCMT:nlsdata.obj
 0002:00020a28       ??_C@_1M@BMHNFIME@?$AAe?$AAn?$AA?9?$AAU?$AAS?$AA?$AA@ 300bea28     LIBCMT:nlsdata.obj
 0002:00020a40       __OP_ATAN2jmptab           300bea40     LIBCMT:87triga.obj
 0002:00020b28       ??_C@_03MGHMBJCF@log?$AA@  300beb28     LIBCMT:libm_error.obj
 0002:00020b2c       ??_C@_05HGHHAHAP@log10?$AA@ 300beb2c     LIBCMT:libm_error.obj
 0002:00020b34       ??_C@_03KHJOGHMM@exp?$AA@  300beb34     LIBCMT:libm_error.obj
 0002:00020b38       ??_C@_03JGHBODFD@pow?$AA@  300beb38     LIBCMT:libm_error.obj
 0002:00020b3c       ??_C@_04FIHNOPOL@asin?$AA@ 300beb3c     LIBCMT:libm_error.obj
 0002:00020b44       ??_C@_04PDIFKINK@acos?$AA@ 300beb44     LIBCMT:libm_error.obj
 0002:00020b4c       ??_C@_05EOHGHCHD@exp10?$AA@ 300beb4c     LIBCMT:libm_error.obj
 0002:00020b54       ??_C@_04MLLJIGOK@atan?$AA@ 300beb54     LIBCMT:libm_error.obj
 0002:00020b5c       ??_C@_04GFPJNGEK@ceil?$AA@ 300beb5c     LIBCMT:libm_error.obj
 0002:00020b64       ??_C@_05PBJFFIGL@floor?$AA@ 300beb64     LIBCMT:libm_error.obj
 0002:00020b6c       ??_C@_04EHEDPDJG@modf?$AA@ 300beb6c     LIBCMT:libm_error.obj
 0002:00020b74       ??_C@_03BLEJJJBH@sin?$AA@  300beb74     LIBCMT:libm_error.obj
 0002:00020b78       ??_C@_03LALBNOCG@cos?$AA@  300beb78     LIBCMT:libm_error.obj
 0002:00020b7c       ??_C@_03IIINPABG@tan?$AA@  300beb7c     LIBCMT:libm_error.obj
 0002:00020b80       ??_C@_04EIAKFFMI@sqrt?$AA@ 300beb80     LIBCMT:libm_error.obj
 0002:00020c08       ??_C@_06OJHGLDPL@?$CInull?$CJ?$AA@ 300bec08     LIBCMT:output.obj
 0002:00020c10       ??_C@_1O@CEDCILHN@?$AA?$CI?$AAn?$AAu?$AAl?$AAl?$AA?$CJ?$AA?$AA@ 300bec10     LIBCMT:output.obj
 0002:00020c20       ___lookuptable             300bec20     LIBCMT:output.obj
 0002:00020c80       __indefinite               300bec80     LIBCMT:87disp.obj
 0002:00020c8a       __piby2                    300bec8a     LIBCMT:87disp.obj
 0002:00020cb0       __XcptActTab               300becb0     LIBCMT:winxfltr.obj
 0002:00020d40       __XcptActTabCount          300bed40     LIBCMT:winxfltr.obj
 0002:00020d44       __XcptActTabSize           300bed44     LIBCMT:winxfltr.obj
 0002:00020d48       __First_FPE_Indx           300bed48     LIBCMT:winxfltr.obj
 0002:00020d4c       __Num_FPE                  300bed4c     LIBCMT:winxfltr.obj
 0002:00020d50       ??_C@_1BI@BGOHAHKC@?$AAm?$AAs?$AAc?$AAo?$AAr?$AAe?$AAe?$AA?4?$AAd?$AAl?$AAl?$AA?$AA@ 300bed50     LIBCMT:crt0dat.obj
 0002:00020d68       ??_C@_0P@MIGLKIOC@CorExitProcess?$AA@ 300bed68     LIBCMT:crt0dat.obj
 0002:00020d78       ??_C@_1BK@MGMFAEKH@?$AAk?$AAe?$AAr?$AAn?$AAe?$AAl?$AA3?$AA2?$AA?4?$AAd?$AAl?$AAl?$AA?$AA@ 300bed78     LIBCMT:winapisupp.obj
 0002:00020d94       ??_C@_08KNHFBNJ@FlsAlloc?$AA@ 300bed94     LIBCMT:winapisupp.obj
 0002:00020da0       ??_C@_07PEJMOBNF@FlsFree?$AA@ 300beda0     LIBCMT:winapisupp.obj
 0002:00020da8       ??_C@_0M@GDNOONDI@FlsGetValue?$AA@ 300beda8     LIBCMT:winapisupp.obj
 0002:00020db4       ??_C@_0M@JCPCPOEF@FlsSetValue?$AA@ 300bedb4     LIBCMT:winapisupp.obj
 0002:00020dc0       ??_C@_0BM@HCFOFFN@InitializeCriticalSectionEx?$AA@ 300bedc0     LIBCMT:winapisupp.obj
 0002:00020ddc       ??_C@_0P@DLHPPCNH@CreateEventExW?$AA@ 300beddc     LIBCMT:winapisupp.obj
 0002:00020dec       ??_C@_0BD@KIEEOEEH@CreateSemaphoreExW?$AA@ 300bedec     LIBCMT:winapisupp.obj
 0002:00020e00       ??_C@_0BI@BKLFFAPO@SetThreadStackGuarantee?$AA@ 300bee00     LIBCMT:winapisupp.obj
 0002:00020e18       ??_C@_0BG@OGFAJCKC@CreateThreadpoolTimer?$AA@ 300bee18     LIBCMT:winapisupp.obj
 0002:00020e30       ??_C@_0BD@LPLEMMDI@SetThreadpoolTimer?$AA@ 300bee30     LIBCMT:winapisupp.obj
 0002:00020e44       ??_C@_0CA@FMNJENH@WaitForThreadpoolTimerCallbacks?$AA@ 300bee44     LIBCMT:winapisupp.obj
 0002:00020e64       ??_C@_0BF@DCFCCNOC@CloseThreadpoolTimer?$AA@ 300bee64     LIBCMT:winapisupp.obj
 0002:00020e7c       ??_C@_0BF@FLABGKKM@CreateThreadpoolWait?$AA@ 300bee7c     LIBCMT:winapisupp.obj
 0002:00020e94       ??_C@_0BC@MGCOHNA@SetThreadpoolWait?$AA@ 300bee94     LIBCMT:winapisupp.obj
 0002:00020ea8       ??_C@_0BE@OCIOMIMP@CloseThreadpoolWait?$AA@ 300beea8     LIBCMT:winapisupp.obj
 0002:00020ebc       ??_C@_0BJ@LKGHFHBO@FlushProcessWriteBuffers?$AA@ 300beebc     LIBCMT:winapisupp.obj
 0002:00020ed8       ??_C@_0BP@KALKKPMO@FreeLibraryWhenCallbackReturns?$AA@ 300beed8     LIBCMT:winapisupp.obj
 0002:00020ef8       ??_C@_0BK@DFNBACLA@GetCurrentProcessorNumber?$AA@ 300beef8     LIBCMT:winapisupp.obj
 0002:00020f14       ??_C@_0BP@KHGALBC@GetLogicalProcessorInformation?$AA@ 300bef14     LIBCMT:winapisupp.obj
 0002:00020f34       ??_C@_0BE@FKKLLFLM@CreateSymbolicLinkW?$AA@ 300bef34     LIBCMT:winapisupp.obj
 0002:00020f48       ??_C@_0BJ@OHNKDLIJ@SetDefaultDllDirectories?$AA@ 300bef48     LIBCMT:winapisupp.obj
 0002:00020f64       ??_C@_0BE@LJANKFHF@EnumSystemLocalesEx?$AA@ 300bef64     LIBCMT:winapisupp.obj
 0002:00020f78       ??_C@_0BA@IHGNDAEB@CompareStringEx?$AA@ 300bef78     LIBCMT:winapisupp.obj
 0002:00020f88       ??_C@_0BA@EPCJIIPD@GetDateFormatEx?$AA@ 300bef88     LIBCMT:winapisupp.obj
 0002:00020f98       ??_C@_0BA@ONOKGCMP@GetLocaleInfoEx?$AA@ 300bef98     LIBCMT:winapisupp.obj
 0002:00020fa8       ??_C@_0BA@CIJJKCJJ@GetTimeFormatEx?$AA@ 300befa8     LIBCMT:winapisupp.obj
 0002:00020fb8       ??_C@_0BJ@PBCCBIPI@GetUserDefaultLocaleName?$AA@ 300befb8     LIBCMT:winapisupp.obj
 0002:00020fd4       ??_C@_0BC@CELBKLLA@IsValidLocaleName?$AA@ 300befd4     LIBCMT:winapisupp.obj
 0002:00020fe8       ??_C@_0O@KKBNKAPF@LCMapStringEx?$AA@ 300befe8     LIBCMT:winapisupp.obj
 0002:00020ff8       ??_C@_0BE@JOGNEJCI@GetCurrentPackageId?$AA@ 300beff8     LIBCMT:winapisupp.obj
 0002:0002100c       ??_C@_0P@CDHHOHKP@GetTickCount64?$AA@ 300bf00c     LIBCMT:winapisupp.obj
 0002:0002101c       ??_C@_0BO@KPCLFDJJ@GetFileInformationByHandleExW?$AA@ 300bf01c     LIBCMT:winapisupp.obj
 0002:0002103c       ??_C@_0BM@MHIDLABK@SetFileInformationByHandleW?$AA@ 300bf03c     LIBCMT:winapisupp.obj
 0002:00021060       ___newctype                300bf060     LIBCMT:ctype.obj
 0002:00021360       __wctype                   300bf360     LIBCMT:ctype.obj
 0002:00021568       ___newclmap                300bf568     LIBCMT:ctype.obj
 0002:000216e8       ___newcumap                300bf6e8     LIBCMT:ctype.obj
 0002:00022128       __DEFAULT_CW_in_mem        300c0128     LIBCMT:common.obj
 0002:0002212a       __pi_by_2_to_61            300c012a     LIBCMT:common.obj
 0002:00022a10       ??_C@_04FJHINJAO@tanh?$AA@ 300c0a10     LIBCMT:fpexcept.obj
 0002:00022a18       ??_C@_05KNGEOGJB@atan2?$AA@ 300c0a18     LIBCMT:fpexcept.obj
 0002:00022a20       ??_C@_04ODHECPBC@fabs?$AA@ 300c0a20     LIBCMT:fpexcept.obj
 0002:00022a28       ??_C@_05CEJMAHNP@ldexp?$AA@ 300c0a28     LIBCMT:fpexcept.obj
 0002:00022a30       ??_C@_05KBKMEMPO@_cabs?$AA@ 300c0a30     LIBCMT:fpexcept.obj
 0002:00022a38       ??_C@_06MEIMCGCF@_hypot?$AA@ 300c0a38     LIBCMT:fpexcept.obj
 0002:00022a40       ??_C@_04KEPJIHGP@fmod?$AA@ 300c0a40     LIBCMT:fpexcept.obj
 0002:00022a48       ??_C@_05GKKHEGJL@frexp?$AA@ 300c0a48     LIBCMT:fpexcept.obj
 0002:00022a50       ??_C@_03MJLDFKDL@_y0?$AA@  300c0a50     LIBCMT:fpexcept.obj
 0002:00022a54       ??_C@_03NAKIGLHK@_y1?$AA@  300c0a54     LIBCMT:fpexcept.obj
 0002:00022a58       ??_C@_03ONILCKOB@_yn?$AA@  300c0a58     LIBCMT:fpexcept.obj
 0002:00022a5c       ??_C@_05JGDBENOH@_logb?$AA@ 300c0a5c     LIBCMT:fpexcept.obj
 0002:00022a64       ??_C@_0L@KDOEJCKC@_nextafter?$AA@ 300c0a64     LIBCMT:fpexcept.obj
 0002:00022a70       ??_C@_04COOMCNPB@sinh?$AA@ 300c0a70     LIBCMT:fpexcept.obj
 0002:00022a78       ??_C@_04HPJJNFIM@cosh?$AA@ 300c0a78     LIBCMT:fpexcept.obj
 0002:00022a80       ??_C@_15PJPFLCCM@?$AAu?$AAk?$AA?$AA@ 300c0a80     LIBCMT:getqloc.obj
 0002:00022a88       ___rg_language_count       300c0a88     LIBCMT:getqloc.obj
 0002:00022a8c       ___rg_country_count        300c0a8c     LIBCMT:getqloc.obj
 0002:00022a90       _LcidToLocaleNameTable     300c0a90     LIBCMT:winapinls.obj
 0002:000231b0       _LocaleNameToIndexTable    300c11b0     LIBCMT:winapinls.obj
 0002:000238d0       ??_C@_15EMKDOKLE@?$AAa?$AAr?$AA?$AA@ 300c18d0     LIBCMT:winapinls.obj
 0002:000238d8       ??_C@_15KNPADPLH@?$AAb?$AAg?$AA?$AA@ 300c18d8     LIBCMT:winapinls.obj
 0002:000238e0       ??_C@_15EDMHLDMO@?$AAc?$AAa?$AA?$AA@ 300c18e0     LIBCMT:winapinls.obj
 0002:000238e8       ??_C@_1O@BPEAJADD@?$AAz?$AAh?$AA?9?$AAC?$AAH?$AAS?$AA?$AA@ 300c18e8     LIBCMT:winapinls.obj
 0002:000238f8       ??_C@_15LJNHCMNK@?$AAc?$AAs?$AA?$AA@ 300c18f8     LIBCMT:winapinls.obj
 0002:00023900       ??_C@_15FOMCIDHG@?$AAd?$AAa?$AA?$AA@ 300c1900     LIBCMT:winapinls.obj
 0002:00023908       ??_C@_15NBKABECB@?$AAd?$AAe?$AA?$AA@ 300c1908     LIBCMT:winapinls.obj
 0002:00023910       ??_C@_15GHPEIIAO@?$AAe?$AAl?$AA?$AA@ 300c1910     LIBCMT:winapinls.obj
 0002:00023918       ??_C@_15MNPNEAIF@?$AAe?$AAn?$AA?$AA@ 300c1918     LIBCMT:winapinls.obj
 0002:00023920       ??_C@_15GPIOMPMH@?$AAe?$AAs?$AA?$AA@ 300c1920     LIBCMT:winapinls.obj
 0002:00023928       ??_C@_15NGLOAKJC@?$AAf?$AAi?$AA?$AA@ 300c1928     LIBCMT:winapinls.obj
 0002:00023930       ??_C@_15FBKGNKAM@?$AAf?$AAr?$AA?$AA@ 300c1930     LIBCMT:winapinls.obj
 0002:00023938       ??_C@_15KGGCNEFK@?$AAh?$AAe?$AA?$AA@ 300c1938     LIBCMT:winapinls.obj
 0002:00023940       ??_C@_15PGHLIDMF@?$AAh?$AAu?$AA?$AA@ 300c1940     LIBCMT:winapinls.obj
 0002:00023948       ??_C@_15BIEMAPLM@?$AAi?$AAs?$AA?$AA@ 300c1948     LIBCMT:winapinls.obj
 0002:00023950       ??_C@_15IFJLDHAF@?$AAi?$AAt?$AA?$AA@ 300c1950     LIBCMT:winapinls.obj
 0002:00023958       ??_C@_15GEMIOCAG@?$AAj?$AAa?$AA?$AA@ 300c1958     LIBCMT:winapinls.obj
 0002:00023960       ??_C@_15EPELEGJA@?$AAk?$AAo?$AA?$AA@ 300c1960     LIBCMT:winapinls.obj
 0002:00023968       ??_C@_15NDDHIMN@?$AAn?$AAl?$AA?$AA@ 300c1968     LIBCMT:winapinls.obj
 0002:00023970       ??_C@_15BPIGNHCD@?$AAn?$AAo?$AA?$AA@ 300c1970     LIBCMT:winapinls.obj
 0002:00023978       ??_C@_15DEOPBLCG@?$AAp?$AAl?$AA?$AA@ 300c1978     LIBCMT:winapinls.obj
 0002:00023980       ??_C@_15KBECGEFG@?$AAp?$AAt?$AA?$AA@ 300c1980     LIBCMT:winapinls.obj
 0002:00023988       ??_C@_15GLJCBFMD@?$AAr?$AAo?$AA?$AA@ 300c1988     LIBCMT:winapinls.obj
 0002:00023990       ??_C@_15FEDGKCDI@?$AAr?$AAu?$AA?$AA@ 300c1990     LIBCMT:winapinls.obj
 0002:00023998       ??_C@_15GLKMLLHM@?$AAh?$AAr?$AA?$AA@ 300c1998     LIBCMT:winapinls.obj
 0002:000239a0       ??_C@_15CPKMFBDB@?$AAs?$AAk?$AA?$AA@ 300c19a0     LIBCMT:winapinls.obj
 0002:000239a8       ??_C@_15BAAIOGMK@?$AAs?$AAq?$AA?$AA@ 300c19a8     LIBCMT:winapinls.obj
 0002:000239b0       ??_C@_15INNPNOHD@?$AAs?$AAv?$AA?$AA@ 300c19b0     LIBCMT:winapinls.obj
 0002:000239b8       ??_C@_15CABMMOGH@?$AAt?$AAh?$AA?$AA@ 300c19b8     LIBCMT:winapinls.obj
 0002:000239c0       ??_C@_15BPLIHJJM@?$AAt?$AAr?$AA?$AA@ 300c19c0     LIBCMT:winapinls.obj
 0002:000239c8       ??_C@_15NEOEKKDJ@?$AAu?$AAr?$AA?$AA@ 300c19c8     LIBCMT:winapinls.obj
 0002:000239d0       ??_C@_15NFICGAJK@?$AAi?$AAd?$AA?$AA@ 300c19d0     LIBCMT:winapinls.obj
 0002:000239d8       ??_C@_15HPJPHDM@?$AAb?$AAe?$AA?$AA@ 300c19d8     LIBCMT:winapinls.obj
 0002:000239e0       ??_C@_15LCHLGJII@?$AAs?$AAl?$AA?$AA@ 300c19e0     LIBCMT:winapinls.obj
 0002:000239e8       ??_C@_15PCFJPHHO@?$AAe?$AAt?$AA?$AA@ 300c19e8     LIBCMT:winapinls.obj
 0002:000239f0       ??_C@_15HPFPGODN@?$AAl?$AAv?$AA?$AA@ 300c19f0     LIBCMT:winapinls.obj
 0002:000239f8       ??_C@_15NFFGKGLG@?$AAl?$AAt?$AA?$AA@ 300c19f8     LIBCMT:winapinls.obj
 0002:00023a00       ??_C@_15BDAKCCHN@?$AAf?$AAa?$AA?$AA@ 300c1a00     LIBCMT:winapinls.obj
 0002:00023a08       ??_C@_15NFGIAIAJ@?$AAv?$AAi?$AA?$AA@ 300c1a08     LIBCMT:winapinls.obj
 0002:00023a10       ??_C@_15LMKNDMHN@?$AAh?$AAy?$AA?$AA@ 300c1a10     LIBCMT:winapinls.obj
 0002:00023a18       ??_C@_15IJBHMCFL@?$AAa?$AAz?$AA?$AA@ 300c1a18     LIBCMT:winapinls.obj
 0002:00023a20       ??_C@_15EKOFJABL@?$AAe?$AAu?$AA?$AA@ 300c1a20     LIBCMT:winapinls.obj
 0002:00023a28       ??_C@_15BGHADCNK@?$AAm?$AAk?$AA?$AA@ 300c1a28     LIBCMT:winapinls.obj
 0002:00023a30       ??_C@_15JDNICKHM@?$AAa?$AAf?$AA?$AA@ 300c1a30     LIBCMT:winapinls.obj
 0002:00023a38       ??_C@_15KPJEDBKD@?$AAk?$AAa?$AA?$AA@ 300c1a38     LIBCMT:winapinls.obj
 0002:00023a40       ??_C@_15PDNFFFEO@?$AAf?$AAo?$AA?$AA@ 300c1a40     LIBCMT:winapinls.obj
 0002:00023a48       ??_C@_15OMLEGLOC@?$AAh?$AAi?$AA?$AA@ 300c1a48     LIBCMT:winapinls.obj
 0002:00023a50       ??_C@_15IDNNENKK@?$AAm?$AAs?$AA?$AA@ 300c1a50     LIBCMT:winapinls.obj
 0002:00023a58       ??_C@_15MACJNBMH@?$AAk?$AAk?$AA?$AA@ 300c1a58     LIBCMT:winapinls.obj
 0002:00023a60       ??_C@_15DKDJEOND@?$AAk?$AAy?$AA?$AA@ 300c1a60     LIBCMT:winapinls.obj
 0002:00023a68       ??_C@_15DFGDLJBG@?$AAs?$AAw?$AA?$AA@ 300c1a68     LIBCMT:winapinls.obj
 0002:00023a70       ??_C@_15BBFAICNG@?$AAu?$AAz?$AA?$AA@ 300c1a70     LIBCMT:winapinls.obj
 0002:00023a78       ??_C@_15DKNDCGEA@?$AAt?$AAt?$AA?$AA@ 300c1a78     LIBCMT:winapinls.obj
 0002:00023a80       ??_C@_15MGIFMDPL@?$AAp?$AAa?$AA?$AA@ 300c1a80     LIBCMT:winapinls.obj
 0002:00023a88       ??_C@_15HCNDBBA@?$AAg?$AAu?$AA?$AA@ 300c1a88     LIBCMT:winapinls.obj
 0002:00023a90       ??_C@_15FNBEIBON@?$AAt?$AAa?$AA?$AA@ 300c1a90     LIBCMT:winapinls.obj
 0002:00023a98       ??_C@_15NCHGBGLK@?$AAt?$AAe?$AA?$AA@ 300c1a98     LIBCMT:winapinls.obj
 0002:00023aa0       ??_C@_15PHPHCBPF@?$AAk?$AAn?$AA?$AA@ 300c1aa0     LIBCMT:winapinls.obj
 0002:00023aa8       ??_C@_15DLGBCKMP@?$AAm?$AAr?$AA?$AA@ 300c1aa8     LIBCMT:winapinls.obj
 0002:00023ab0       ??_C@_15EABBLBFF@?$AAs?$AAa?$AA?$AA@ 300c1ab0     LIBCMT:winapinls.obj
 0002:00023ab8       ??_C@_15CBKOMCOI@?$AAm?$AAn?$AA?$AA@ 300c1ab8     LIBCMT:winapinls.obj
 0002:00023ac0       ??_C@_15CKDMCJAF@?$AAg?$AAl?$AA?$AA@ 300c1ac0     LIBCMT:winapinls.obj
 0002:00023ac8       ??_C@_17CNJFBPG@?$AAk?$AAo?$AAk?$AA?$AA@ 300c1ac8     LIBCMT:winapinls.obj
 0002:00023ad0       ??_C@_17FFBJICPL@?$AAs?$AAy?$AAr?$AA?$AA@ 300c1ad0     LIBCMT:winapinls.obj
 0002:00023ad8       ??_C@_17KPNDCPAF@?$AAd?$AAi?$AAv?$AA?$AA@ 300c1ad8     LIBCMT:winapinls.obj
 0002:00023ae0       ??_C@_11LOCGONAA@?$AA?$AA@ 300c1ae0     LIBCMT:winapinls.obj
 0002:00023ae4       ??_C@_1M@OKAHONE@?$AAa?$AAr?$AA?9?$AAS?$AAA?$AA?$AA@ 300c1ae4     LIBCMT:winapinls.obj
 0002:00023af0       ??_C@_1M@FFFIGIGK@?$AAb?$AAg?$AA?9?$AAB?$AAG?$AA?$AA@ 300c1af0     LIBCMT:winapinls.obj
 0002:00023afc       ??_C@_1M@BJNKEDC@?$AAc?$AAa?$AA?9?$AAE?$AAS?$AA?$AA@ 300c1afc     LIBCMT:winapinls.obj
 0002:00023b08       ??_C@_1M@IJJHFJHA@?$AAc?$AAs?$AA?9?$AAC?$AAZ?$AA?$AA@ 300c1b08     LIBCMT:winapinls.obj
 0002:00023b14       ??_C@_1M@CLPEOBGI@?$AAd?$AAa?$AA?9?$AAD?$AAK?$AA?$AA@ 300c1b14     LIBCMT:winapinls.obj
 0002:00023b20       ??_C@_1M@MCMADGCB@?$AAd?$AAe?$AA?9?$AAD?$AAE?$AA?$AA@ 300c1b20     LIBCMT:winapinls.obj
 0002:00023b2c       ??_C@_1M@OOCKEMAM@?$AAe?$AAl?$AA?9?$AAG?$AAR?$AA?$AA@ 300c1b2c     LIBCMT:winapinls.obj
 0002:00023b38       ??_C@_1M@DDNJFGID@?$AAf?$AAi?$AA?9?$AAF?$AAI?$AA?$AA@ 300c1b38     LIBCMT:winapinls.obj
 0002:00023b44       ??_C@_1M@GLIPPMAC@?$AAf?$AAr?$AA?9?$AAF?$AAR?$AA?$AA@ 300c1b44     LIBCMT:winapinls.obj
 0002:00023b50       ??_C@_1M@GFMCHPE@?$AAh?$AAe?$AA?9?$AAI?$AAL?$AA?$AA@ 300c1b50     LIBCMT:winapinls.obj
 0002:00023b5c       ??_C@_1M@MHLPGNKM@?$AAh?$AAu?$AA?9?$AAH?$AAU?$AA?$AA@ 300c1b5c     LIBCMT:winapinls.obj
 0002:00023b68       ??_C@_1M@LPDDNNPN@?$AAi?$AAs?$AA?9?$AAI?$AAS?$AA?$AA@ 300c1b68     LIBCMT:winapinls.obj
 0002:00023b74       ??_C@_1M@MADIPODN@?$AAi?$AAt?$AA?9?$AAI?$AAT?$AA?$AA@ 300c1b74     LIBCMT:winapinls.obj
 0002:00023b80       ??_C@_1M@IHBJJGG@?$AAn?$AAl?$AA?9?$AAN?$AAL?$AA?$AA@ 300c1b80     LIBCMT:winapinls.obj
 0002:00023b8c       ??_C@_1M@EANAGDL@?$AAn?$AAb?$AA?9?$AAN?$AAO?$AA?$AA@ 300c1b8c     LIBCMT:winapinls.obj
 0002:00023b98       ??_C@_1M@NEIEMEGP@?$AAp?$AAl?$AA?9?$AAP?$AAL?$AA?$AA@ 300c1b98     LIBCMT:winapinls.obj
 0002:00023ba4       ??_C@_1M@BOCFIGEP@?$AAp?$AAt?$AA?9?$AAB?$AAR?$AA?$AA@ 300c1ba4     LIBCMT:winapinls.obj
 0002:00023bb0       ??_C@_1M@IMPFOPBG@?$AAr?$AAo?$AA?9?$AAR?$AAO?$AA?$AA@ 300c1bb0     LIBCMT:winapinls.obj
 0002:00023bbc       ??_C@_1M@IDNNEJMM@?$AAr?$AAu?$AA?9?$AAR?$AAU?$AA?$AA@ 300c1bbc     LIBCMT:winapinls.obj
 0002:00023bc8       ??_C@_1M@LILEEOGM@?$AAh?$AAr?$AA?9?$AAH?$AAR?$AA?$AA@ 300c1bc8     LIBCMT:winapinls.obj
 0002:00023bd4       ??_C@_1M@FKIFEHPB@?$AAs?$AAk?$AA?9?$AAS?$AAK?$AA?$AA@ 300c1bd4     LIBCMT:winapinls.obj
 0002:00023be0       ??_C@_1M@LJMAMNPJ@?$AAs?$AAq?$AA?9?$AAA?$AAL?$AA?$AA@ 300c1be0     LIBCMT:winapinls.obj
 0002:00023bec       ??_C@_1M@GIAKDKJK@?$AAs?$AAv?$AA?9?$AAS?$AAE?$AA?$AA@ 300c1bec     LIBCMT:winapinls.obj
 0002:00023bf8       ??_C@_1M@MKJKIKCL@?$AAt?$AAh?$AA?9?$AAT?$AAH?$AA?$AA@ 300c1bf8     LIBCMT:winapinls.obj
 0002:00023c04       ??_C@_1M@MFLCCMPB@?$AAt?$AAr?$AA?9?$AAT?$AAR?$AA?$AA@ 300c1c04     LIBCMT:winapinls.obj
 0002:00023c10       ??_C@_1M@OIJHDKJN@?$AAu?$AAr?$AA?9?$AAP?$AAK?$AA?$AA@ 300c1c10     LIBCMT:winapinls.obj
 0002:00023c1c       ??_C@_1M@LHIPCIEK@?$AAi?$AAd?$AA?9?$AAI?$AAD?$AA?$AA@ 300c1c1c     LIBCMT:winapinls.obj
 0002:00023c28       ??_C@_1M@MFMOBGI@?$AAu?$AAk?$AA?9?$AAU?$AAA?$AA?$AA@ 300c1c28     LIBCMT:winapinls.obj
 0002:00023c34       ??_C@_1M@OBGLJIPL@?$AAb?$AAe?$AA?9?$AAB?$AAY?$AA?$AA@ 300c1c34     LIBCMT:winapinls.obj
 0002:00023c40       ??_C@_1M@BCFAJEAD@?$AAs?$AAl?$AA?9?$AAS?$AAI?$AA?$AA@ 300c1c40     LIBCMT:winapinls.obj
 0002:00023c4c       ??_C@_1M@FKFFEDDN@?$AAe?$AAt?$AA?9?$AAE?$AAE?$AA?$AA@ 300c1c4c     LIBCMT:winapinls.obj
 0002:00023c58       ??_C@_1M@KGKKAACI@?$AAl?$AAv?$AA?9?$AAL?$AAV?$AA?$AA@ 300c1c58     LIBCMT:winapinls.obj
 0002:00023c64       ??_C@_1M@IFGBIJO@?$AAl?$AAt?$AA?9?$AAL?$AAT?$AA?$AA@ 300c1c64     LIBCMT:winapinls.obj
 0002:00023c70       ??_C@_1M@FGEAHEDM@?$AAf?$AAa?$AA?9?$AAI?$AAR?$AA?$AA@ 300c1c70     LIBCMT:winapinls.obj
 0002:00023c7c       ??_C@_1M@KBMAIBFN@?$AAv?$AAi?$AA?9?$AAV?$AAN?$AA?$AA@ 300c1c7c     LIBCMT:winapinls.obj
 0002:00023c88       ??_C@_1M@GPCBKDJK@?$AAh?$AAy?$AA?9?$AAA?$AAM?$AA?$AA@ 300c1c88     LIBCMT:winapinls.obj
 0002:00023c94       ??_C@_1BG@BECMDDJB@?$AAa?$AAz?$AA?9?$AAA?$AAZ?$AA?9?$AAL?$AAa?$AAt?$AAn?$AA?$AA@ 300c1c94     LIBCMT:winapinls.obj
 0002:00023cac       ??_C@_1M@MAOFCAEA@?$AAe?$AAu?$AA?9?$AAE?$AAS?$AA?$AA@ 300c1cac     LIBCMT:winapinls.obj
 0002:00023cb8       ??_C@_1M@IGHABKPI@?$AAm?$AAk?$AA?9?$AAM?$AAK?$AA?$AA@ 300c1cb8     LIBCMT:winapinls.obj
 0002:00023cc4       ??_C@_1M@IAIGNEJG@?$AAt?$AAn?$AA?9?$AAZ?$AAA?$AA?$AA@ 300c1cc4     LIBCMT:winapinls.obj
 0002:00023cd0       ??_C@_1M@IIJCOJFA@?$AAx?$AAh?$AA?9?$AAZ?$AAA?$AA?$AA@ 300c1cd0     LIBCMT:winapinls.obj
 0002:00023cdc       ??_C@_1M@LGPJHNJH@?$AAz?$AAu?$AA?9?$AAZ?$AAA?$AA?$AA@ 300c1cdc     LIBCMT:winapinls.obj
 0002:00023ce8       ??_C@_1M@HOKAOIO@?$AAa?$AAf?$AA?9?$AAZ?$AAA?$AA?$AA@ 300c1ce8     LIBCMT:winapinls.obj
 0002:00023cf4       ??_C@_1M@DPCLHLIE@?$AAk?$AAa?$AA?9?$AAG?$AAE?$AA?$AA@ 300c1cf4     LIBCMT:winapinls.obj
 0002:00023d00       ??_C@_1M@BLKMHJBI@?$AAf?$AAo?$AA?9?$AAF?$AAO?$AA?$AA@ 300c1d00     LIBCMT:winapinls.obj
 0002:00023d0c       ??_C@_1M@LGGJAPPB@?$AAh?$AAi?$AA?9?$AAI?$AAN?$AA?$AA@ 300c1d0c     LIBCMT:winapinls.obj
 0002:00023d18       ??_C@_1M@FIKPIHFE@?$AAm?$AAt?$AA?9?$AAM?$AAT?$AA?$AA@ 300c1d18     LIBCMT:winapinls.obj
 0002:00023d24       ??_C@_1M@HEGGPBFA@?$AAs?$AAe?$AA?9?$AAN?$AAO?$AA?$AA@ 300c1d24     LIBCMT:winapinls.obj
 0002:00023d30       ??_C@_1M@EIBJEEPA@?$AAm?$AAs?$AA?9?$AAM?$AAY?$AA?$AA@ 300c1d30     LIBCMT:winapinls.obj
 0002:00023d3c       ??_C@_1M@FHLBGMPP@?$AAk?$AAk?$AA?9?$AAK?$AAZ?$AA?$AA@ 300c1d3c     LIBCMT:winapinls.obj
 0002:00023d48       ??_C@_1M@NGJJLCGI@?$AAk?$AAy?$AA?9?$AAK?$AAG?$AA?$AA@ 300c1d48     LIBCMT:winapinls.obj
 0002:00023d54       ??_C@_1M@GIENNBFC@?$AAs?$AAw?$AA?9?$AAK?$AAE?$AA?$AA@ 300c1d54     LIBCMT:winapinls.obj
 0002:00023d60       ??_C@_1BG@NDGMJIMJ@?$AAu?$AAz?$AA?9?$AAU?$AAZ?$AA?9?$AAL?$AAa?$AAt?$AAn?$AA?$AA@ 300c1d60     LIBCMT:winapinls.obj
 0002:00023d78       ??_C@_1M@IDCCIHBC@?$AAt?$AAt?$AA?9?$AAR?$AAU?$AA?$AA@ 300c1d78     LIBCMT:winapinls.obj
 0002:00023d84       ??_C@_1M@LOICPMOJ@?$AAb?$AAn?$AA?9?$AAI?$AAN?$AA?$AA@ 300c1d84     LIBCMT:winapinls.obj
 0002:00023d90       ??_C@_1M@KPKKNEAH@?$AAp?$AAa?$AA?9?$AAI?$AAN?$AA?$AA@ 300c1d90     LIBCMT:winapinls.obj
 0002:00023d9c       ??_C@_1M@PJGPPBOG@?$AAg?$AAu?$AA?9?$AAI?$AAN?$AA?$AA@ 300c1d9c     LIBCMT:winapinls.obj
 0002:00023da8       ??_C@_1M@KMKMOPHI@?$AAt?$AAa?$AA?9?$AAI?$AAN?$AA?$AA@ 300c1da8     LIBCMT:winapinls.obj
 0002:00023db4       ??_C@_1M@KFEHEPAC@?$AAt?$AAe?$AA?9?$AAI?$AAN?$AA?$AA@ 300c1db4     LIBCMT:winapinls.obj
 0002:00023dc0       ??_C@_1M@CDCLMGHI@?$AAk?$AAn?$AA?9?$AAI?$AAN?$AA?$AA@ 300c1dc0     LIBCMT:winapinls.obj
 0002:00023dcc       ??_C@_1M@MIODLDKF@?$AAm?$AAl?$AA?9?$AAI?$AAN?$AA?$AA@ 300c1dcc     LIBCMT:winapinls.obj
 0002:00023dd8       ??_C@_1M@PBIEACPO@?$AAm?$AAr?$AA?9?$AAI?$AAN?$AA?$AA@ 300c1dd8     LIBCMT:winapinls.obj
 0002:00023de4       ??_C@_1M@NIDEAGPH@?$AAs?$AAa?$AA?9?$AAI?$AAN?$AA?$AA@ 300c1de4     LIBCMT:winapinls.obj
 0002:00023df0       ??_C@_1M@FHIHCBIO@?$AAm?$AAn?$AA?9?$AAM?$AAN?$AA?$AA@ 300c1df0     LIBCMT:winapinls.obj
 0002:00023dfc       ??_C@_1M@JAIJPENP@?$AAc?$AAy?$AA?9?$AAG?$AAB?$AA?$AA@ 300c1dfc     LIBCMT:winapinls.obj
 0002:00023e08       ??_C@_1M@PHGFBEPN@?$AAg?$AAl?$AA?9?$AAE?$AAS?$AA?$AA@ 300c1e08     LIBCMT:winapinls.obj
 0002:00023e14       ??_C@_1O@KPIPDNCP@?$AAk?$AAo?$AAk?$AA?9?$AAI?$AAN?$AA?$AA@ 300c1e14     LIBCMT:winapinls.obj
 0002:00023e24       ??_C@_1O@KNHJLDJA@?$AAs?$AAy?$AAr?$AA?9?$AAS?$AAY?$AA?$AA@ 300c1e24     LIBCMT:winapinls.obj
 0002:00023e34       ??_C@_1O@MKEKBLAH@?$AAd?$AAi?$AAv?$AA?9?$AAM?$AAV?$AA?$AA@ 300c1e34     LIBCMT:winapinls.obj
 0002:00023e44       ??_C@_1O@OHDCKDDF@?$AAq?$AAu?$AAz?$AA?9?$AAB?$AAO?$AA?$AA@ 300c1e44     LIBCMT:winapinls.obj
 0002:00023e54       ??_C@_1M@LEPJNLFD@?$AAn?$AAs?$AA?9?$AAZ?$AAA?$AA?$AA@ 300c1e54     LIBCMT:winapinls.obj
 0002:00023e60       ??_C@_1M@OMLEIIJB@?$AAm?$AAi?$AA?9?$AAN?$AAZ?$AA?$AA@ 300c1e60     LIBCMT:winapinls.obj
 0002:00023e6c       ??_C@_1M@PMPEAILG@?$AAa?$AAr?$AA?9?$AAI?$AAQ?$AA?$AA@ 300c1e6c     LIBCMT:winapinls.obj
 0002:00023e78       ??_C@_1M@CNKPNOEE@?$AAd?$AAe?$AA?9?$AAC?$AAH?$AA?$AA@ 300c1e78     LIBCMT:winapinls.obj
 0002:00023e84       ??_C@_1M@LKMGMLKO@?$AAe?$AAn?$AA?9?$AAG?$AAB?$AA?$AA@ 300c1e84     LIBCMT:winapinls.obj
 0002:00023e90       ??_C@_1M@PGKJFFGL@?$AAe?$AAs?$AA?9?$AAM?$AAX?$AA?$AA@ 300c1e90     LIBCMT:winapinls.obj
 0002:00023e9c       ??_C@_1M@DNNANBDC@?$AAf?$AAr?$AA?9?$AAB?$AAE?$AA?$AA@ 300c1e9c     LIBCMT:winapinls.obj
 0002:00023ea8       ??_C@_1M@HLGMDFHM@?$AAi?$AAt?$AA?9?$AAC?$AAH?$AA?$AA@ 300c1ea8     LIBCMT:winapinls.obj
 0002:00023eb4       ??_C@_1M@CLLBGJH@?$AAn?$AAl?$AA?9?$AAB?$AAE?$AA?$AA@ 300c1eb4     LIBCMT:winapinls.obj
 0002:00023ec0       ??_C@_1M@BODBOGLF@?$AAn?$AAn?$AA?9?$AAN?$AAO?$AA?$AA@ 300c1ec0     LIBCMT:winapinls.obj
 0002:00023ecc       ??_C@_1M@HFFAHKAD@?$AAp?$AAt?$AA?9?$AAP?$AAT?$AA?$AA@ 300c1ecc     LIBCMT:winapinls.obj
 0002:00023ed8       ??_C@_1BG@LNOAKHIE@?$AAs?$AAr?$AA?9?$AAS?$AAP?$AA?9?$AAL?$AAa?$AAt?$AAn?$AA?$AA@ 300c1ed8     LIBCMT:winapinls.obj
 0002:00023ef0       ??_C@_1M@HBMHBGAK@?$AAs?$AAv?$AA?9?$AAF?$AAI?$AA?$AA@ 300c1ef0     LIBCMT:winapinls.obj
 0002:00023efc       ??_C@_1BG@DGCJGJBE@?$AAa?$AAz?$AA?9?$AAA?$AAZ?$AA?9?$AAC?$AAy?$AAr?$AAl?$AA?$AA@ 300c1efc     LIBCMT:winapinls.obj
 0002:00023f14       ??_C@_1M@KEJDAAHB@?$AAs?$AAe?$AA?9?$AAS?$AAE?$AA?$AA@ 300c1f14     LIBCMT:winapinls.obj
 0002:00023f20       ??_C@_1M@HEIBJJAD@?$AAm?$AAs?$AA?9?$AAB?$AAN?$AA?$AA@ 300c1f20     LIBCMT:winapinls.obj
 0002:00023f2c       ??_C@_1BG@PBGJMCEM@?$AAu?$AAz?$AA?9?$AAU?$AAZ?$AA?9?$AAC?$AAy?$AAr?$AAl?$AA?$AA@ 300c1f2c     LIBCMT:winapinls.obj
 0002:00023f44       ??_C@_1O@LAOBCMDF@?$AAq?$AAu?$AAz?$AA?9?$AAE?$AAC?$AA?$AA@ 300c1f44     LIBCMT:winapinls.obj
 0002:00023f54       ??_C@_1M@POEEMAIO@?$AAa?$AAr?$AA?9?$AAE?$AAG?$AA?$AA@ 300c1f54     LIBCMT:winapinls.obj
 0002:00023f60       ??_C@_1M@EFAKDEDL@?$AAz?$AAh?$AA?9?$AAH?$AAK?$AA?$AA@ 300c1f60     LIBCMT:winapinls.obj
 0002:00023f6c       ??_C@_1M@HKKIJHGI@?$AAd?$AAe?$AA?9?$AAA?$AAT?$AA?$AA@ 300c1f6c     LIBCMT:winapinls.obj
 0002:00023f78       ??_C@_1M@KBFBEHJF@?$AAe?$AAn?$AA?9?$AAA?$AAU?$AA?$AA@ 300c1f78     LIBCMT:winapinls.obj
 0002:00023f84       ??_C@_1M@MNPLFAAH@?$AAe?$AAs?$AA?9?$AAE?$AAS?$AA?$AA@ 300c1f84     LIBCMT:winapinls.obj
 0002:00023f90       ??_C@_1M@HJOOJFMA@?$AAf?$AAr?$AA?9?$AAC?$AAA?$AA?$AA@ 300c1f90     LIBCMT:winapinls.obj
 0002:00023f9c       ??_C@_1BG@JPOFPNAB@?$AAs?$AAr?$AA?9?$AAS?$AAP?$AA?9?$AAC?$AAy?$AAr?$AAl?$AA?$AA@ 300c1f9c     LIBCMT:winapinls.obj
 0002:00023fb4       ??_C@_1M@LNFOCMOB@?$AAs?$AAe?$AA?9?$AAF?$AAI?$AA?$AA@ 300c1fb4     LIBCMT:winapinls.obj
 0002:00023fc0       ??_C@_1O@MGJBOAMB@?$AAq?$AAu?$AAz?$AA?9?$AAP?$AAE?$AA?$AA@ 300c1fc0     LIBCMT:winapinls.obj
 0002:00023fd0       ??_C@_1M@GJINLBOK@?$AAa?$AAr?$AA?9?$AAL?$AAY?$AA?$AA@ 300c1fd0     LIBCMT:winapinls.obj
 0002:00023fdc       ??_C@_1M@GGMNHJNL@?$AAz?$AAh?$AA?9?$AAS?$AAG?$AA?$AA@ 300c1fdc     LIBCMT:winapinls.obj
 0002:00023fe8       ??_C@_1M@HOIKODND@?$AAd?$AAe?$AA?9?$AAL?$AAU?$AA?$AA@ 300c1fe8     LIBCMT:winapinls.obj
 0002:00023ff4       ??_C@_1M@DDOCCGFG@?$AAe?$AAn?$AA?9?$AAC?$AAA?$AA?$AA@ 300c1ff4     LIBCMT:winapinls.obj
 0002:00024000       ??_C@_1M@BNOEMJLF@?$AAe?$AAs?$AA?9?$AAG?$AAT?$AA?$AA@ 300c2000     LIBCMT:winapinls.obj
 0002:0002400c       ??_C@_1M@EOGNKEK@?$AAf?$AAr?$AA?9?$AAC?$AAH?$AA?$AA@ 300c200c     LIBCMT:winapinls.obj
 0002:00024018       ??_C@_1M@FLIDJFHL@?$AAh?$AAr?$AA?9?$AAB?$AAA?$AA?$AA@ 300c2018     LIBCMT:winapinls.obj
 0002:00024024       ??_C@_1O@FMCELNAJ@?$AAs?$AAm?$AAj?$AA?9?$AAN?$AAO?$AA?$AA@ 300c2024     LIBCMT:winapinls.obj
 0002:00024034       ??_C@_1M@JHGLJMGJ@?$AAa?$AAr?$AA?9?$AAD?$AAZ?$AA?$AA@ 300c2034     LIBCMT:winapinls.obj
 0002:00024040       ??_C@_1M@JKKFDCNP@?$AAz?$AAh?$AA?9?$AAM?$AAO?$AA?$AA@ 300c2040     LIBCMT:winapinls.obj
 0002:0002404c       ??_C@_1M@GEEFALPE@?$AAd?$AAe?$AA?9?$AAL?$AAI?$AA?$AA@ 300c204c     LIBCMT:winapinls.obj
 0002:00024058       ??_C@_1M@IGEOFBG@?$AAe?$AAn?$AA?9?$AAN?$AAZ?$AA?$AA@ 300c2058     LIBCMT:winapinls.obj
 0002:00024064       ??_C@_1M@KDBONEHP@?$AAe?$AAs?$AA?9?$AAC?$AAR?$AA?$AA@ 300c2064     LIBCMT:winapinls.obj
 0002:00024070       ??_C@_1M@FHMDOHNN@?$AAf?$AAr?$AA?9?$AAL?$AAU?$AA?$AA@ 300c2070     LIBCMT:winapinls.obj
 0002:0002407c       ??_C@_1BG@NFKKMAFG@?$AAb?$AAs?$AA?9?$AAB?$AAA?$AA?9?$AAL?$AAa?$AAt?$AAn?$AA?$AA@ 300c207c     LIBCMT:winapinls.obj
 0002:00024094       ??_C@_1O@IMNBEMCI@?$AAs?$AAm?$AAj?$AA?9?$AAS?$AAE?$AA?$AA@ 300c2094     LIBCMT:winapinls.obj
 0002:000240a4       ??_C@_1M@DHHMBNDP@?$AAa?$AAr?$AA?9?$AAM?$AAA?$AA?$AA@ 300c20a4     LIBCMT:winapinls.obj
 0002:000240b0       ??_C@_1M@BNBLJCGH@?$AAe?$AAn?$AA?9?$AAI?$AAE?$AA?$AA@ 300c20b0     LIBCMT:winapinls.obj
 0002:000240bc       ??_C@_1M@GEPAFMDL@?$AAe?$AAs?$AA?9?$AAP?$AAA?$AA?$AA@ 300c20bc     LIBCMT:winapinls.obj
 0002:000240c8       ??_C@_1M@OJONDMDL@?$AAf?$AAr?$AA?9?$AAM?$AAC?$AA?$AA@ 300c20c8     LIBCMT:winapinls.obj
 0002:000240d4       ??_C@_1BG@OBCNFJB@?$AAs?$AAr?$AA?9?$AAB?$AAA?$AA?9?$AAL?$AAa?$AAt?$AAn?$AA?$AA@ 300c20d4     LIBCMT:winapinls.obj
 0002:000240ec       ??_C@_1O@KEMEEGPO@?$AAs?$AAm?$AAa?$AA?9?$AAN?$AAO?$AA?$AA@ 300c20ec     LIBCMT:winapinls.obj
 0002:000240fc       ??_C@_1M@ELMGFODK@?$AAa?$AAr?$AA?9?$AAT?$AAN?$AA?$AA@ 300c20fc     LIBCMT:winapinls.obj
 0002:00024108       ??_C@_1M@BHDLHFAF@?$AAe?$AAn?$AA?9?$AAZ?$AAA?$AA?$AA@ 300c2108     LIBCMT:winapinls.obj
 0002:00024114       ??_C@_1M@BMGIGLIF@?$AAe?$AAs?$AA?9?$AAD?$AAO?$AA?$AA@ 300c2114     LIBCMT:winapinls.obj
 0002:00024120       ??_C@_1BG@CMBHIPBE@?$AAs?$AAr?$AA?9?$AAB?$AAA?$AA?9?$AAC?$AAy?$AAr?$AAl?$AA?$AA@ 300c2120     LIBCMT:winapinls.obj
 0002:00024138       ??_C@_1O@HEDBLHNP@?$AAs?$AAm?$AAa?$AA?9?$AAS?$AAE?$AA?$AA@ 300c2138     LIBCMT:winapinls.obj
 0002:00024148       ??_C@_1M@DAGCADIM@?$AAa?$AAr?$AA?9?$AAO?$AAM?$AA?$AA@ 300c2148     LIBCMT:winapinls.obj
 0002:00024154       ??_C@_1M@FODLMICG@?$AAe?$AAn?$AA?9?$AAJ?$AAM?$AA?$AA@ 300c2154     LIBCMT:winapinls.obj
 0002:00024160       ??_C@_1M@DNMLCIHB@?$AAe?$AAs?$AA?9?$AAV?$AAE?$AA?$AA@ 300c2160     LIBCMT:winapinls.obj
 0002:0002416c       ??_C@_1O@EOKHMKJK@?$AAs?$AAm?$AAs?$AA?9?$AAF?$AAI?$AA?$AA@ 300c216c     LIBCMT:winapinls.obj
 0002:0002417c       ??_C@_1M@CAFJMKOF@?$AAa?$AAr?$AA?9?$AAY?$AAE?$AA?$AA@ 300c217c     LIBCMT:winapinls.obj
 0002:00024188       ??_C@_1M@CBFHIJLI@?$AAe?$AAn?$AA?9?$AAC?$AAB?$AA?$AA@ 300c2188     LIBCMT:winapinls.obj
 0002:00024194       ??_C@_1M@BGNFLDN@?$AAe?$AAs?$AA?9?$AAC?$AAO?$AA?$AA@ 300c2194     LIBCMT:winapinls.obj
 0002:000241a0       ??_C@_1O@JMPHMAMC@?$AAs?$AAm?$AAn?$AA?9?$AAF?$AAI?$AA?$AA@ 300c21a0     LIBCMT:winapinls.obj
 0002:000241b0       ??_C@_1M@JLANABKE@?$AAa?$AAr?$AA?9?$AAS?$AAY?$AA?$AA@ 300c21b0     LIBCMT:winapinls.obj
 0002:000241bc       ??_C@_1M@HPKGCFGN@?$AAe?$AAn?$AA?9?$AAB?$AAZ?$AA?$AA@ 300c21bc     LIBCMT:winapinls.obj
 0002:000241c8       ??_C@_1M@OLJCMLGM@?$AAe?$AAs?$AA?9?$AAP?$AAE?$AA?$AA@ 300c21c8     LIBCMT:winapinls.obj
 0002:000241d4       ??_C@_1M@MKKGFKLE@?$AAa?$AAr?$AA?9?$AAJ?$AAO?$AA?$AA@ 300c21d4     LIBCMT:winapinls.obj
 0002:000241e0       ??_C@_1M@EKPGLDNI@?$AAe?$AAn?$AA?9?$AAT?$AAT?$AA?$AA@ 300c21e0     LIBCMT:winapinls.obj
 0002:000241ec       ??_C@_1M@OONGHFHE@?$AAe?$AAs?$AA?9?$AAA?$AAR?$AA?$AA@ 300c21ec     LIBCMT:winapinls.obj
 0002:000241f8       ??_C@_1M@OOJFGBHE@?$AAa?$AAr?$AA?9?$AAL?$AAB?$AA?$AA@ 300c21f8     LIBCMT:winapinls.obj
 0002:00024204       ??_C@_1M@GCEJHNEG@?$AAe?$AAn?$AA?9?$AAZ?$AAW?$AA?$AA@ 300c2204     LIBCMT:winapinls.obj
 0002:00024210       ??_C@_1M@JNOCAHJI@?$AAe?$AAs?$AA?9?$AAE?$AAC?$AA?$AA@ 300c2210     LIBCMT:winapinls.obj
 0002:0002421c       ??_C@_1M@JEFHPGGB@?$AAa?$AAr?$AA?9?$AAK?$AAW?$AA?$AA@ 300c221c     LIBCMT:winapinls.obj
 0002:00024228       ??_C@_1M@MLKIBJOJ@?$AAe?$AAn?$AA?9?$AAP?$AAH?$AA?$AA@ 300c2228     LIBCMT:winapinls.obj
 0002:00024234       ??_C@_1M@BDNIPEND@?$AAe?$AAs?$AA?9?$AAC?$AAL?$AA?$AA@ 300c2234     LIBCMT:winapinls.obj
 0002:00024240       ??_C@_1M@MPNMEKBD@?$AAa?$AAr?$AA?9?$AAA?$AAE?$AA?$AA@ 300c2240     LIBCMT:winapinls.obj
 0002:0002424c       ??_C@_1M@KBJALCPI@?$AAe?$AAs?$AA?9?$AAU?$AAY?$AA?$AA@ 300c224c     LIBCMT:winapinls.obj
 0002:00024258       ??_C@_1M@LLCCOAGA@?$AAa?$AAr?$AA?9?$AAB?$AAH?$AA?$AA@ 300c2258     LIBCMT:winapinls.obj
 0002:00024264       ??_C@_1M@PBFNCDEL@?$AAe?$AAs?$AA?9?$AAP?$AAY?$AA?$AA@ 300c2264     LIBCMT:winapinls.obj
 0002:00024270       ??_C@_1M@EDGINPNP@?$AAa?$AAr?$AA?9?$AAQ?$AAA?$AA?$AA@ 300c2270     LIBCMT:winapinls.obj
 0002:0002427c       ??_C@_1M@MKDBIIJI@?$AAe?$AAs?$AA?9?$AAB?$AAO?$AA?$AA@ 300c227c     LIBCMT:winapinls.obj
 0002:00024288       ??_C@_1M@CPKKEBLD@?$AAe?$AAs?$AA?9?$AAS?$AAV?$AA?$AA@ 300c2288     LIBCMT:winapinls.obj
 0002:00024294       ??_C@_1M@NDBGMMJL@?$AAe?$AAs?$AA?9?$AAH?$AAN?$AA?$AA@ 300c2294     LIBCMT:winapinls.obj
 0002:000242a0       ??_C@_1M@JIJIBHDP@?$AAe?$AAs?$AA?9?$AAN?$AAI?$AA?$AA@ 300c22a0     LIBCMT:winapinls.obj
 0002:000242ac       ??_C@_1M@CGFMKEEK@?$AAe?$AAs?$AA?9?$AAP?$AAR?$AA?$AA@ 300c22ac     LIBCMT:winapinls.obj
 0002:000242b8       ??_C@_1O@ICJHKIIK@?$AAz?$AAh?$AA?9?$AAC?$AAH?$AAT?$AA?$AA@ 300c22b8     LIBCMT:winapinls.obj
 0002:000242c8       ??_C@_15CLNEJCE@?$AAs?$AAr?$AA?$AA@ 300c22c8     LIBCMT:winapinls.obj
 0002:000242d0       ??_C@_1M@KAHEKEIG@?$AAa?$AAf?$AA?9?$AAz?$AAa?$AA?$AA@ 300c22d0     LIBCMT:winapinls.obj
 0002:000242dc       ??_C@_1M@GIECOABL@?$AAa?$AAr?$AA?9?$AAa?$AAe?$AA?$AA@ 300c22dc     LIBCMT:winapinls.obj
 0002:000242e8       ??_C@_1M@BMLMEKGI@?$AAa?$AAr?$AA?9?$AAb?$AAh?$AA?$AA@ 300c22e8     LIBCMT:winapinls.obj
 0002:000242f4       ??_C@_1M@DAPFDGGB@?$AAa?$AAr?$AA?9?$AAd?$AAz?$AA?$AA@ 300c22f4     LIBCMT:winapinls.obj
 0002:00024300       ??_C@_1M@FJNKGKIG@?$AAa?$AAr?$AA?9?$AAe?$AAg?$AA?$AA@ 300c2300     LIBCMT:winapinls.obj
 0002:0002430c       ??_C@_1M@FLGKKCLO@?$AAa?$AAr?$AA?9?$AAi?$AAq?$AA?$AA@ 300c230c     LIBCMT:winapinls.obj
 0002:00024318       ??_C@_1M@GNDIPALM@?$AAa?$AAr?$AA?9?$AAj?$AAo?$AA?$AA@ 300c2318     LIBCMT:winapinls.obj
 0002:00024324       ??_C@_1M@DDMJFMGJ@?$AAa?$AAr?$AA?9?$AAk?$AAw?$AA?$AA@ 300c2324     LIBCMT:winapinls.obj
 0002:00024330       ??_C@_1M@EJALMLHM@?$AAa?$AAr?$AA?9?$AAl?$AAb?$AA?$AA@ 300c2330     LIBCMT:winapinls.obj
 0002:0002433c       ??_C@_1M@MOBDBLOC@?$AAa?$AAr?$AA?9?$AAl?$AAy?$AA?$AA@ 300c233c     LIBCMT:winapinls.obj
 0002:00024348       ??_C@_1M@JAOCLHDH@?$AAa?$AAr?$AA?9?$AAm?$AAa?$AA?$AA@ 300c2348     LIBCMT:winapinls.obj
 0002:00024354       ??_C@_1M@JHPMKJIE@?$AAa?$AAr?$AA?9?$AAo?$AAm?$AA?$AA@ 300c2354     LIBCMT:winapinls.obj
 0002:00024360       ??_C@_1M@OEPGHFNH@?$AAa?$AAr?$AA?9?$AAq?$AAa?$AA?$AA@ 300c2360     LIBCMT:winapinls.obj
 0002:0002436c       ??_C@_1M@KJDONENM@?$AAa?$AAr?$AA?9?$AAs?$AAa?$AA?$AA@ 300c236c     LIBCMT:winapinls.obj
 0002:00024378       ??_C@_1M@DMJDKLKM@?$AAa?$AAr?$AA?9?$AAs?$AAy?$AA?$AA@ 300c2378     LIBCMT:winapinls.obj
 0002:00024384       ??_C@_1M@OMFIPEDC@?$AAa?$AAr?$AA?9?$AAt?$AAn?$AA?$AA@ 300c2384     LIBCMT:winapinls.obj
 0002:00024390       ??_C@_1M@IHMHGAON@?$AAa?$AAr?$AA?9?$AAy?$AAe?$AA?$AA@ 300c2390     LIBCMT:winapinls.obj
 0002:0002439c       ??_C@_1BG@KDCPGJGB@?$AAa?$AAz?$AA?9?$AAa?$AAz?$AA?9?$AAc?$AAy?$AAr?$AAl?$AA?$AA@ 300c239c     LIBCMT:winapinls.obj
 0002:000243b4       ??_C@_1BG@IBCKDDOE@?$AAa?$AAz?$AA?9?$AAa?$AAz?$AA?9?$AAl?$AAa?$AAt?$AAn?$AA?$AA@ 300c23b4     LIBCMT:winapinls.obj
 0002:000243cc       ??_C@_1M@EGPFDCPD@?$AAb?$AAe?$AA?9?$AAb?$AAy?$AA?$AA@ 300c23cc     LIBCMT:winapinls.obj
 0002:000243d8       ??_C@_1M@PCMGMCGC@?$AAb?$AAg?$AA?9?$AAb?$AAg?$AA?$AA@ 300c23d8     LIBCMT:winapinls.obj
 0002:000243e4       ??_C@_1M@BJBMFGOB@?$AAb?$AAn?$AA?9?$AAi?$AAn?$AA?$AA@ 300c23e4     LIBCMT:winapinls.obj
 0002:000243f0       ??_C@_1BG@EAKMMACD@?$AAb?$AAs?$AA?9?$AAb?$AAa?$AA?9?$AAl?$AAa?$AAt?$AAn?$AA?$AA@ 300c23f0     LIBCMT:winapinls.obj
 0002:00024408       ??_C@_1M@KGADAODK@?$AAc?$AAa?$AA?9?$AAe?$AAs?$AA?$AA@ 300c2408     LIBCMT:winapinls.obj
 0002:00024414       ??_C@_1M@COAJPDHI@?$AAc?$AAs?$AA?9?$AAc?$AAz?$AA?$AA@ 300c2414     LIBCMT:winapinls.obj
 0002:00024420       ??_C@_1M@DHBHFONH@?$AAc?$AAy?$AA?9?$AAg?$AAb?$AA?$AA@ 300c2420     LIBCMT:winapinls.obj
 0002:0002442c       ??_C@_1M@IMGKELGA@?$AAd?$AAa?$AA?9?$AAd?$AAk?$AA?$AA@ 300c242c     LIBCMT:winapinls.obj
 0002:00024438       ??_C@_1M@NNDGDNGA@?$AAd?$AAe?$AA?9?$AAa?$AAt?$AA?$AA@ 300c2438     LIBCMT:winapinls.obj
 0002:00024444       ??_C@_1M@IKDBHEEM@?$AAd?$AAe?$AA?9?$AAc?$AAh?$AA?$AA@ 300c2444     LIBCMT:winapinls.obj
 0002:00024450       ??_C@_1M@GFFOJMCJ@?$AAd?$AAe?$AA?9?$AAd?$AAe?$AA?$AA@ 300c2450     LIBCMT:winapinls.obj
 0002:0002445c       ??_C@_1M@MDNLKBPM@?$AAd?$AAe?$AA?9?$AAl?$AAi?$AA?$AA@ 300c245c     LIBCMT:winapinls.obj
 0002:00024468       ??_C@_1M@NJBEEJNL@?$AAd?$AAe?$AA?9?$AAl?$AAu?$AA?$AA@ 300c2468     LIBCMT:winapinls.obj
 0002:00024474       ??_C@_1O@GNNELBAP@?$AAd?$AAi?$AAv?$AA?9?$AAm?$AAv?$AA?$AA@ 300c2474     LIBCMT:winapinls.obj
 0002:00024484       ??_C@_1M@EJLEOGAE@?$AAe?$AAl?$AA?9?$AAg?$AAr?$AA?$AA@ 300c2484     LIBCMT:winapinls.obj
 0002:00024490       ??_C@_1M@GMPONJN@?$AAe?$AAn?$AA?9?$AAa?$AAu?$AA?$AA@ 300c2490     LIBCMT:winapinls.obj
 0002:0002449c       ??_C@_1M@NIDIIPGF@?$AAe?$AAn?$AA?9?$AAb?$AAz?$AA?$AA@ 300c249c     LIBCMT:winapinls.obj
 0002:000244a8       ??_C@_1M@JEHMIMFO@?$AAe?$AAn?$AA?9?$AAc?$AAa?$AA?$AA@ 300c24a8     LIBCMT:winapinls.obj
 0002:000244b4       ??_C@_1M@IGMJCDLA@?$AAe?$AAn?$AA?9?$AAc?$AAb?$AA?$AA@ 300c24b4     LIBCMT:winapinls.obj
 0002:000244c0       ??_C@_1M@BNFIGBKG@?$AAe?$AAn?$AA?9?$AAg?$AAb?$AA?$AA@ 300c24c0     LIBCMT:winapinls.obj
 0002:000244cc       ??_C@_1M@LKIFDIGP@?$AAe?$AAn?$AA?9?$AAi?$AAe?$AA?$AA@ 300c24cc     LIBCMT:winapinls.obj
 0002:000244d8       ??_C@_1M@PJKFGCCO@?$AAe?$AAn?$AA?9?$AAj?$AAm?$AA?$AA@ 300c24d8     LIBCMT:winapinls.obj
 0002:000244e4       ??_C@_1M@KPPKEPBO@?$AAe?$AAn?$AA?9?$AAn?$AAz?$AA?$AA@ 300c24e4     LIBCMT:winapinls.obj
 0002:000244f0       ??_C@_1M@GMDGLDOB@?$AAe?$AAn?$AA?9?$AAp?$AAh?$AA?$AA@ 300c24f0     LIBCMT:winapinls.obj
 0002:000244fc       ??_C@_1M@ONGIBJNA@?$AAe?$AAn?$AA?9?$AAt?$AAt?$AA?$AA@ 300c24fc     LIBCMT:winapinls.obj
 0002:00024508       ??_C@_1M@LLODPCMM@?$AAe?$AAn?$AA?9?$AAu?$AAs?$AA?$AA@ 300c2508     LIBCMT:winapinls.obj
 0002:00024514       ??_C@_1M@LAKFNPAN@?$AAe?$AAn?$AA?9?$AAz?$AAa?$AA?$AA@ 300c2514     LIBCMT:winapinls.obj
 0002:00024520       ??_C@_1M@MFNHNHEO@?$AAe?$AAn?$AA?9?$AAz?$AAw?$AA?$AA@ 300c2520     LIBCMT:winapinls.obj
 0002:0002452c       ??_C@_1M@EJEINPHM@?$AAe?$AAs?$AA?9?$AAa?$AAr?$AA?$AA@ 300c252c     LIBCMT:winapinls.obj
 0002:00024538       ??_C@_1M@GNKPCCJA@?$AAe?$AAs?$AA?9?$AAb?$AAo?$AA?$AA@ 300c2538     LIBCMT:winapinls.obj
 0002:00024544       ??_C@_1M@LEEGFONL@?$AAe?$AAs?$AA?9?$AAc?$AAl?$AA?$AA@ 300c2544     LIBCMT:winapinls.obj
 0002:00024550       ??_C@_1M@KGPDPBDF@?$AAe?$AAs?$AA?9?$AAc?$AAo?$AA?$AA@ 300c2550     LIBCMT:winapinls.obj
 0002:0002455c       ??_C@_1M@EIAHOHH@?$AAe?$AAs?$AA?9?$AAc?$AAr?$AA?$AA@ 300c255c     LIBCMT:winapinls.obj
 0002:00024568       ??_C@_1M@LLPGMBIN@?$AAe?$AAs?$AA?9?$AAd?$AAo?$AA?$AA@ 300c2568     LIBCMT:winapinls.obj
 0002:00024574       ??_C@_1M@DKHMKNJA@?$AAe?$AAs?$AA?9?$AAe?$AAc?$AA?$AA@ 300c2574     LIBCMT:winapinls.obj
 0002:00024580       ??_C@_1M@GKGFPKAP@?$AAe?$AAs?$AA?9?$AAe?$AAs?$AA?$AA@ 300c2580     LIBCMT:winapinls.obj
 0002:0002458c       ??_C@_1M@LKHKGDLN@?$AAe?$AAs?$AA?9?$AAg?$AAt?$AA?$AA@ 300c258c     LIBCMT:winapinls.obj
 0002:00024598       ??_C@_1M@HEIIGGJD@?$AAe?$AAs?$AA?9?$AAh?$AAn?$AA?$AA@ 300c2598     LIBCMT:winapinls.obj
 0002:000245a4       ??_C@_1M@FBDHPPGD@?$AAe?$AAs?$AA?9?$AAm?$AAx?$AA?$AA@ 300c25a4     LIBCMT:winapinls.obj
 0002:000245b0       ??_C@_1M@DPAGLNDH@?$AAe?$AAs?$AA?9?$AAn?$AAi?$AA?$AA@ 300c25b0     LIBCMT:winapinls.obj
 0002:000245bc       ??_C@_1M@MDGOPGDD@?$AAe?$AAs?$AA?9?$AAp?$AAa?$AA?$AA@ 300c25bc     LIBCMT:winapinls.obj
 0002:000245c8       ??_C@_1M@EMAMGBGE@?$AAe?$AAs?$AA?9?$AAp?$AAe?$AA?$AA@ 300c25c8     LIBCMT:winapinls.obj
 0002:000245d4       ??_C@_1M@IBMCAOEC@?$AAe?$AAs?$AA?9?$AAp?$AAr?$AA?$AA@ 300c25d4     LIBCMT:winapinls.obj
 0002:000245e0       ??_C@_1M@FGMDIJED@?$AAe?$AAs?$AA?9?$AAp?$AAy?$AA?$AA@ 300c25e0     LIBCMT:winapinls.obj
 0002:000245ec       ??_C@_1M@IIDEOLLL@?$AAe?$AAs?$AA?9?$AAs?$AAv?$AA?$AA@ 300c25ec     LIBCMT:winapinls.obj
 0002:000245f8       ??_C@_1M@GAOBIPA@?$AAe?$AAs?$AA?9?$AAu?$AAy?$AA?$AA@ 300c25f8     LIBCMT:winapinls.obj
 0002:00024604       ??_C@_1M@JKFFICHJ@?$AAe?$AAs?$AA?9?$AAv?$AAe?$AA?$AA@ 300c2604     LIBCMT:winapinls.obj
 0002:00024610       ??_C@_1M@PNMLOJDF@?$AAe?$AAt?$AA?9?$AAe?$AAe?$AA?$AA@ 300c2610     LIBCMT:winapinls.obj
 0002:0002461c       ??_C@_1M@GHHLIKEI@?$AAe?$AAu?$AA?9?$AAe?$AAs?$AA?$AA@ 300c261c     LIBCMT:winapinls.obj
 0002:00024628       ??_C@_1M@PBNONODE@?$AAf?$AAa?$AA?9?$AAi?$AAr?$AA?$AA@ 300c2628     LIBCMT:winapinls.obj
 0002:00024634       ??_C@_1M@JEEHPMIL@?$AAf?$AAi?$AA?9?$AAf?$AAi?$AA?$AA@ 300c2634     LIBCMT:winapinls.obj
 0002:00024640       ??_C@_1M@LMDCNDBA@?$AAf?$AAo?$AA?9?$AAf?$AAo?$AA?$AA@ 300c2640     LIBCMT:winapinls.obj
 0002:0002464c       ??_C@_1M@JKEOHLDK@?$AAf?$AAr?$AA?9?$AAb?$AAe?$AA?$AA@ 300c264c     LIBCMT:winapinls.obj
 0002:00024658       ??_C@_1M@NOHADPMI@?$AAf?$AAr?$AA?9?$AAc?$AAa?$AA?$AA@ 300c2658     LIBCMT:winapinls.obj
 0002:00024664       ??_C@_1M@KDHIHAEC@?$AAf?$AAr?$AA?9?$AAc?$AAh?$AA?$AA@ 300c2664     LIBCMT:winapinls.obj
 0002:00024670       ??_C@_1M@MMBBFGAK@?$AAf?$AAr?$AA?9?$AAf?$AAr?$AA?$AA@ 300c2670     LIBCMT:winapinls.obj
 0002:0002467c       ??_C@_1M@PAFNENNF@?$AAf?$AAr?$AA?9?$AAl?$AAu?$AA?$AA@ 300c267c     LIBCMT:winapinls.obj
 0002:00024688       ??_C@_1M@EOHDJGDD@?$AAf?$AAr?$AA?9?$AAm?$AAc?$AA?$AA@ 300c2688     LIBCMT:winapinls.obj
 0002:00024694       ??_C@_1M@FAPLLOPF@?$AAg?$AAl?$AA?9?$AAe?$AAs?$AA?$AA@ 300c2694     LIBCMT:winapinls.obj
 0002:000246a0       ??_C@_1M@FOPBFLOO@?$AAg?$AAu?$AA?9?$AAi?$AAn?$AA?$AA@ 300c26a0     LIBCMT:winapinls.obj
 0002:000246ac       ??_C@_1M@KBMCINPM@?$AAh?$AAe?$AA?9?$AAi?$AAl?$AA?$AA@ 300c26ac     LIBCMT:winapinls.obj
 0002:000246b8       ??_C@_1M@BBPHKFPJ@?$AAh?$AAi?$AA?9?$AAi?$AAn?$AA?$AA@ 300c26b8     LIBCMT:winapinls.obj
 0002:000246c4       ??_C@_1M@PMBNDPHD@?$AAh?$AAr?$AA?9?$AAb?$AAa?$AA?$AA@ 300c26c4     LIBCMT:winapinls.obj
 0002:000246d0       ??_C@_1M@BPCKOEGE@?$AAh?$AAr?$AA?9?$AAh?$AAr?$AA?$AA@ 300c26d0     LIBCMT:winapinls.obj
 0002:000246dc       ??_C@_1M@GACBMHKE@?$AAh?$AAu?$AA?9?$AAh?$AAu?$AA?$AA@ 300c26dc     LIBCMT:winapinls.obj
 0002:000246e8       ??_C@_1M@MILPAJJC@?$AAh?$AAy?$AA?9?$AAa?$AAm?$AA?$AA@ 300c26e8     LIBCMT:winapinls.obj
 0002:000246f4       ??_C@_1M@BABBICEC@?$AAi?$AAd?$AA?9?$AAi?$AAd?$AA?$AA@ 300c26f4     LIBCMT:winapinls.obj
 0002:00024700       ??_C@_1M@BIKNHHPF@?$AAi?$AAs?$AA?9?$AAi?$AAs?$AA?$AA@ 300c2700     LIBCMT:winapinls.obj
 0002:0002470c       ??_C@_1M@NMPCJPHE@?$AAi?$AAt?$AA?9?$AAc?$AAh?$AA?$AA@ 300c270c     LIBCMT:winapinls.obj
 0002:00024718       ??_C@_1M@GHKGFEDF@?$AAi?$AAt?$AA?9?$AAi?$AAt?$AA?$AA@ 300c2718     LIBCMT:winapinls.obj
 0002:00024724       ??_C@_1M@NIEJCJJA@?$AAj?$AAa?$AA?9?$AAj?$AAp?$AA?$AA@ 300c2724     LIBCMT:winapinls.obj
 0002:00024730       ??_C@_1M@JILFNBIM@?$AAk?$AAa?$AA?9?$AAg?$AAe?$AA?$AA@ 300c2730     LIBCMT:winapinls.obj
 0002:0002473c       ??_C@_1M@PACPMGPH@?$AAk?$AAk?$AA?9?$AAk?$AAz?$AA?$AA@ 300c273c     LIBCMT:winapinls.obj
 0002:00024748       ??_C@_1M@IELFGMHA@?$AAk?$AAn?$AA?9?$AAi?$AAn?$AA?$AA@ 300c2748     LIBCMT:winapinls.obj
 0002:00024754       ??_C@_1O@IBBJHCH@?$AAk?$AAo?$AAk?$AA?9?$AAi?$AAn?$AA?$AA@ 300c2754     LIBCMT:winapinls.obj
 0002:00024764       ??_C@_1M@DMHAEOGC@?$AAk?$AAo?$AA?9?$AAk?$AAr?$AA?$AA@ 300c2764     LIBCMT:winapinls.obj
 0002:00024770       ??_C@_1M@HBAHBIGA@?$AAk?$AAy?$AA?9?$AAk?$AAg?$AA?$AA@ 300c2770     LIBCMT:winapinls.obj
 0002:0002477c       ??_C@_1M@KPMILCJG@?$AAl?$AAt?$AA?9?$AAl?$AAt?$AA?$AA@ 300c277c     LIBCMT:winapinls.obj
 0002:00024788       ??_C@_1M@BDEKKCA@?$AAl?$AAv?$AA?9?$AAl?$AAv?$AA?$AA@ 300c2788     LIBCMT:winapinls.obj
 0002:00024794       ??_C@_1M@ELCKCCJJ@?$AAm?$AAi?$AA?9?$AAn?$AAz?$AA?$AA@ 300c2794     LIBCMT:winapinls.obj
 0002:000247a0       ??_C@_1M@CBOOLAPA@?$AAm?$AAk?$AA?9?$AAm?$AAk?$AA?$AA@ 300c27a0     LIBCMT:winapinls.obj
 0002:000247ac       ??_C@_1M@GPHNBJKN@?$AAm?$AAl?$AA?9?$AAi?$AAn?$AA?$AA@ 300c27ac     LIBCMT:winapinls.obj
 0002:000247b8       ??_C@_1M@PABJILIG@?$AAm?$AAn?$AA?9?$AAm?$AAn?$AA?$AA@ 300c27b8     LIBCMT:winapinls.obj
 0002:000247c4       ??_C@_1M@FGBKKIPG@?$AAm?$AAr?$AA?9?$AAi?$AAn?$AA?$AA@ 300c27c4     LIBCMT:winapinls.obj
 0002:000247d0       ??_C@_1M@NDBPDDAL@?$AAm?$AAs?$AA?9?$AAb?$AAn?$AA?$AA@ 300c27d0     LIBCMT:winapinls.obj
 0002:000247dc       ??_C@_1M@OPIHOOPI@?$AAm?$AAs?$AA?9?$AAm?$AAy?$AA?$AA@ 300c27dc     LIBCMT:winapinls.obj
 0002:000247e8       ??_C@_1M@PPDBCNFM@?$AAm?$AAt?$AA?9?$AAm?$AAt?$AA?$AA@ 300c27e8     LIBCMT:winapinls.obj
 0002:000247f4       ??_C@_1M@KDJDKMDD@?$AAn?$AAb?$AA?9?$AAn?$AAo?$AA?$AA@ 300c27f4     LIBCMT:winapinls.obj
 0002:00024800       ??_C@_1M@KFCFLMJP@?$AAn?$AAl?$AA?9?$AAb?$AAe?$AA?$AA@ 300c2800     LIBCMT:winapinls.obj
 0002:0002480c       ??_C@_1M@KPOPDDGO@?$AAn?$AAl?$AA?9?$AAn?$AAl?$AA?$AA@ 300c280c     LIBCMT:winapinls.obj
 0002:00024818       ??_C@_1M@LJKPEMLN@?$AAn?$AAn?$AA?9?$AAn?$AAo?$AA?$AA@ 300c2818     LIBCMT:winapinls.obj
 0002:00024824       ??_C@_1M@BDGHHBFL@?$AAn?$AAs?$AA?9?$AAz?$AAa?$AA?$AA@ 300c2824     LIBCMT:winapinls.obj
 0002:00024830       ??_C@_1M@IDEHOAP@?$AAp?$AAa?$AA?9?$AAi?$AAn?$AA?$AA@ 300c2830     LIBCMT:winapinls.obj
 0002:0002483c       ??_C@_1M@HDBKGOGH@?$AAp?$AAl?$AA?9?$AAp?$AAl?$AA?$AA@ 300c283c     LIBCMT:winapinls.obj
 0002:00024848       ??_C@_1M@LJLLCMEH@?$AAp?$AAt?$AA?9?$AAb?$AAr?$AA?$AA@ 300c2848     LIBCMT:winapinls.obj
 0002:00024854       ??_C@_1M@NCMONAAL@?$AAp?$AAt?$AA?9?$AAp?$AAt?$AA?$AA@ 300c2854     LIBCMT:winapinls.obj
 0002:00024860       ??_C@_1O@EAKMAJDN@?$AAq?$AAu?$AAz?$AA?9?$AAb?$AAo?$AA?$AA@ 300c2860     LIBCMT:winapinls.obj
 0002:00024870       ??_C@_1O@BHHPIGDN@?$AAq?$AAu?$AAz?$AA?9?$AAe?$AAc?$AA?$AA@ 300c2870     LIBCMT:winapinls.obj
 0002:00024880       ??_C@_1O@GBAPEKMJ@?$AAq?$AAu?$AAz?$AA?9?$AAp?$AAe?$AA?$AA@ 300c2880     LIBCMT:winapinls.obj
 0002:00024890       ??_C@_1M@CLGLEFBO@?$AAr?$AAo?$AA?9?$AAr?$AAo?$AA?$AA@ 300c2890     LIBCMT:winapinls.obj
 0002:0002489c       ??_C@_1M@CEEDODME@?$AAr?$AAu?$AA?9?$AAr?$AAu?$AA?$AA@ 300c289c     LIBCMT:winapinls.obj
 0002:000248a8       ??_C@_1M@HPKKKMPP@?$AAs?$AAa?$AA?9?$AAi?$AAn?$AA?$AA@ 300c28a8     LIBCMT:winapinls.obj
 0002:000248b4       ??_C@_1M@BKMAIGOJ@?$AAs?$AAe?$AA?9?$AAf?$AAi?$AA?$AA@ 300c28b4     LIBCMT:winapinls.obj
 0002:000248c0       ??_C@_1M@NDPIFLFI@?$AAs?$AAe?$AA?9?$AAn?$AAo?$AA?$AA@ 300c28c0     LIBCMT:winapinls.obj
 0002:000248cc       ??_C@_1M@DANKKHJ@?$AAs?$AAe?$AA?9?$AAs?$AAe?$AA?$AA@ 300c28cc     LIBCMT:winapinls.obj
 0002:000248d8       ??_C@_1M@PNBLONPJ@?$AAs?$AAk?$AA?9?$AAs?$AAk?$AA?$AA@ 300c28d8     LIBCMT:winapinls.obj
 0002:000248e4       ??_C@_1M@LFMODOAL@?$AAs?$AAl?$AA?9?$AAs?$AAi?$AA?$AA@ 300c28e4     LIBCMT:winapinls.obj
 0002:000248f0       ??_C@_1O@DFKOMPG@?$AAs?$AAm?$AAa?$AA?9?$AAn?$AAo?$AA?$AA@ 300c28f0     LIBCMT:winapinls.obj
 0002:00024900       ??_C@_1O@NDKPBNNH@?$AAs?$AAm?$AAa?$AA?9?$AAs?$AAe?$AA?$AA@ 300c2900     LIBCMT:winapinls.obj
 0002:00024910       ??_C@_1O@PLLKBHAB@?$AAs?$AAm?$AAj?$AA?9?$AAn?$AAo?$AA?$AA@ 300c2910     LIBCMT:winapinls.obj
 0002:00024920       ??_C@_1O@CLEPOGCA@?$AAs?$AAm?$AAj?$AA?9?$AAs?$AAe?$AA?$AA@ 300c2920     LIBCMT:winapinls.obj
 0002:00024930       ??_C@_1O@DLGJGKMK@?$AAs?$AAm?$AAn?$AA?9?$AAf?$AAi?$AA?$AA@ 300c2930     LIBCMT:winapinls.obj
 0002:00024940       ??_C@_1O@OJDJGAJC@?$AAs?$AAm?$AAs?$AA?9?$AAf?$AAi?$AA?$AA@ 300c2940     LIBCMT:winapinls.obj
 0002:00024950       ??_C@_1M@BOFOGHPB@?$AAs?$AAq?$AA?9?$AAa?$AAl?$AA?$AA@ 300c2950     LIBCMT:winapinls.obj
 0002:0002495c       ??_C@_1BG@LJBBIPGB@?$AAs?$AAr?$AA?9?$AAb?$AAa?$AA?9?$AAc?$AAy?$AAr?$AAl?$AA?$AA@ 300c295c     LIBCMT:winapinls.obj
 0002:00024974       ??_C@_1BG@JLBENFOE@?$AAs?$AAr?$AA?9?$AAb?$AAa?$AA?9?$AAl?$AAa?$AAt?$AAn?$AA?$AA@ 300c2974     LIBCMT:winapinls.obj
 0002:0002498c       ??_C@_1BG@KODPNHE@?$AAs?$AAr?$AA?9?$AAs?$AAp?$AA?9?$AAc?$AAy?$AAr?$AAl?$AA?$AA@ 300c298c     LIBCMT:winapinls.obj
 0002:000249a4       ??_C@_1BG@CIOGKHPB@?$AAs?$AAr?$AA?9?$AAs?$AAp?$AA?9?$AAl?$AAa?$AAt?$AAn?$AA?$AA@ 300c29a4     LIBCMT:winapinls.obj
 0002:000249bc       ??_C@_1M@NGFJLMAC@?$AAs?$AAv?$AA?9?$AAf?$AAi?$AA?$AA@ 300c29bc     LIBCMT:winapinls.obj
 0002:000249c8       ??_C@_1M@MPJEJAJC@?$AAs?$AAv?$AA?9?$AAs?$AAe?$AA?$AA@ 300c29c8     LIBCMT:winapinls.obj
 0002:000249d4       ??_C@_1M@MPNDHLFK@?$AAs?$AAw?$AA?9?$AAk?$AAe?$AA?$AA@ 300c29d4     LIBCMT:winapinls.obj
 0002:000249e0       ??_C@_1O@KOHBJJI@?$AAs?$AAy?$AAr?$AA?9?$AAs?$AAy?$AA?$AA@ 300c29e0     LIBCMT:winapinls.obj
 0002:000249f0       ??_C@_1M@LDCEFHA@?$AAt?$AAa?$AA?9?$AAi?$AAn?$AA?$AA@ 300c29f0     LIBCMT:winapinls.obj
 0002:000249fc       ??_C@_1M@CNJOFAK@?$AAt?$AAe?$AA?9?$AAi?$AAn?$AA?$AA@ 300c29fc     LIBCMT:winapinls.obj
 0002:00024a08       ??_C@_1M@GNAECACD@?$AAt?$AAh?$AA?9?$AAt?$AAh?$AA?$AA@ 300c2a08     LIBCMT:winapinls.obj
 0002:00024a14       ??_C@_1M@CHBIHOJO@?$AAt?$AAn?$AA?9?$AAz?$AAa?$AA?$AA@ 300c2a14     LIBCMT:winapinls.obj
 0002:00024a20       ??_C@_1M@GCCMIGPJ@?$AAt?$AAr?$AA?9?$AAt?$AAr?$AA?$AA@ 300c2a20     LIBCMT:winapinls.obj
 0002:00024a2c       ??_C@_1M@CELMCNBK@?$AAt?$AAt?$AA?9?$AAr?$AAu?$AA?$AA@ 300c2a2c     LIBCMT:winapinls.obj
 0002:00024a38       ??_C@_1M@KLMCELGA@?$AAu?$AAk?$AA?9?$AAu?$AAa?$AA?$AA@ 300c2a38     LIBCMT:winapinls.obj
 0002:00024a44       ??_C@_1M@EPAJJAJF@?$AAu?$AAr?$AA?9?$AAp?$AAk?$AA?$AA@ 300c2a44     LIBCMT:winapinls.obj
 0002:00024a50       ??_C@_1BG@GEGPMCDJ@?$AAu?$AAz?$AA?9?$AAu?$AAz?$AA?9?$AAc?$AAy?$AAr?$AAl?$AA?$AA@ 300c2a50     LIBCMT:winapinls.obj
 0002:00024a68       ??_C@_1BG@EGGKJILM@?$AAu?$AAz?$AA?9?$AAu?$AAz?$AA?9?$AAl?$AAa?$AAt?$AAn?$AA?$AA@ 300c2a68     LIBCMT:winapinls.obj
 0002:00024a80       ??_C@_1M@GFOCLFF@?$AAv?$AAi?$AA?9?$AAv?$AAn?$AA?$AA@ 300c2a80     LIBCMT:winapinls.obj
 0002:00024a8c       ??_C@_1M@CPAMEDFI@?$AAx?$AAh?$AA?9?$AAz?$AAa?$AA?$AA@ 300c2a8c     LIBCMT:winapinls.obj
 0002:00024a98       ??_C@_1O@EBKIFIGN@?$AAz?$AAh?$AA?9?$AAc?$AAh?$AAs?$AA?$AA@ 300c2a98     LIBCMT:winapinls.obj
 0002:00024aa8       ??_C@_1O@NMHPGANE@?$AAz?$AAh?$AA?9?$AAc?$AAh?$AAt?$AA?$AA@ 300c2aa8     LIBCMT:winapinls.obj
 0002:00024ab8       ??_C@_1M@LPINJOMC@?$AAz?$AAh?$AA?9?$AAc?$AAn?$AA?$AA@ 300c2ab8     LIBCMT:winapinls.obj
 0002:00024ac4       ??_C@_1M@OCJEJODD@?$AAz?$AAh?$AA?9?$AAh?$AAk?$AA?$AA@ 300c2ac4     LIBCMT:winapinls.obj
 0002:00024ad0       ??_C@_1M@DNDLJINH@?$AAz?$AAh?$AA?9?$AAm?$AAo?$AA?$AA@ 300c2ad0     LIBCMT:winapinls.obj
 0002:00024adc       ??_C@_1M@MBFDNDND@?$AAz?$AAh?$AA?9?$AAs?$AAg?$AA?$AA@ 300c2adc     LIBCMT:winapinls.obj
 0002:00024ae8       ??_C@_1M@IMEPLEPE@?$AAz?$AAh?$AA?9?$AAt?$AAw?$AA?$AA@ 300c2ae8     LIBCMT:winapinls.obj
 0002:00024af4       ??_C@_1M@BBGHNHJP@?$AAz?$AAu?$AA?9?$AAz?$AAa?$AA?$AA@ 300c2af4     LIBCMT:winapinls.obj
 0002:00024b00       ___lookuptable_s           300c2b00     LIBCMT:outputs.obj
 0002:00029cc0       __infinity                 300c7cc0     LIBCMT:87tran.obj
 0002:00029cca       __minfinity                300c7cca     LIBCMT:87tran.obj
 0002:00029cd4       __logemax                  300c7cd4     LIBCMT:87tran.obj
 0002:00029cfa       __OP_EXPjmptab             300c7cfa     LIBCMT:87tran.obj
 0002:0002b478       ??_C@_1FK@PGACCAFB@?$AAR?$AA6?$AA0?$AA0?$AA2?$AA?$AN?$AA?6?$AA?9?$AA?5?$AAf?$AAl?$AAo?$AAa?$AAt?$AAi?$AAn?$AAg?$AA?5?$AAp?$AAo?$AAi?$AAn?$AAt?$AA?5?$AAs?$AAu?$AAp?$AAp?$AAo?$AAr?$AAt?$AA?5@ 300c9478     LIBCMT:crt0msg.obj
 0002:0002b4d8       ??_C@_1FE@LLNEDJMD@?$AAR?$AA6?$AA0?$AA0?$AA8?$AA?$AN?$AA?6?$AA?9?$AA?5?$AAn?$AAo?$AAt?$AA?5?$AAe?$AAn?$AAo?$AAu?$AAg?$AAh?$AA?5?$AAs?$AAp?$AAa?$AAc?$AAe?$AA?5?$AAf?$AAo?$AAr?$AA?5?$AAa?$AAr@ 300c94d8     LIBCMT:crt0msg.obj
 0002:0002b530       ??_C@_1FI@HONFMGBI@?$AAR?$AA6?$AA0?$AA0?$AA9?$AA?$AN?$AA?6?$AA?9?$AA?5?$AAn?$AAo?$AAt?$AA?5?$AAe?$AAn?$AAo?$AAu?$AAg?$AAh?$AA?5?$AAs?$AAp?$AAa?$AAc?$AAe?$AA?5?$AAf?$AAo?$AAr?$AA?5?$AAe?$AAn@ 300c9530     LIBCMT:crt0msg.obj
 0002:0002b588       ??_C@_1EG@BEHAGFJD@?$AAR?$AA6?$AA0?$AA1?$AA0?$AA?$AN?$AA?6?$AA?9?$AA?5?$AAa?$AAb?$AAo?$AAr?$AAt?$AA?$CI?$AA?$CJ?$AA?5?$AAh?$AAa?$AAs?$AA?5?$AAb?$AAe?$AAe?$AAn?$AA?5?$AAc?$AAa?$AAl?$AAl?$AAe?$AAd@ 300c9588     LIBCMT:crt0msg.obj
 0002:0002b5d0       ??_C@_1FI@LOGNIKDM@?$AAR?$AA6?$AA0?$AA1?$AA6?$AA?$AN?$AA?6?$AA?9?$AA?5?$AAn?$AAo?$AAt?$AA?5?$AAe?$AAn?$AAo?$AAu?$AAg?$AAh?$AA?5?$AAs?$AAp?$AAa?$AAc?$AAe?$AA?5?$AAf?$AAo?$AAr?$AA?5?$AAt?$AAh@ 300c95d0     LIBCMT:crt0msg.obj
 0002:0002b628       ??_C@_1FK@BEOGODMC@?$AAR?$AA6?$AA0?$AA1?$AA7?$AA?$AN?$AA?6?$AA?9?$AA?5?$AAu?$AAn?$AAe?$AAx?$AAp?$AAe?$AAc?$AAt?$AAe?$AAd?$AA?5?$AAm?$AAu?$AAl?$AAt?$AAi?$AAt?$AAh?$AAr?$AAe?$AAa?$AAd?$AA?5@ 300c9628     LIBCMT:crt0msg.obj
 0002:0002b688       ??_C@_1EC@JIBHAOPH@?$AAR?$AA6?$AA0?$AA1?$AA8?$AA?$AN?$AA?6?$AA?9?$AA?5?$AAu?$AAn?$AAe?$AAx?$AAp?$AAe?$AAc?$AAt?$AAe?$AAd?$AA?5?$AAh?$AAe?$AAa?$AAp?$AA?5?$AAe?$AAr?$AAr?$AAo?$AAr?$AA?$AN?$AA?6@ 300c9688     LIBCMT:crt0msg.obj
 0002:0002b6d0       ??_C@_1FC@ECHBIFBC@?$AAR?$AA6?$AA0?$AA1?$AA9?$AA?$AN?$AA?6?$AA?9?$AA?5?$AAu?$AAn?$AAa?$AAb?$AAl?$AAe?$AA?5?$AAt?$AAo?$AA?5?$AAo?$AAp?$AAe?$AAn?$AA?5?$AAc?$AAo?$AAn?$AAs?$AAo?$AAl?$AAe?$AA?5@ 300c96d0     LIBCMT:crt0msg.obj
 0002:0002b728       ??_C@_1GK@FHCKBEFA@?$AAR?$AA6?$AA0?$AA2?$AA4?$AA?$AN?$AA?6?$AA?9?$AA?5?$AAn?$AAo?$AAt?$AA?5?$AAe?$AAn?$AAo?$AAu?$AAg?$AAh?$AA?5?$AAs?$AAp?$AAa?$AAc?$AAe?$AA?5?$AAf?$AAo?$AAr?$AA?5?$AA_?$AAo@ 300c9728     LIBCMT:crt0msg.obj
 0002:0002b798       ??_C@_1EM@MAADIHMB@?$AAR?$AA6?$AA0?$AA2?$AA5?$AA?$AN?$AA?6?$AA?9?$AA?5?$AAp?$AAu?$AAr?$AAe?$AA?5?$AAv?$AAi?$AAr?$AAt?$AAu?$AAa?$AAl?$AA?5?$AAf?$AAu?$AAn?$AAc?$AAt?$AAi?$AAo?$AAn?$AA?5?$AAc@ 300c9798     LIBCMT:crt0msg.obj
 0002:0002b7e8       ??_C@_1GK@MCAAGJMO@?$AAR?$AA6?$AA0?$AA2?$AA6?$AA?$AN?$AA?6?$AA?9?$AA?5?$AAn?$AAo?$AAt?$AA?5?$AAe?$AAn?$AAo?$AAu?$AAg?$AAh?$AA?5?$AAs?$AAp?$AAa?$AAc?$AAe?$AA?5?$AAf?$AAo?$AAr?$AA?5?$AAs?$AAt@ 300c97e8     LIBCMT:crt0msg.obj
 0002:0002b858       ??_C@_1GK@MFGOKLAG@?$AAR?$AA6?$AA0?$AA2?$AA7?$AA?$AN?$AA?6?$AA?9?$AA?5?$AAn?$AAo?$AAt?$AA?5?$AAe?$AAn?$AAo?$AAu?$AAg?$AAh?$AA?5?$AAs?$AAp?$AAa?$AAc?$AAe?$AA?5?$AAf?$AAo?$AAr?$AA?5?$AAl?$AAo@ 300c9858     LIBCMT:crt0msg.obj
 0002:0002b8c8       ??_C@_1EK@HHFLMAOL@?$AAR?$AA6?$AA0?$AA2?$AA8?$AA?$AN?$AA?6?$AA?9?$AA?5?$AAu?$AAn?$AAa?$AAb?$AAl?$AAe?$AA?5?$AAt?$AAo?$AA?5?$AAi?$AAn?$AAi?$AAt?$AAi?$AAa?$AAl?$AAi?$AAz?$AAe?$AA?5?$AAh?$AAe@ 300c98c8     LIBCMT:crt0msg.obj
 0002:0002b914       ??_C@_1DO@BMFCDCD@?$AAR?$AA6?$AA0?$AA3?$AA0?$AA?$AN?$AA?6?$AA?9?$AA?5?$AAC?$AAR?$AAT?$AA?5?$AAn?$AAo?$AAt?$AA?5?$AAi?$AAn?$AAi?$AAt?$AAi?$AAa?$AAl?$AAi?$AAz?$AAe?$AAd?$AA?$AN?$AA?6?$AA?$AA@ 300c9914     LIBCMT:crt0msg.obj
 0002:0002b958       ??_C@_1MG@ENCOOIDF@?$AAR?$AA6?$AA0?$AA3?$AA1?$AA?$AN?$AA?6?$AA?9?$AA?5?$AAA?$AAt?$AAt?$AAe?$AAm?$AAp?$AAt?$AA?5?$AAt?$AAo?$AA?5?$AAi?$AAn?$AAi?$AAt?$AAi?$AAa?$AAl?$AAi?$AAz?$AAe?$AA?5?$AAt@ 300c9958     LIBCMT:crt0msg.obj
 0002:0002ba20       ??_C@_1GG@GOPILAJP@?$AAR?$AA6?$AA0?$AA3?$AA2?$AA?$AN?$AA?6?$AA?9?$AA?5?$AAn?$AAo?$AAt?$AA?5?$AAe?$AAn?$AAo?$AAu?$AAg?$AAh?$AA?5?$AAs?$AAp?$AAa?$AAc?$AAe?$AA?5?$AAf?$AAo?$AAr?$AA?5?$AAl?$AAo@ 300c9a20     LIBCMT:crt0msg.obj
 0002:0002ba88       ??_C@_1BOO@KGEDBGAJ@?$AAR?$AA6?$AA0?$AA3?$AA3?$AA?$AN?$AA?6?$AA?9?$AA?5?$AAA?$AAt?$AAt?$AAe?$AAm?$AAp?$AAt?$AA?5?$AAt?$AAo?$AA?5?$AAu?$AAs?$AAe?$AA?5?$AAM?$AAS?$AAI?$AAL?$AA?5?$AAc?$AAo?$AAd@ 300c9a88     LIBCMT:crt0msg.obj
 0002:0002bc78       ??_C@_1GG@MKFPEKFO@?$AAR?$AA6?$AA0?$AA3?$AA4?$AA?$AN?$AA?6?$AA?9?$AA?5?$AAi?$AAn?$AAc?$AAo?$AAn?$AAs?$AAi?$AAs?$AAt?$AAe?$AAn?$AAt?$AA?5?$AAo?$AAn?$AAe?$AAx?$AAi?$AAt?$AA?5?$AAb?$AAe?$AAg@ 300c9c78     LIBCMT:crt0msg.obj
 0002:0002bce0       ??_C@_1BO@BFCDCGC@?$AAD?$AAO?$AAM?$AAA?$AAI?$AAN?$AA?5?$AAe?$AAr?$AAr?$AAo?$AAr?$AA?$AN?$AA?6?$AA?$AA@ 300c9ce0     LIBCMT:crt0msg.obj
 0002:0002bd00       ??_C@_1BK@KMOMNAAI@?$AAS?$AAI?$AAN?$AAG?$AA?5?$AAe?$AAr?$AAr?$AAo?$AAr?$AA?$AN?$AA?6?$AA?$AA@ 300c9d00     LIBCMT:crt0msg.obj
 0002:0002bd1c       ??_C@_1BM@JBBEPPHI@?$AAT?$AAL?$AAO?$AAS?$AAS?$AA?5?$AAe?$AAr?$AAr?$AAo?$AAr?$AA?$AN?$AA?6?$AA?$AA@ 300c9d1c     LIBCMT:crt0msg.obj
 0002:0002bd38       ??_C@_15JNBOKNOG@?$AA?$AN?$AA?6?$AA?$AA@ 300c9d38     LIBCMT:crt0msg.obj
 0002:0002bd40       ??_C@_1BO@BKOMIGKJ@?$AAr?$AAu?$AAn?$AAt?$AAi?$AAm?$AAe?$AA?5?$AAe?$AAr?$AAr?$AAo?$AAr?$AA?5?$AA?$AA@ 300c9d40     LIBCMT:crt0msg.obj
 0002:0002bd60       ??_C@_1DE@JNGNBFGO@?$AAR?$AAu?$AAn?$AAt?$AAi?$AAm?$AAe?$AA?5?$AAE?$AAr?$AAr?$AAo?$AAr?$AA?$CB?$AA?6?$AA?6?$AAP?$AAr?$AAo?$AAg?$AAr?$AAa?$AAm?$AA?3?$AA?5?$AA?$AA@ 300c9d60     LIBCMT:crt0msg.obj
 0002:0002bd94       ??_C@_1CO@EAEJAADC@?$AA?$DM?$AAp?$AAr?$AAo?$AAg?$AAr?$AAa?$AAm?$AA?5?$AAn?$AAa?$AAm?$AAe?$AA?5?$AAu?$AAn?$AAk?$AAn?$AAo?$AAw?$AAn?$AA?$DO?$AA?$AA@ 300c9d94     LIBCMT:crt0msg.obj
 0002:0002bdc4       ??_C@_17LGKOMLJ@?$AA?4?$AA?4?$AA?4?$AA?$AA@ 300c9dc4     LIBCMT:crt0msg.obj
 0002:0002bdcc       ??_C@_15IABLJNFO@?$AA?6?$AA?6?$AA?$AA@ 300c9dcc     LIBCMT:crt0msg.obj
 0002:0002bdd8       ??_C@_1EK@MBDPDCGA@?$AAM?$AAi?$AAc?$AAr?$AAo?$AAs?$AAo?$AAf?$AAt?$AA?5?$AAV?$AAi?$AAs?$AAu?$AAa?$AAl?$AA?5?$AAC?$AA?$CL?$AA?$CL?$AA?5?$AAR?$AAu?$AAn?$AAt?$AAi?$AAm?$AAe?$AA?5?$AAL?$AAi?$AAb@ 300c9dd8     LIBCMT:crt0msg.obj
 0002:0002be24       ??_C@_06PGGFOGJG@1?$CDSNAN?$AA@ 300c9e24     LIBCMT:x10fout.obj
 0002:0002be2c       ??_C@_05PHHOCPM@1?$CDIND?$AA@ 300c9e2c     LIBCMT:x10fout.obj
 0002:0002be34       ??_C@_05DNEBIAHO@1?$CDINF?$AA@ 300c9e34     LIBCMT:x10fout.obj
 0002:0002be3c       ??_C@_06IMKFLFPG@1?$CDQNAN?$AA@ 300c9e3c     LIBCMT:x10fout.obj
 0002:0002be44       ??_C@_1BG@GOEBHBDC@?$AAU?$AAS?$AAE?$AAR?$AA3?$AA2?$AA?4?$AAD?$AAL?$AAL?$AA?$AA@ 300c9e44     LIBCMT:crtmboxw.obj
 0002:0002be5c       ??_C@_0M@DLDCCGNP@MessageBoxW?$AA@ 300c9e5c     LIBCMT:crtmboxw.obj
 0002:0002be68       ??_C@_0BA@HNOPNCHB@GetActiveWindow?$AA@ 300c9e68     LIBCMT:crtmboxw.obj
 0002:0002be78       ??_C@_0BD@HHGDFDBJ@GetLastActivePopup?$AA@ 300c9e78     LIBCMT:crtmboxw.obj
 0002:0002be8c       ??_C@_0BK@DEKFELLI@GetUserObjectInformationW?$AA@ 300c9e8c     LIBCMT:crtmboxw.obj
 0002:0002bea8       ??_C@_0BI@DFKBFLJE@GetProcessWindowStation?$AA@ 300c9ea8     LIBCMT:crtmboxw.obj
 0002:0002bec0       ??_C@_1BA@BALFACEM@?$AAC?$AAO?$AAN?$AAO?$AAU?$AAT?$AA$?$AA?$AA@ 300c9ec0     LIBCMT:initcon.obj
 0002:0002bed0       __load_config_used         300c9ed0     LIBCMT:loadcfg.obj
 0002:0002bf20       ___safe_se_handler_table   300c9f20     <linker-defined>
 0002:0002bf2c       ___rtc_iaa                 300c9f2c     LIBCMT:initsect.obj
 0002:0002bf30       ___rtc_izz                 300c9f30     LIBCMT:initsect.obj
 0002:0002bf34       ___rtc_taa                 300c9f34     LIBCMT:initsect.obj
 0002:0002bf38       ___rtc_tzz                 300c9f38     LIBCMT:initsect.obj
 0002:0002c2dc       __IMPORT_DESCRIPTOR_KERNEL32 300ca2dc     kernel32:KERNEL32.dll
 0002:0002c2f0       __NULL_IMPORT_DESCRIPTOR   300ca2f0     kernel32:KERNEL32.dll
 0003:00000000       _WeaponReadyAnim           300cb000     bg_misc.obj
 0003:0000004c       _bg_numItems               300cb04c     bg_misc.obj
 0003:00000050       _WeaponAttackAnim          300cb050     bg_misc.obj
 0003:000000a0       _WeaponReadyAnim2          300cb0a0     bg_misc.obj
 0003:000000f0       _WeaponAttackAnim2         300cb0f0     bg_misc.obj
 0003:00000140       _forcePowerDarkLight       300cb140     bg_misc.obj
 0003:00000188       _bg_itemlist               300cb188     bg_misc.obj
 0003:00000d20       _eventnames                300cbd20     bg_misc.obj
 0003:00000ef8       _bg_customSiegeSoundNames  300cbef8     bg_misc.obj
 0003:00000f70       _bgToggleableSurfaces      300cbf70     bg_misc.obj
 0003:00000ff0       _forcePowerSorted          300cbff0     bg_misc.obj
 0003:00001038       _WeaponReadyLegsAnim       300cc038     bg_misc.obj
 0003:00001084       _forceMasteryLevels        300cc084     bg_misc.obj
 0003:000010a4       _forceMasteryPoints        300cc0a4     bg_misc.obj
 0003:000010c8       _bgForcePowerCost          300cc0c8     bg_misc.obj
 0003:00001368       _animTable                 300cc368     bg_panimate.obj
 0003:000044c0       _bgNumAllAnims             300cf4c0     bg_panimate.obj
 0003:000044c8       _pm_stopspeed              300cf4c8     bg_pmove.obj
 0003:000044cc       _pm_duckScale              300cf4cc     bg_pmove.obj
 0003:000044d0       _pm_swimScale              300cf4d0     bg_pmove.obj
 0003:000044d4       _pm_wadeScale              300cf4d4     bg_pmove.obj
 0003:000044d8       _pm_accelerate             300cf4d8     bg_pmove.obj
 0003:000044dc       _pm_airaccelerate          300cf4dc     bg_pmove.obj
 0003:000044e0       _pm_wateraccelerate        300cf4e0     bg_pmove.obj
 0003:000044e4       _pm_flyaccelerate          300cf4e4     bg_pmove.obj
 0003:000044e8       _pm_friction               300cf4e8     bg_pmove.obj
 0003:000044ec       _pm_waterfriction          300cf4ec     bg_pmove.obj
 0003:000044f0       _pm_flightfriction         300cf4f0     bg_pmove.obj
 0003:000044f4       _pm_vehicleaccelerate      300cf4f4     bg_pmove.obj
 0003:000044f8       _forcePowerNeeded          300cf4f8     bg_pmove.obj
 0003:00004618       _forceJumpHeightMax        300cf618     bg_pmove.obj
 0003:00004628       _ForceFallBrakeRate        300cf628     bg_pmove.obj
 0003:00004638       _pm_spectatorfriction      300cf638     bg_pmove.obj
 0003:0000463c       _forceJumpHeight           300cf63c     bg_pmove.obj
 0003:0000464c       _forceJumpStrength         300cf64c     bg_pmove.obj
 0003:00004674       _forceSpeedLevels          300cf674     bg_pmove.obj
 0003:00004688       _transitionMove            300cf688     bg_saber.obj
 0003:00004788       _bg_parryDebounce          300cf788     bg_saber.obj
 0003:00004798       _saberMoveTransitionAngle  300cf798     bg_saber.obj
 0003:00004898       _saberMoveData             300cf898     bg_saber.obj
 0003:000061e8       _SaberTable                300d11e8     bg_saberLoad.obj
 0003:00006250       _SaberMoveTable            300d1250     bg_saberLoad.obj
 0003:00006770       _bgSiegeClassFlagNames     300d1770     bg_saga.obj
 0003:000067b8       _StanceTable               300d17b8     bg_saga.obj
 0003:00006800       _WPTable                   300d1800     bg_saga.obj
 0003:000068b0       _FPTable                   300d18b0     bg_saga.obj
 0003:00006948       _HoldableTable             300d1948     bg_saga.obj
 0003:000069b0       _PowerupTable              300d19b0     bg_saga.obj
 0003:00006a38       _classTitles               300d1a38     bg_saga.obj
 0003:00006a50       _vehWeaponFields           300d1a50     bg_vehicleLoad.obj
 0003:00006b7c       _numVehicleWeapons         300d1b7c     bg_vehicleLoad.obj
 0003:00006b80       _vehicleFields             300d1b80     bg_vehicleLoad.obj
 0003:00007444       _VehicleTable              300d2444     bg_vehicleLoad.obj
 0003:00007480       _weaponData                300d2480     bg_weapons.obj
 0003:000078a8       _ammoData                  300d28a8     bg_weapons.obj
 0003:000078d0       _ammoPool                  300d28d0     bg_weapons.obj
 0003:00007a00       _weaponSlots               300d2a00     bg_weapons.obj
 0003:00007aa0       _WP_MuzzlePoint            300d2aa0     bg_weapons.obj
 0003:00007b88       _WP_MuzzlePoint2           300d2b88     bg_weapons.obj
 0003:00007d70       _cg_targVeh                300d2d70     cg_draw.obj
 0003:00007d74       _bluehudtint               300d2d74     cg_draw.obj
 0003:00007d84       _redhudtint                300d2d84     cg_draw.obj
 0003:00007d94       _armorTicName              300d2d94     cg_draw.obj
 0003:00007db4       _forceTicName              300d2db4     cg_draw.obj
 0003:00007dd4       _dodgeTicName              300d2dd4     cg_draw.obj
 0003:00007df4       _ammoTicName               300d2df4     cg_draw.obj
 0003:00007e14       _mishapTicName             300d2e14     cg_draw.obj
 0003:00007e50       _showPowersName            300d2e50     cg_draw.obj
 0003:00007e9c       _vehDamageData             300d2e9c     cg_draw.obj
 0003:00007ec0       _cg_radarRange             300d2ec0     cg_draw.obj
 0003:00007ec8       _CG_BMS_MID                300d2ec8     cg_ents.obj
 0003:00007ecc       _CG_BMS_END                300d2ecc     cg_ents.obj
 0003:00007ed0       _forceHolocronModels       300d2ed0     cg_ents.obj
 0003:00007f18       _cg_stringEdVoiceChatTable 300d2f18     cg_event.obj
 0003:00007f90       _NPCClasses                300d2f90     cg_event.obj
 0003:000081a0       _holsterTypeTable          300d31a0     cg_holster.obj
 0003:00008230       _holsterBoneTable          300d3230     cg_holster.obj
 0003:00008b98       _colorTable                300d3b98     cg_main.obj
 0003:00008fd0       _cg_spawnFields            300d3fd0     cg_main.obj
 0003:00009108       _HolocronIcons             300d4108     cg_main.obj
 0003:0000917c       _forceModelModificationCount 300d417c     cg_main.obj
 0003:00009300       _cl_numparticles           300d4300     cg_marks.obj
 0003:00009358       _cg_customSoundNames       300d4358     cg_players.obj
 0003:000093f8       _cg_customCombatSoundNames 300d43f8     cg_players.obj
 0003:00009498       _cg_customExtraSoundNames  300d4498     cg_players.obj
 0003:00009538       _cg_customJediSoundNames   300d4538     cg_players.obj
 0003:000095d8       _cg_customDuelSoundNames   300d45d8     cg_players.obj
 0003:00009678       _animEventTypeTable        300d4678     cg_players.obj
 0003:00009fe0       _footstepTypeTable         300d4fe0     cg_players.obj
 0003:0000a008       _cgNumAnimEvents           300d5008     cg_players.obj
 0003:0000a014       _cg_autoMapZoom            300d5014     cg_view.obj
 0003:0000a018       _cg_autoMapAngle           300d5018     cg_view.obj
 0003:0000a06c       _axisDefault               300d506c     q_math.obj
 0003:0000a090       _bytedirs                  300d5090     q_math.obj
 0003:0000a828       _colorBlack                300d5828     q_math.obj
 0003:0000a838       _colorRed                  300d5838     q_math.obj
 0003:0000a848       _colorGreen                300d5848     q_math.obj
 0003:0000a858       _colorBlue                 300d5858     q_math.obj
 0003:0000a868       _colorYellow               300d5868     q_math.obj
 0003:0000a878       _colorMagenta              300d5878     q_math.obj
 0003:0000a888       _colorCyan                 300d5888     q_math.obj
 0003:0000a898       _colorWhite                300d5898     q_math.obj
 0003:0000a8a8       _colorLtGrey               300d58a8     q_math.obj
 0003:0000a8b8       _colorMdGrey               300d58b8     q_math.obj
 0003:0000a8c8       _colorDkGrey               300d58c8     q_math.obj
 0003:0000a8d8       _colorLtBlue               300d58d8     q_math.obj
 0003:0000a8e8       _colorDkBlue               300d58e8     q_math.obj
 0003:0000a8f8       _g_color_table             300d58f8     q_math.obj
 0003:0000a978       _scriptCommandCount        300d5978     ui_shared.obj
 0003:0000b2c8       _menuParseKeywords         300d62c8     ui_shared.obj
 0003:0000b478       _itemFlags                 300d6478     ui_shared.obj
 0003:0000b488       _styles                    300d6488     ui_shared.obj
 0003:0000b4a4       _alignment                 300d64a4     ui_shared.obj
 0003:0000b4b8       _types                     300d64b8     ui_shared.obj
 0003:0000b500       _itemParseKeywords         300d6500     ui_shared.obj
 0003:0000b908       _commandList               300d6908     ui_shared.obj
 0003:0000ba00       __fltused                  300d6a00     LIBCMT:fpinit.obj
 0003:0000ba04       __ldused                   300d6a04     LIBCMT:fpinit.obj
 0003:0000ba10       ___isa_enabled             300d6a10     LIBCMT:cpu_disp.obj
 0003:0000ba14       __cfltcvt_tab              300d6a14     LIBCMT:cmiscdat.obj
 0003:0000bbb0       __mbctype                  300d6bb0     LIBCMT:mbctype.obj
 0003:0000bcb8       __mbcasemap                300d6cb8     LIBCMT:mbctype.obj
 0003:0000bdb8       ___initialmbcinfo          300d6db8     LIBCMT:mbctype.obj
 0003:0000bfdc       ___ptmbcinfo               300d6fdc     LIBCMT:mbctype.obj
 0003:0000c0d0       ___flsindex                300d70d0     LIBCMT:tidtable.obj
 0003:0000c0d4       ___mb_cur_max              300d70d4     LIBCMT:nlsdata.obj
 0003:0000c0d8       ___wclocalestr             300d70d8     LIBCMT:nlsdata.obj
 0003:0000c0e0       ___lc_time_c               300d70e0     LIBCMT:nlsdata.obj
 0003:0000c244       ___ptlocinfo               300d7244     LIBCMT:nlsdata.obj
 0003:0000c248       ___initiallocinfo          300d7248     LIBCMT:nlsdata.obj
 0003:0000c300       ___initiallocalestructinfo 300d7300     LIBCMT:nlsdata.obj
 0003:0000c308       ___globallocalestatus      300d7308     LIBCMT:glstatus.obj
 0003:0000c30c       ___security_cookie         300d730c     LIBCMT:gs_cookie.obj
 0003:0000c310       ___security_cookie_complement 300d7310     LIBCMT:gs_cookie.obj
 0003:0000c34c       ___nullstring              300d734c     LIBCMT:output.obj
 0003:0000c350       ___wnullstring             300d7350     LIBCMT:output.obj
 0003:0000c360       __HUGE                     300d7360     LIBCMT:huge.obj
 0003:0000c380       __half                     300d7380     LIBCMT:pow.obj
 0003:0000c3a0       ___badioinfo               300d73a0     LIBCMT:ioinit.obj
 0003:0000c420       __pow10pos                 300d7420     LIBCMT:constpow.obj
 0003:0000c580       __pow10neg                 300d7580     LIBCMT:constpow.obj
 0003:0000c800       ___lconv                   300d7800     LIBCMT:lconv.obj
 0003:0000c804       ___lconv_static_decimal    300d7804     LIBCMT:lconv.obj
 0003:0000c808       ___lconv_c                 300d7808     LIBCMT:lconv.obj
 0003:0000c858       ___lconv_static_W_decimal  300d7858     LIBCMT:lconv.obj
 0003:0000c85c       __pctype                   300d785c     LIBCMT:ctype.obj
 0003:0000c860       __pwctype                  300d7860     LIBCMT:ctype.obj
 0003:0000c870       __matherr_flag             300d7870     LIBCMT:matherr.obj
 0003:0000c960       __d_inf                    300d7960     LIBCMT:util.obj
 0003:0000c968       __d_ind                    300d7968     LIBCMT:util.obj
 0003:0000c970       __d_max                    300d7970     LIBCMT:util.obj
 0003:0000c978       __d_min                    300d7978     LIBCMT:util.obj
 0003:0000c980       __d_mzero                  300d7980     LIBCMT:util.obj
 0003:0000c9a8       __iob                      300d79a8     LIBCMT:_file.obj
 0003:0000cc30       __lookuptrailbytes         300d7c30     LIBCMT:read.obj
 0003:0000cd30       ___abort_behavior          300d7d30     LIBCMT:abort.obj
 0003:0000cd40       __NLG_Destination          300d7d40     LIBCMT:exsup.obj
 0003:0000cd50       __confh                    300d7d50     LIBCMT:initcon.obj
 0003:00200d70       _BGPAFtextLoaded           302cbd70     bg_panimate.obj
 0003:00200d74       _c_pmove                   302cbd74     bg_pmove.obj
 0003:00200d78       _pm_entSelf                302cbd78     bg_pmove.obj
 0003:00200d7c       _pm_entVeh                 302cbd7c     bg_pmove.obj
 0003:00200d80       _gPMDoSlowFall             302cbd80     bg_pmove.obj
 0003:00200d84       _pm_cancelOutZoom          302cbd84     bg_pmove.obj
 0003:00300e50       _team1Theme                303cbe50     bg_saga.obj
 0003:00300e54       _team2Theme                303cbe54     bg_saga.obj
 0003:00300e58       _bgNumSiegeClasses         303cbe58     bg_saga.obj
 0003:00300e5c       _bgNumSiegeTeams           303cbe5c     bg_saga.obj
 0003:00300e60       _siege_valid               303cbe60     bg_saga.obj
 0003:00300e64       _numVehicles               303cbe64     bg_vehicleLoad.obj
 0003:00300e68       _in_camera                 303cbe68     cg_camera.obj
 0003:00300e70       _client_camera             303cbe70     cg_camera.obj
 0003:00301064       _cgRageTime                303cc064     cg_draw.obj
 0003:00301068       _cgRageFadeTime            303cc068     cg_draw.obj
 0003:0030106c       _cgRageFadeVal             303cc06c     cg_draw.obj
 0003:00301070       _cgRageRecTime             303cc070     cg_draw.obj
 0003:00301074       _cgRageRecFadeTime         303cc074     cg_draw.obj
 0003:00301078       _cgRageRecFadeVal          303cc078     cg_draw.obj
 0003:0030107c       _cgAbsorbTime              303cc07c     cg_draw.obj
 0003:00301080       _cgAbsorbFadeTime          303cc080     cg_draw.obj
 0003:00301084       _cgAbsorbFadeVal           303cc084     cg_draw.obj
 0003:00301088       _cgProtectTime             303cc088     cg_draw.obj
 0003:0030108c       _cgProtectFadeTime         303cc08c     cg_draw.obj
 0003:00301090       _cgProtectFadeVal          303cc090     cg_draw.obj
 0003:00301094       _cgYsalTime                303cc094     cg_draw.obj
 0003:00301098       _cgYsalFadeTime            303cc098     cg_draw.obj
 0003:0030109c       _cgYsalFadeVal             303cc09c     cg_draw.obj
 0003:003010a0       _gCGHasFallVector          303cc0a0     cg_draw.obj
 0003:003010a4       _cg_beatingSiegeTime       303cc0a4     cg_draw.obj
 0003:003010a8       _cgSiegeRoundBeganTime     303cc0a8     cg_draw.obj
 0003:003010ac       _cgSiegeRoundCountTime     303cc0ac     cg_draw.obj
 0003:003010b0       _cg_targVehLastTime        303cc0b0     cg_draw.obj
 0003:003010b4       _cgSiegeEntityRender       303cc0b4     cg_draw.obj
 0003:003010b8       _cg_genericTimerBar        303cc0b8     cg_draw.obj
 0003:003010bc       _cg_genericTimerDur        303cc0bc     cg_draw.obj
 0003:003010c0       _cg_vehicleAmmoWarning     303cc0c0     cg_draw.obj
 0003:003010c4       _cg_vehicleAmmoWarningTime 303cc0c4     cg_draw.obj
 0003:003010c8       _cg_crosshairPrevPosX      303cc0c8     cg_draw.obj
 0003:003010cc       _cg_crosshairPrevPosY      303cc0cc     cg_draw.obj
 0003:003010d0       _cg_crosshairPos           303cc0d0     cg_draw.obj
 0003:003010dc       _menuScoreboard            303cc0dc     cg_draw.obj
 0003:003010e0       _cg_siegeDeathTime         303cc0e0     cg_draw.obj
 0003:003010e4       _cg_drawLink               303cc0e4     cg_draw.obj
 0003:003010e8       _cg_saberFlashTime         303cc0e8     cg_draw.obj
 0003:003010ec       _cg_saberFlashPos          303cc0ec     cg_draw.obj
 0003:00301dcc       _CG_BMS_START              303ccdcc     cg_ents.obj
 0003:00306020       _cg_numpermanents          303d1020     cg_main.obj
 0003:00306028       _cg_noFogOutsidePortal     303d1028     cg_main.obj
 0003:0030602c       _cg_skyOri                 303d102c     cg_main.obj
 0003:00306030       _cg_skyOriScale            303d1030     cg_main.obj
 0003:00306034       _cgWeatherOverride         303d1034     cg_main.obj
 0003:00406ecc       _initparticles             304d1ecc     cg_marks.obj
 0003:00408ed8       _trueviewwarning           304d3ed8     cg_players.obj
 0003:00408edc       _cgQueueLoad               304d3edc     cg_players.obj
 0003:00408ee0       _cg_g2JetpackInstance      304d3ee0     cg_players.obj
 0003:00408ee4       _cg_lastHyperSpaceEffectTime 304d3ee4     cg_players.obj
 0003:00409eec       _cgAnnouncerTime           304d4eec     cg_playerstate.obj
 0003:00409ef0       _cg_vehPmoveSet            304d4ef0     cg_predict.obj
 0003:0040a828       _cgSiegeRoundState         304d5828     cg_saga.obj
 0003:0040a82c       _cgSiegeRoundTime          304d582c     cg_saga.obj
 0003:0040a830       _team1Timed                304d5830     cg_saga.obj
 0003:0040a834       _team2Timed                304d5834     cg_saga.obj
 0003:0040a838       _cgSiegeTeam1PlShader      304d5838     cg_saga.obj
 0003:0040a83c       _cgSiegeTeam2PlShader      304d583c     cg_saga.obj
 0003:00450c48       _cg_siegeWinTeam           3051bc48     cg_scoreboard.obj
 0003:00450c50       _InBriefing                3051bc50     cg_servercmds.obj
 0003:00450c54       _InCinematic               3051bc54     cg_servercmds.obj
 0003:00450c58       _cg_autoMapZoomMainOffset  3051bc58     cg_view.obj
 0003:00450c5c       _cg_autoMapInputTime       3051bc5c     cg_view.obj
 0003:00450c64       _cg_linearFogOverride      3051bc64     cg_view.obj
 0003:00450c6c       _cameraCurTarget           3051bc6c     cg_view.obj
 0003:00450c78       _cameraCurLoc              3051bc78     cg_view.obj
 0003:00450c84       _cameraOldLoc              3051bc84     cg_view.obj
 0003:00450c90       _cameraNewLoc              3051bc90     cg_view.obj
 0003:00450c9c       _cameraLastFrame           3051bc9c     cg_view.obj
 0003:00450ca0       _cameraLastYaw             3051bca0     cg_view.obj
 0003:00450ca4       _cameraStiffFactor         3051bca4     cg_view.obj
 0003:00450cac       _cg_actionCamLastTime      3051bcac     cg_view.obj
 0003:00450cb0       _cg_lastTurretViewAngles   3051bcb0     cg_view.obj
 0003:00450d64       _colorClear                3051bd64     q_math.obj
 0003:00450d74       _vec3_origin               3051bd74     q_math.obj
 0003:004673d0       _ui_G2PtrTracker           305323d0     ui_shared.obj
 0003:004673d4       _ui_deferredScriptItem     305323d4     ui_shared.obj
 0003:004673e4       _DC                        305323e4     ui_shared.obj
 0003:004673f8       _menuCount                 305323f8     ui_shared.obj
 0003:004673fc       _openMenuCount             305323fc     ui_shared.obj
 0003:004ab440       ___fastflag                30576440     LIBCMT:fpinit.obj
 0003:004ab448       __aenvptr                  30576448     LIBCMT:dllcrt0.obj
 0003:004ab44c       __wenvptr                  3057644c     LIBCMT:dllcrt0.obj
 0003:004ab450       ___isa_available           30576450     LIBCMT:cpu_disp.obj
 0003:004ab454       ___favor                   30576454     LIBCMT:cpu_disp.obj
 0003:004ab458       ___pInvalidArgHandler      30576458     LIBCMT:invarg.obj
 0003:004ab45c       ___mbcodepage              3057645c     LIBCMT:mbctype.obj
 0003:004ab460       ___ismbcodepage            30576460     LIBCMT:mbctype.obj
 0003:004ab464       ___mbulinfo                30576464     LIBCMT:mbctype.obj
 0003:004ab470       ___mblocalename            30576470     LIBCMT:mbctype.obj
 0003:004ab47c       ___locale_changed          3057647c     LIBCMT:wsetloca.obj
 0003:004ab480       __C_Exit_Done              30576480     LIBCMT:crt0dat.obj
 0003:004ab484       ___argc                    30576484     LIBCMT:crt0dat.obj
 0003:004ab488       ___argv                    30576488     LIBCMT:crt0dat.obj
 0003:004ab48c       ___wargv                   3057648c     LIBCMT:crt0dat.obj
 0003:004ab490       __environ                  30576490     LIBCMT:crt0dat.obj
 0003:004ab494       __wenviron                 30576494     LIBCMT:crt0dat.obj
 0003:004ab498       __pgmptr                   30576498     LIBCMT:crt0dat.obj
 0003:004ab49c       __wpgmptr                  3057649c     LIBCMT:crt0dat.obj
 0003:004ab4a0       __umaskval                 305764a0     LIBCMT:crt0dat.obj
 0003:004ab4a4       __exitflag                 305764a4     LIBCMT:crt0dat.obj
 0003:004ab4a8       __C_Termination_Done       305764a8     LIBCMT:crt0dat.obj
 0003:004ab4ac       ___winitenv                305764ac     LIBCMT:crt0dat.obj
 0003:004ab4b0       ___initenv                 305764b0     LIBCMT:crt0dat.obj
 0003:004ab4b4       __crtheap                  305764b4     LIBCMT:heapinit.obj
 0003:004ab4b8       ___pioinfo                 305764b8     LIBCMT:ioinit.obj
 0003:004ab6c0       __maxwait                  305766c0     LIBCMT:crtheap.obj
 0003:004ab6c4       __outputformat             305766c4     LIBCMT:outputformat.obj
 0003:004ab818       ___lconv_static_null       30576818     LIBCMT:lconv.obj
 0003:004ab81c       ___lconv_static_W_null     3057681c     LIBCMT:lconv.obj
 0003:004abb44       __cflush                   30576b44     LIBCMT:_file.obj
 0003:004abb50       ___app_type                30576b50     LIBCMT:crt0msg.obj
 0003:004ac180       ?__pInconsistency@@3P6AXXZA 30577180     LIBCMT:hooks.obj
 0003:004ac184       ?_pnhHeap@@3P6AHI@ZA       30577184     LIBCMT:handler.obj
 0003:004ac188       ___pPurecall               30577188     LIBCMT:inithelp.obj
 0003:004ac1a4       __stdbuf                   305771a4     LIBCMT:_sftbuf.obj
 0003:004ac1ac       __newmode                  305771ac     LIBCMT:_newmode.obj
 0003:004ac1b0       ___error_mode              305771b0     LIBCMT:errmode.obj
 0003:004ac1e0       _menuStack                 305771e0     <common>
 0003:004ac220       _Menus                     30577220     <common>
 0003:004c0f20       _ui_deferredScript         3058bf20     <common>
 0003:004c1720       _menuParseKeywordHash      3058c720     <common>
 0003:004c1f20       _itemParseKeywordHash      3058cf20     <common>
 0003:004c2720       _g2HolsterWeaponInstances  3058d720     <common>
 0003:004c2770       _cg_actionCamLastPos       3058d770     <common>
 0003:004c277c       _zoomFov                   3058d77c     <common>
 0003:004c2780       _cameraIdealLoc            3058d780     <common>
 0003:004c2790       _cameraIdealTarget         3058d790     <common>
 0003:004c27a0       _cameraFocusLoc            3058d7a0     <common>
 0003:004c27b0       _cameraFocusAngles         3058d7b0     <common>
 0003:004c27c0       _cameraup                  3058d7c0     <common>
 0003:004c27d0       _camerafwd                 3058d7d0     <common>
 0003:004c27e0       _cgScreenEffects           3058d7e0     <common>
 0003:004c2800       _cg_autoMapInput           3058d800     <common>
 0003:004c2814       _CinematicNum              3058d814     <common>
 0003:004c2820       _cg_siegeExtendedData      3058d820     <common>
 0003:004c2aa0       _ui_siegeStruct            3058daa0     <common>
 0003:004c2aa4       _true_view_valid           3058daa4     <common>
 0003:004c2ac0       _true_view_info            3058dac0     <common>
 0003:004c4ac0       _cg_vehPmove               3058fac0     <common>
 0003:004c4c00       _cgSendPS                  3058fc00     <common>
 0003:004c5c00       _cgSendPSPool              30590c00     <common>
 0003:00649c00       _cgAllEvents               30714c00     <common>
 0003:00776d00       _cg_markPolys              30841d00     <common>
 0003:00788d00       _oldtime                   30853d00     <common>
 0003:00788d10       _rup                       30853d10     <common>
 0003:00788d20       _rright                    30853d20     <common>
 0003:00788d30       _rforward                  30853d30     <common>
 0003:00788d40       _pvup                      30853d40     <common>
 0003:00788d50       _pvright                   30853d50     <common>
 0003:00788d60       _pvforward                 30853d60     <common>
 0003:00788d80       _particles                 30853d80     <common>
 0003:007a7d80       _free_particles            30872d80     <common>
 0003:007a7d84       _active_particles          30872d84     <common>
 0003:007a7d88       _cg_freeMarkPolys          30872d88     <common>
 0003:007a7da0       _cg_activeMarkPolys        30872da0     <common>
 0003:007a7ec0       _cgDC                      30872ec0     <common>
 0003:007a8140       _ojp_holsterdebug_angoffset 30873140     <common>
 0003:007a8260       _ojp_holsterdebug_posoffset 30873260     <common>
 0003:007a8380       _ojp_holsterdebug_boneindex 30873380     <common>
 0003:007a84a0       _ojp_holsterdebug          308734a0     <common>
 0003:007a85c0       _ojp_holsteredweapons      308735c0     <common>
 0003:007a86e0       _cg_MovieSaberType         308736e0     <common>
 0003:007a8800       _sfx_sabers                30873800     <common>
 0003:007a8920       _ojp_teamrgbsabers         30873920     <common>
 0003:007a8a40       _rgb_script2               30873a40     <common>
 0003:007a8b60       _rgb_script1               30873b60     <common>
 0003:007a8c80       _rgb_saber2                30873c80     <common>
 0003:007a8da0       _rgb_saber1                30873da0     <common>
 0003:007a8ec0       _cg_debugBB                30873ec0     <common>
 0003:007a8fe0       _cg_snapshotTimeout        30873fe0     <common>
 0003:007a9100       _ui_menubrief              30874100     <common>
 0003:007a9220       _ui_myteam                 30874220     <common>
 0003:007a9340       _cg_recordSPDemoName       30874340     <common>
 0003:007a9460       _cg_recordSPDemo           30874460     <common>
 0003:007a9580       _cg_currentSelectedPlayerName 30874580     <common>
 0003:007a96a0       _cg_currentSelectedPlayer  308746a0     <common>
 0003:007a97c0       _cg_noProjectileTrail      308747c0     <common>
 0003:007a98e0       _cg_noTaunt                308748e0     <common>
 0003:007a9a00       _cg_cameraMode             30874a00     <common>
 0003:007a9b20       _cg_timescale              30874b20     <common>
 0003:007a9c40       _cg_timescaleFadeSpeed     30874c40     <common>
 0003:007a9d60       _cg_timescaleFadeEnd       30874d60     <common>
 0003:007a9e80       _cg_cameraOrbitDelay       30874e80     <common>
 0003:007a9fa0       _cg_cameraOrbit            30874fa0     <common>
 0003:007aa0c0       _pmove_msec                308750c0     <common>
 0003:007aa1d0       _cg_skyOriPos              308751d0     <common>
 0003:007aa1e0       _pmove_fixed               308751e0     <common>
 0003:007aa300       _ojp_sabermelee            30875300     <common>
 0003:007aa420       _cg_smoothClients          30875420     <common>
 0003:007aa540       _cg_hudFiles               30875540     <common>
 0003:007aa660       _cg_scorePlum              30875660     <common>
 0003:007aa780       _cg_teamChatsOnly          30875780     <common>
 0003:007aa8a0       _cg_drawFriend             308758a0     <common>
 0003:007aa9c0       _cg_deferPlayers           308759c0     <common>
 0003:007aaae0       _cg_predictItems           30875ae0     <common>
 0003:007aac00       _cg_blood                  30875c00     <common>
 0003:007aad20       _cg_paused                 30875d20     <common>
 0003:007aae40       _cg_buildScript            30875e40     <common>
 0003:007aaf60       _cg_forceModel             30875f60     <common>
 0003:007ab080       _cg_stats                  30876080     <common>
 0003:007ab1a0       _cg_synchronousClients     308761a0     <common>
 0003:007ab2c0       _cg_drawEnemyInfo          308762c0     <common>
 0003:007ab3e0       _cg_lagometer              308763e0     <common>
 0003:007ab500       _cg_stereoSeparation       30876500     <common>
 0003:007ab620       _cg_truefov                30876620     <common>
 0003:007ab740       _cg_trueinvertsaber        30876740     <common>
 0003:007ab860       _cg_trueeyeposition        30876860     <common>
 0003:007ab980       _cg_truesaberonly          30876980     <common>
 0003:007abaa0       _cg_truemoveroll           30876aa0     <common>
 0003:007abbc0       _cg_truespin               30876bc0     <common>
 0003:007abce0       _cg_trueflip               30876ce0     <common>
 0003:007abe00       _cg_trueroll               30876e00     <common>
 0003:007abf20       _cg_thirdPersonHorzOffset  30876f20     <common>
 0003:007ac040       _cg_thirdPersonAlpha       30877040     <common>
 0003:007ac160       _cg_thirdPersonTargetDamp  30877160     <common>
 0003:007ac280       _cg_thirdPersonCameraDamp  30877280     <common>
 0003:007ac3a0       _cg_thirdPersonVertOffset  308773a0     <common>
 0003:007ac4c0       _cg_thirdPersonPitchOffset 308774c0     <common>
 0003:007ac5e0       _cg_thirdPersonAngle       308775e0     <common>
 0003:007ac700       _cg_thirdPersonRange       30877700     <common>
 0003:007ac820       _cg_thirdPerson            30877820     <common>
 0003:007ac940       _cg_thirdPersonSpecialCam  30877940     <common>
 0003:007aca60       _cg_dismember              30877a60     <common>
 0003:007acb80       _cg_animBlend              30877b80     <common>
 0003:007acca0       _cg_repeaterOrb            30877ca0     <common>
 0003:007acdc0       _cg_auraShell              30877dc0     <common>
 0003:007acee0       _cg_speedTrail             30877ee0     <common>
 0003:007ad000       _cg_duelHeadAngles         30878000     <common>
 0003:007ad120       _cg_saberTrail             30878120     <common>
 0003:007ad240       _cg_saberContact           30878240     <common>
 0003:007ad360       _cg_saberDynamicMarkTime   30878360     <common>
 0003:007ad480       _cg_saberDynamicMarks      30878480     <common>
 0003:007ad5a0       _cg_optvehtrace            308785a0     <common>
 0003:007ad6c0       _cg_ghoul2Marks            308786c0     <common>
 0003:007ad7e0       _cg_fpls                   308787e0     <common>
 0003:007ad900       _cg_trueguns               30878900     <common>
 0003:007ada20       _cg_g2TraceLod             30878a20     <common>
 0003:007adb40       _cg_saberClientVisualCompensation 30878b40     <common>
 0003:007adc60       _cg_saberModelTraceEffect  30878c60     <common>
 0003:007add80       _cg_chatBoxHeight          30878d80     <common>
 0003:007adea0       _cg_chatBox                30878ea0     <common>
 0003:007adfc0       _bg_fighterAltControl      30878fc0     <common>
 0003:007ae0e0       _cg_autoMapH               308790e0     <common>
 0003:007ae200       _cg_autoMapW               30879200     <common>
 0003:007ae320       _cg_autoMapY               30879320     <common>
 0003:007ae440       _cg_autoMapX               30879440     <common>
 0003:007ae560       _cg_autoMap                30879560     <common>
 0003:007ae680       _cg_jumpSounds             30879680     <common>
 0003:007ae7a0       _cg_ragDoll                308797a0     <common>
 0003:007ae8c0       _cg_oldPainSounds          308798c0     <common>
 0003:007ae9e0       _cg_swingAngles            308799e0     <common>
 0003:007aeb00       _cg_zoomFov                30879b00     <common>
 0003:007aec20       _cg_fov                    30879c20     <common>
 0003:007aed40       _cg_simpleItems            30879d40     <common>
 0003:007aee60       _cg_ignore                 30879e60     <common>
 0003:007aef80       _cg_autoswitch             30879f80     <common>
 0003:007af0a0       _cg_viewsize               3087a0a0     <common>
 0003:007af1c0       _cg_drawGun                3087a1c0     <common>
 0003:007af2e0       _cg_gun_z                  3087a2e0     <common>
 0003:007af400       _cg_gun_y                  3087a400     <common>
 0003:007af520       _cg_gun_x                  3087a520     <common>
 0003:007af640       _cg_gun_frame              3087a640     <common>
 0003:007af760       _cg_addMarks               3087a760     <common>
 0003:007af880       _cg_footsteps              3087a880     <common>
 0003:007af9a0       _cg_showVehMiss            3087a9a0     <common>
 0003:007afac0       _cg_showmiss               3087aac0     <common>
 0003:007afbe0       _cg_noPlayerAnims          3087abe0     <common>
 0003:007afd00       _cg_nopredict              3087ad00     <common>
 0003:007afe20       _cg_errorDecay             3087ae20     <common>
 0003:007aff40       _cg_debugEvents            3087af40     <common>
 0003:007b0060       _cg_debugPosition          3087b060     <common>
 0003:007b0180       _cg_debugAnim              3087b180     <common>
 0003:007b02a0       _cg_animSpeed              3087b2a0     <common>
 0003:007b03c0       _cg_draw2D                 3087b3c0     <common>
 0003:007b04e0       _cg_drawStatus             3087b4e0     <common>
 0003:007b0600       _cg_crosshairHealth        3087b600     <common>
 0003:007b0720       _cg_crosshairSize          3087b720     <common>
 0003:007b0840       _cg_crosshairY             3087b840     <common>
 0003:007b0960       _cg_crosshairX             3087b960     <common>
 0003:007b0a80       _cg_teamOverlayUserinfo    3087ba80     <common>
 0003:007b0ba0       _cg_drawTeamOverlay        3087bba0     <common>
 0003:007b0cc0       _cg_drawRewards            3087bcc0     <common>
 0003:007b0de0       _cg_dynamicCrosshairPrecision 3087bde0     <common>
 0003:007b0f00       _cg_dynamicCrosshair       3087bf00     <common>
 0003:007b1020       _cg_drawScores             3087c020     <common>
 0003:007b1140       _cg_drawVehLeadIndicator   3087c140     <common>
 0003:007b1260       _cg_drawRadar              3087c260     <common>
 0003:007b1380       _cg_drawCrosshairNames     3087c380     <common>
 0003:007b14a0       _cg_drawCrosshair          3087c4a0     <common>
 0003:007b15c0       _cg_drawAmmoWarning        3087c5c0     <common>
 0003:007b16e0       _cg_drawIcons              3087c6e0     <common>
 0003:007b1800       _cg_draw3dIcons            3087c800     <common>
 0003:007b1920       _cg_drawSnapshot           3087c920     <common>
 0003:007b1a40       _cg_drawFPS                3087ca40     <common>
 0003:007b1b60       _cg_drawTimer              3087cb60     <common>
 0003:007b1c80       _cg_renderToTextureFX      3087cc80     <common>
 0003:007b1da0       _cg_shadows                3087cda0     <common>
 0003:007b1ec0       _cg_bobroll                3087cec0     <common>
 0003:007b1fe0       _cg_bobpitch               3087cfe0     <common>
 0003:007b2100       _cg_bobup                  3087d100     <common>
 0003:007b2220       _cg_runroll                3087d220     <common>
 0003:007b2340       _cg_runpitch               3087d340     <common>
 0003:007b2460       _cg_centertime             3087d460     <common>
 0003:007b2580       _cg_items                  3087d580     <common>
 0003:007b5d80       _cg_weapons                30880d80     <common>
 0003:007b6d40       _cg_permanents             30881d40     <common>
 0003:007b7d40       _cg_entities               30882d40     <common>
 0003:00998d40       _cg                        30a63d40     <common>
 0003:009e12a0       _cgs                       30aac2a0     <common>
 0003:00a20ee0       _ojp_clientplugin          30aebee0     <common>
 0003:00a21000       _cg_showVehBounds          30aec000     <common>
 0003:00a21120       _cg_debugSaber             30aec120     <common>
 0003:00a21230       _cg_freeLocalEntities      30aec230     <common>
 0003:00a21240       _cg_activeLocalEntities    30aec240     <common>
 0003:00a21420       _cg_localEntities          30aec420     <common>
 0003:00a5ac20       _lagometer                 30b25c20     <common>
 0003:00a5b228       _lastvalidlockdif          30b26228     <common>
 0003:00a5b22c       _hudTintColor              30b2622c     <common>
 0003:00a5b230       _cg_genericTimerColor      30b26230     <common>
 0003:00a5b240       _numSortedTeamPlayers      30b26240     <common>
 0003:00a5b260       _sortedTeamPlayers         30b26260     <common>
 0003:00a5b2e0       _gCGFallVector             30b262e0     <common>
 0003:00a5b300       _uiRank                    30b26300     <common>
 0003:00a5b700       _g_vehicleInfo             30b26700     <common>
 0003:00a68d00       _g_vehWeaponInfo           30b33d00     <common>
 0003:00a6a600       _VehicleParms              30b35600     <common>
 0003:00a6a620       _VehWeaponParms            30b35620     <common>
 0003:00a7a620       _siege_info                30b45620     <common>
 0003:00a7e620       _bgSiegeTeams              30b49620     <common>
 0003:00a80aa0       _bgSiegeClasses            30b4baa0     <common>
 0003:00ab10a0       _pm                        30b7c0a0     <common>
 0003:00ab10c0       _pml                       30b7c0c0     <common>
 0003:00ab1160       _bgAllAnims                30b7c160     <common>
 0003:00ab2260       _bgHumanoidAnimations      30b7d260     <common>
 0003:00ab4da0       __bufin                    30b7fda0     <common>
 0003:00ab5da0       ___piob                    30b80da0     <common>
 0003:00ab5da4       __nstream                  30b80da4     <common>
 0003:00ab5da8       __debugger_hook_dummy      30b80da8     <common>
 0003:00ab5dac       __pDestructExceptionObject 30b80dac     <common>
 0003:00ab5dc0       _encodedKERNEL32Functions  30b80dc0     <common>
 0003:00ab5e44       __nhandle                  30b80e44     <common>
 0003:00ab5e48       ___dyn_tls_init_callback   30b80e48     <common>
 0003:00ab5e4c       ___onexitend               30b80e4c     <common>
 0003:00ab5e50       ___onexitbegin             30b80e50     <common>
 0003:00ab5e54       ___mbctype_initialized     30b80e54     <common>
 0003:00ab5e58       ___env_initialized         30b80e58     <common>
 0003:00ab5e5c       ___use_sse2_mathfcns       30b80e5c     <common>
 0003:00ab5e60       __pmatherr                 30b80e60     <common>
 0003:00ab5e64       __acmdln                   30b80e64     <common>

 entry point at        0001:0008ca46

 Static symbols

 0001:00000030       _ProcessMoveCommands       30001030 f   AnimalNPC.obj
 0001:000001f0       _ProcessOrientCommands     300011f0 f   AnimalNPC.obj
 0001:000009bc       $LN66                      300019bc     bg_misc.obj
 0001:00000ad4       $LN37                      30001ad4     bg_misc.obj
 0001:00000adc       $LN34                      30001adc     bg_misc.obj
 0001:00000fac       $LN23                      30001fac     bg_misc.obj
 0001:000011c4       $LN17                      300021c4     bg_misc.obj
 0001:00001400       $LN9                       30002400     bg_misc.obj
 0001:00001408       $LN7                       30002408     bg_misc.obj
 0001:00001624       $LN23                      30002624     bg_misc.obj
 0001:00002104       $LN10                      30003104     bg_panimate.obj
 0001:0000210c       $LN8                       3000310c     bg_panimate.obj
 0001:000021f0       $LN10                      300031f0     bg_panimate.obj
 0001:000021f8       $LN7                       300031f8     bg_panimate.obj
 0001:00002230       $LN11                      30003230     bg_panimate.obj
 0001:00002238       $LN8                       30003238     bg_panimate.obj
 0001:00002518       $LN10                      30003518     bg_panimate.obj
 0001:00002524       $LN8                       30003524     bg_panimate.obj
 0001:00002604       $LN9                       30003604     bg_panimate.obj
 0001:0000260c       $LN7                       3000360c     bg_panimate.obj
 0001:000026a4       $LN15                      300036a4     bg_panimate.obj
 0001:000026ac       $LN12                      300036ac     bg_panimate.obj
 0001:0000270c       $LN16                      3000370c     bg_panimate.obj
 0001:00002714       $LN13                      30003714     bg_panimate.obj
 0001:0000274c       $LN8                       3000374c     bg_panimate.obj
 0001:00002754       $LN6                       30003754     bg_panimate.obj
 0001:0000281c       $LN38                      3000381c     bg_panimate.obj
 0001:00002824       $LN35                      30003824     bg_panimate.obj
 0001:00002854       $LN39                      30003854     bg_panimate.obj
 0001:0000285c       $LN36                      3000385c     bg_panimate.obj
 0001:0000292c       $LN9                       3000392c     bg_panimate.obj
 0001:00002934       $LN7                       30003934     bg_panimate.obj
 0001:00002d54       $LN10                      30003d54     bg_panimate.obj
 0001:00002d5c       $LN7                       30003d5c     bg_panimate.obj
 0001:00002d9c       $LN11                      30003d9c     bg_panimate.obj
 0001:00002da4       $LN8                       30003da4     bg_panimate.obj
 0001:00002ed8       $LN10                      30003ed8     bg_panimate.obj
 0001:00002ee0       $LN8                       30003ee0     bg_panimate.obj
 0001:0000369c       $LN12                      3000469c     bg_panimate.obj
 0001:000036a4       $LN9                       300046a4     bg_panimate.obj
 0001:000037a4       $LN13                      300047a4     bg_panimate.obj
 0001:000037ac       $LN10                      300047ac     bg_panimate.obj
 0001:00003870       _BG_StartLegsAnim          30004870 f   bg_panimate.obj
 0001:000038dc       $LN8                       300048dc     bg_panimate.obj
 0001:000038e4       $LN6                       300048e4     bg_panimate.obj
 0001:0000396c       $LN8                       3000496c     bg_panimate.obj
 0001:00003974       $LN6                       30004974     bg_panimate.obj
 0001:00003bf8       $LN16                      30004bf8     bg_panimate.obj
 0001:00003c00       $LN14                      30004c00     bg_panimate.obj
 0001:00003d9c       $LN8                       30004d9c     bg_panimate.obj
 0001:00003da4       $LN6                       30004da4     bg_panimate.obj
 0001:00003dec       $LN8                       30004dec     bg_panimate.obj
 0001:00003df4       $LN6                       30004df4     bg_panimate.obj
 0001:00003e84       $LN13                      30004e84     bg_panimate.obj
 0001:000044c4       $LN20                      300054c4     bg_pmove.obj
 0001:00004518       $LN8                       30005518     bg_pmove.obj
 0001:00004520       $LN6                       30005520     bg_pmove.obj
 0001:000046f8       $LN43                      300056f8     bg_pmove.obj
 0001:00004728       $LN39                      30005728     bg_pmove.obj
 0001:000047b0       _BG_G2ClientNeckAngles     300057b0 f   bg_pmove.obj
 0001:00004c30       $LN51                      30005c30     bg_pmove.obj
 0001:00004c38       $LN40                      30005c38     bg_pmove.obj
 0001:00004c50       _BG_G2ClientSpineAngles    30005c50 f   bg_pmove.obj
 0001:00005f40       $LN79                      30006f40     bg_pmove.obj
 0001:00005f48       $LN72                      30006f48     bg_pmove.obj
 0001:0000644c       $LN9                       3000744c     bg_pmove.obj
 0001:00006454       $LN7                       30007454     bg_pmove.obj
 0001:000064a0       $LN8                       300074a0     bg_pmove.obj
 0001:000064a8       $LN6                       300074a8     bg_pmove.obj
 0001:00006550       _BG_SwingAngles            30007550 f   bg_pmove.obj
 0001:000075b0       _PM_Accelerate             300085b0 f   bg_pmove.obj
 0001:00007f28       $LN40                      30008f28     bg_pmove.obj
 0001:00009068       $LN100                     3000a068     bg_pmove.obj
 0001:00009080       $LN87                      3000a080     bg_pmove.obj
 0001:000090cc       $LN101                     3000a0cc     bg_pmove.obj
 0001:000090e4       $LN88                      3000a0e4     bg_pmove.obj
 0001:00009134       $LN102                     3000a134     bg_pmove.obj
 0001:00009150       $LN103                     3000a150     bg_pmove.obj
 0001:0000915c       $LN89                      3000a15c     bg_pmove.obj
 0001:000091c0       _PM_AirMove                3000a1c0 f   bg_pmove.obj
 0001:00009620       _PM_Animate                3000a620 f   bg_pmove.obj
 0001:000099b0       _PM_CheckDuck              3000a9b0 f   bg_pmove.obj
 0001:0000a410       _PM_CheckJump              3000b410 f   bg_pmove.obj
 0001:0000c058       $LN256                     3000d058     bg_pmove.obj
 0001:0000c06c       $LN219                     3000d06c     bg_pmove.obj
 0001:0000c078       $LN257                     3000d078     bg_pmove.obj
 0001:0000c088       $LN220                     3000d088     bg_pmove.obj
 0001:0000c598       $LN25                      3000d598     bg_pmove.obj
 0001:0000c5a0       $LN21                      3000d5a0     bg_pmove.obj
 0001:0000c5a8       $LN26                      3000d5a8     bg_pmove.obj
 0001:0000c5d0       _PM_CheckWaterJump         3000d5d0 f   bg_pmove.obj
 0001:0000c820       _PM_CmdForSaberMoves       3000d820 f   bg_pmove.obj
 0001:0000cc28       $LN70                      3000dc28     bg_pmove.obj
 0001:0000cc34       $LN67                      3000dc34     bg_pmove.obj
 0001:0000cc70       _PM_CorrectAllSolid        3000dc70 f   bg_pmove.obj
 0001:0000ce60       _PM_CrashLand              3000de60 f   bg_pmove.obj
 0001:0000d4ec       $LN95                      3000e4ec     bg_pmove.obj
 0001:0000d5f8       $LN15                      3000e5f8     bg_pmove.obj
 0001:0000d604       $LN13                      3000e604     bg_pmove.obj
 0001:0000d660       _PM_DeadMove               3000e660 f   bg_pmove.obj
 0001:0000d730       _PM_DoChargedWeapons       3000e730 f   bg_pmove.obj
 0001:0000dbe0       $LN66                      3000ebe0     bg_pmove.obj
 0001:0000dc60       _PM_DropTimers             3000ec60 f   bg_pmove.obj
 0001:0000ddd0       _PM_FlyMove                3000edd0 f   bg_pmove.obj
 0001:0000dfa0       _PM_FlyVehicleMove         3000efa0 f   bg_pmove.obj
 0001:0000e420       _PM_Footsteps              3000f420 f   bg_pmove.obj
 0001:0000ef30       _PM_Friction               3000ff30 f   bg_pmove.obj
 0001:0000f294       $LN26                      30010294     bg_pmove.obj
 0001:0000f694       $LN59                      30010694     bg_pmove.obj
 0001:0000f6a8       $LN49                      300106a8     bg_pmove.obj
 0001:0000f740       _PM_GroundTrace            30010740 f   bg_pmove.obj
 0001:0000fa70       _PM_GroundTraceMissed      30010a70 f   bg_pmove.obj
 0001:00010270       _PM_JumpForDir             30011270 f   bg_pmove.obj
 0001:00010344       $LN10                      30011344     bg_pmove.obj
 0001:0001034c       $LN8                       3001134c     bg_pmove.obj
 0001:00010610       _PM_NoclipMove             30011610 f   bg_pmove.obj
 0001:00010d1c       $LN8                       30011d1c     bg_pmove.obj
 0001:00010d24       $LN6                       30011d24     bg_pmove.obj
 0001:00010d90       _PM_SetMovementDir         30011d90 f   bg_pmove.obj
 0001:00010f80       _PM_SetVehicleAngles       30011f80 f   bg_pmove.obj
 0001:00011550       $LN27                      30012550     bg_pmove.obj
 0001:00011570       _PM_SetWaterLevel          30012570 f   bg_pmove.obj
 0001:000116d0       _PM_TryRoll                300126d0 f   bg_pmove.obj
 0001:00012548       $LN81                      30013548     bg_pmove.obj
 0001:00012570       $LN74                      30013570     bg_pmove.obj
 0001:00012590       _PM_WalkMove               30013590 f   bg_pmove.obj
 0001:00012c7c       $LN8                       30013c7c     bg_pmove.obj
 0001:00012c84       $LN6                       30013c84     bg_pmove.obj
 0001:00012cb0       _PM_WaterEvents            30013cb0 f   bg_pmove.obj
 0001:00012d50       _PM_WaterJumpMove          30013d50 f   bg_pmove.obj
 0001:00012da0       _PM_WaterMove              30013da0 f   bg_pmove.obj
 0001:000130b0       _PM_Weapon                 300140b0 f   bg_pmove.obj
 0001:00014a64       $LN434                     30015a64     bg_pmove.obj
 0001:00014a94       $LN435                     30015a94     bg_pmove.obj
 0001:00014ad4       $LN436                     30015ad4     bg_pmove.obj
 0001:0001655c       $LN14                      3001755c     bg_saber.obj
 0001:00016568       $LN12                      30017568     bg_saber.obj
 0001:0001682c       $LN13                      3001782c     bg_saber.obj
 0001:00016848       $LN11                      30017848     bg_saber.obj
 0001:00016a40       _PM_CanDoDualDoubleAttacks 30017a40 f   bg_saber.obj
 0001:00016fd0       $LN25                      30017fd0     bg_saber.obj
 0001:000172cc       $LN15                      300182cc     bg_saber.obj
 0001:000173cc       $LN29                      300183cc     bg_saber.obj
 0001:000173d8       $LN26                      300183d8     bg_saber.obj
 0001:00017478       $LN30                      30018478     bg_saber.obj
 0001:00017484       $LN27                      30018484     bg_saber.obj
 0001:00018648       $LN17                      30019648     bg_saber.obj
 0001:00018658       $LN14                      30019658     bg_saber.obj
 0001:00018eb0       $LN40                      30019eb0     bg_saber.obj
 0001:00018ec4       $LN35                      30019ec4     bg_saber.obj
 0001:00018f98       $LN22                      30019f98     bg_saber.obj
 0001:000190ec       $LN32                      3001a0ec     bg_saber.obj
 0001:00019100       $LN28                      3001a100     bg_saber.obj
 0001:0001afc0       $LN233                     3001bfc0     bg_saber.obj
 0001:0001aff4       $LN234                     3001bff4     bg_saber.obj
 0001:0001affc       $LN210                     3001bffc     bg_saber.obj
 0001:00020ff0       _VectorCompare             30021ff0 f   bg_slidemove.obj
 0001:00020ff0       _VectorCompare             30021ff0 f   bg_slidemove.obj
 0001:00020ff0       _VectorCompare             30021ff0 f   bg_slidemove.obj
 0001:00021190       _BG_ParseVehWeaponParm     30022190 f   bg_vehicleLoad.obj
 0001:0002144c       $LN45                      3002244c     bg_vehicleLoad.obj
 0001:00021490       _BG_ParseVehicleParm       30022490 f   bg_vehicleLoad.obj
 0001:00021720       $LN46                      30022720     bg_vehicleLoad.obj
 0001:000217bc       $LN13                      300227bc     bg_vehicleLoad.obj
 0001:00021d7c       $LN65                      30022d7c     bg_vehicleLoad.obj
 0001:00024640       _CG_SizeUp_f               30025640 f   cg_consolecmds.obj
 0001:00024670       _CG_SizeDown_f             30025670 f   cg_consolecmds.obj
 0001:000246a0       _CG_Viewpos_f              300256a0 f   cg_consolecmds.obj
 0001:000246e0       _CG_ScoresDown_f           300256e0 f   cg_consolecmds.obj
 0001:00024730       _CG_ScoresUp_f             30025730 f   cg_consolecmds.obj
 0001:00024750       _CG_scrollScoresDown_f     30025750 f   cg_consolecmds.obj
 0001:00024790       _CG_scrollScoresUp_f       30025790 f   cg_consolecmds.obj
 0001:000247d0       _CG_spWin_f                300257d0 f   cg_consolecmds.obj
 0001:00024850       _CG_spLose_f               30025850 f   cg_consolecmds.obj
 0001:000248d0       _CG_TellTarget_f           300258d0 f   cg_consolecmds.obj
 0001:00024930       _CG_TellAttacker_f         30025930 f   cg_consolecmds.obj
 0001:00024990       _CG_StartOrbit_f           30025990 f   cg_consolecmds.obj
 0001:00024a40       _CG_SiegeBriefing_f        30025a40 f   cg_consolecmds.obj
 0001:00024a70       _CG_SiegeCvarUpdate_f      30025a70 f   cg_consolecmds.obj
 0001:00024aa0       _CG_SiegeCompleteCvarUpdate_f 30025aa0 f   cg_consolecmds.obj
 0001:00025950       _CG_ChatBox_DrawStrings    30026950 f   cg_draw.obj
 0001:00025d90       _CG_Draw2D                 30026d90 f   cg_draw.obj
 0001:000263e0       _CG_Draw2DScreenTints      300273e0 f   cg_draw.obj
 0001:00027220       _CG_DrawActivePowers       30028220 f   cg_draw.obj
 0001:00027340       _CG_DrawAmmo               30028340 f   cg_draw.obj
 0001:000277b0       _CG_DrawBalance            300287b0 f   cg_draw.obj
 0001:00027860       _CG_DrawCenterString       30028860 f   cg_draw.obj
 0001:00027b70       _CG_DrawCrosshair          30028b70 f   cg_draw.obj
 0001:000284e0       _CG_DrawCrosshairNames     300294e0 f   cg_draw.obj
 0001:00028720       _CG_DrawDisconnect         30029720 f   cg_draw.obj
 0001:00028c00       _CG_DrawEnemyInfo          30029c00 f   cg_draw.obj
 0001:00029060       _CG_DrawFPS                3002a060 f   cg_draw.obj
 0001:00029450       _CG_DrawFollow             3002a450 f   cg_draw.obj
 0001:0002a420       _CG_DrawHolocronIcons      3002b420 f   cg_draw.obj
 0001:0002a9c0       _CG_DrawLagometer          3002b9c0 f   cg_draw.obj
 0001:0002ad90       _CG_DrawMiniScoreboard     3002bd90 f   cg_draw.obj
 0001:0002aef0       _CG_DrawPickupItem         3002bef0 f   cg_draw.obj
 0001:0002af90       _CG_DrawPowerupIcons       3002bf90 f   cg_draw.obj
 0001:0002c130       $LN143                     3002d130     cg_draw.obj
 0001:0002c144       $LN130                     3002d144     cg_draw.obj
 0001:0002c160       _CG_DrawRocketLocking      3002d160 f   cg_draw.obj
 0001:0002c780       _CG_DrawSaberStyle         3002d780 f   cg_draw.obj
 0001:0002c81c       $LN26                      3002d81c     cg_draw.obj
 0001:0002c840       _CG_DrawSiegeDeathTimer    3002d840 f   cg_draw.obj
 0001:0002c950       _CG_DrawSiegeHUDItem       3002d950 f   cg_draw.obj
 0001:0002cec0       _CG_DrawSiegeTimer         3002dec0 f   cg_draw.obj
 0001:0002cfc0       _CG_DrawSnapshot           3002dfc0 f   cg_draw.obj
 0001:0002d050       _CG_DrawSpectator          3002e050 f   cg_draw.obj
 0001:0002d510       _CG_DrawStats              3002e510 f   cg_draw.obj
 0001:0002d5f0       _CG_DrawTeamOverlay        3002e5f0 f   cg_draw.obj
 0001:0002da40       _CG_DrawTeamVote           3002ea40 f   cg_draw.obj
 0001:0002db90       _CG_DrawTimer              3002eb90 f   cg_draw.obj
 0001:0002dc60       _CG_DrawUpperRight         3002ec60 f   cg_draw.obj
 0001:0002e420       $LN28                      3002f420     cg_draw.obj
 0001:0002ed50       _CG_DrawVote               3002fd50 f   cg_draw.obj
 0001:0002f2d0       _CG_DrawWarmup             300302d0 f   cg_draw.obj
 0001:0002f6d0       _CG_DrawZoomMask           300306d0 f   cg_draw.obj
 0001:000301e0       _CG_ScanForCrosshairEntity 300311e0 f   cg_draw.obj
 0001:000308dc       $LN13                      300318dc     cg_draw.obj
 0001:00030974       $LN23                      30031974     cg_draw.obj
 0001:00030984       $LN24                      30031984     cg_draw.obj
 0001:000309e0       $LN13                      300319e0     cg_draw.obj
 0001:00030fd0       $LN65                      30031fd0     cg_drawtools.obj
 0001:00031d1c       $LN13                      30032d1c     cg_effects.obj
 0001:00031d40       _CG_CalcBiLerp             30032d40 f   cg_effects.obj
 0001:00032220       _CG_CalcHeightWidth        30033220 f   cg_effects.obj
 0001:00032b6c       $LN66                      30033b6c     cg_effects.obj
 0001:00032b90       $LN59                      30033b90     cg_effects.obj
 0001:00032ba4       $LN67                      30033ba4     cg_effects.obj
 0001:00032f90       _CG_DoGlassQuad            30033f90 f   cg_effects.obj
 0001:0003357c       $LN38                      3003457c     cg_effects.obj
 0001:0003359c       $LN35                      3003459c     cg_effects.obj
 0001:00033a20       _CG_AddCEntity             30034a20 f   cg_ents.obj
 0001:00033b70       $LN30                      30034b70     cg_ents.obj
 0001:000346b0       _CG_EntityEffects          300356b0 f   cg_ents.obj
 0001:00034850       _CG_FX                     30035850 f   cg_ents.obj
 0001:000349a0       _CG_General                300359a0 f   cg_ents.obj
 0001:00036950       _CG_InterpolateEntityPosition 30037950 f   cg_ents.obj
 0001:00036ac0       _CG_Item                   30037ac0 f   cg_ents.obj
 0001:000375fc       $LN97                      300385fc     cg_ents.obj
 0001:00037640       _CG_Missile                30038640 f   cg_ents.obj
 0001:00037f90       _CG_Mover                  30038f90 f   cg_ents.obj
 0001:000383c0       _CG_Portal                 300393c0 f   cg_ents.obj
 0001:00038c60       _CG_RenderTimeEntBolt      30039c60 f   cg_ents.obj
 0001:000390f0       _CG_Speaker                3003a0f0 f   cg_ents.obj
 0001:000391e0       _CG_TeamBase               3003a1e0 f   cg_ents.obj
 0001:0003d774       $LN881                     3003e774     cg_event.obj
 0001:0003d994       $LN815                     3003e994     cg_event.obj
 0001:0003da58       $LN882                     3003ea58     cg_event.obj
 0001:0003da84       $LN816                     3003ea84     cg_event.obj
 0001:0003daa0       $LN883                     3003eaa0     cg_event.obj
 0001:0003dab0       $LN884                     3003eab0     cg_event.obj
 0001:0003dac8       $LN885                     3003eac8     cg_event.obj
 0001:0003dad8       $LN886                     3003ead8     cg_event.obj
 0001:0003db24       $LN887                     3003eb24     cg_event.obj
 0001:0003ddb8       $LN28                      3003edb8     cg_event.obj
 0001:0003ddc4       $LN23                      3003edc4     cg_event.obj
 0001:0003df40       _CG_ItemPickup             3003ef40 f   cg_event.obj
 0001:0003e0e0       _CG_Obituary               3003f0e0 f   cg_event.obj
 0001:0003e9d4       $LN169                     3003f9d4     cg_event.obj
 0001:0003e9e0       $LN155                     3003f9e0     cg_event.obj
 0001:0003e9f4       $LN170                     3003f9f4     cg_event.obj
 0001:0003ea08       $LN156                     3003fa08     cg_event.obj
 0001:0003ea2c       $LN171                     3003fa2c     cg_event.obj
 0001:0003eae0       $LN172                     3003fae0     cg_event.obj
 0001:0003eaf8       $LN158                     3003faf8     cg_event.obj
 0001:0003eea4       $LN31                      3003fea4     cg_event.obj
 0001:0003efb0       _CG_UseItem                3003ffb0 f   cg_event.obj
 0001:0003f09c       $LN25                      3004009c     cg_event.obj
 0001:00040004       $LN88                      30041004     cg_info.obj
 0001:0004002c       $LN89                      3004102c     cg_info.obj
 0001:000404f0       _CG_AddExplosion           300414f0 f   cg_localents.obj
 0001:00040620       _CG_AddFadeScaleModel      30041620 f   cg_localents.obj
 0001:00040790       _CG_AddFallScaleFade       30041790 f   cg_localents.obj
 0001:00040bfc       $LN34                      30041bfc     cg_localents.obj
 0001:00040c40       _CG_AddMoveScaleFade       30041c40 f   cg_localents.obj
 0001:00040ea0       _CG_AddPuff                30041ea0 f   cg_localents.obj
 0001:00041050       _CG_AddScaleFade           30042050 f   cg_localents.obj
 0001:000414c0       _CG_AddSpriteExplosion     300424c0 f   cg_localents.obj
 0001:00041a50       _CG_AS_Register            30042a50 f   cg_main.obj
 0001:00042420       _CG_Cvar_Get               30043420 f   cg_main.obj
 0001:00042470       _CG_DebugBoxLines          30043470 f   cg_main.obj
 0001:00042770       _CG_DrawCinematic          30043770 f   cg_main.obj
 0001:000428f0       _CG_FeederCount            300438f0 f   cg_main.obj
 0001:00042970       _CG_FeederItemText         30043970 f   cg_main.obj
 0001:00042b60       $LN37                      30043b60     cg_main.obj
 0001:00042b80       _CG_FeederSelection        30043b80 f   cg_main.obj
 0001:00042cc0       _CG_InfoFromScoreIndex     30043cc0 f   cg_main.obj
 0001:00043b00       _CG_OwnerDrawWidth         30044b00 f   cg_main.obj
 0001:00043bb4       $LN12                      30044bb4     cg_main.obj
 0001:00043bcc       $LN10                      30044bcc     cg_main.obj
 0001:00043ea0       _CG_PlayCinematic          30044ea0 f   cg_main.obj
 0001:00044050       _CG_RagCallback            30045050 f   cg_main.obj
 0001:00044138       $LN13                      30045138     cg_main.obj
 0001:00044150       _CG_RegisterClients        30045150 f   cg_main.obj
 0001:000444c0       _CG_RegisterEffects        300454c0 f   cg_main.obj
 0001:00044580       _CG_RegisterGraphics       30045580 f   cg_main.obj
 0001:00045460       _CG_RegisterItemSounds     30046460 f   cg_main.obj
 0001:000455c0       _CG_RegisterSounds         300465c0 f   cg_main.obj
 0001:000465e0       _CG_RunCinematicFrame      300475e0 f   cg_main.obj
 0001:00046ba0       _CG_StopCinematic          30047ba0 f   cg_main.obj
 0001:00046dc0       _C_G2Mark                  30047dc0 f   cg_main.obj
 0001:00046ef0       _C_G2Trace                 30047ef0 f   cg_main.obj
 0001:00046f20       _C_GetLerpData             30047f20 f   cg_main.obj
 0001:00047000       _C_ImpactMark              30048000 f   cg_main.obj
 0001:00047050       _C_Trace                   30048050 f   cg_main.obj
 0001:000473e4       $LN49                      300483e4     cg_main.obj
 0001:00049cc0       _CG_FeederItemImage        3004acc0 f   cg_newDraw.obj
 0001:00049cc0       _CG_OwnerDrawHandleKey     3004acc0 f   cg_newDraw.obj
 0001:0004a048       $LN18                      3004b048     cg_newDraw.obj
 0001:0004a070       $LN16                      3004b070     cg_newDraw.obj
 0001:0004a404       $LN14                      3004b404     cg_newDraw.obj
 0001:0004cab4       $LN212                     3004dab4     cg_players.obj
 0001:0004cae0       $LN213                     3004dae0     cg_players.obj
 0001:0004cb0c       $LN214                     3004db0c     cg_players.obj
 0001:0004cfc0       _CG_ColorFromInt           3004dfc0 f   cg_players.obj
 0001:0004d020       _CG_ColorFromString        3004e020 f   cg_players.obj
 0001:0004d090       _CG_CopyClientInfoModel    3004e090 f   cg_players.obj
 0001:0004dac0       _CG_CreateSurfaceDebris    3004eac0 f   cg_players.obj
 0001:0004dce0       _CG_CreateSurfaceSmoke     3004ece0 f   cg_players.obj
 0001:0004f7c4       $LN177                     300507c4     cg_players.obj
 0001:00050f6c       $LN187                     30051f6c     cg_players.obj
 0001:0005273c       $LN188                     3005373c     cg_players.obj
 0001:00053e50       $LN190                     30054e50     cg_players.obj
 0001:000554b8       $LN176                     300564b8     cg_players.obj
 0001:00055a7c       $LN53                      30056a7c     cg_players.obj
 0001:00056210       _CG_ForceElectrocution     30057210 f   cg_players.obj
 0001:000568bc       $LN81                      300578bc     cg_players.obj
 0001:000568e0       _CG_ForceGripEffect        300578e0 f   cg_players.obj
 0001:00056ac0       _CG_ForcePushBlur          30057ac0 f   cg_players.obj
 0001:00056f50       _CG_ForcePushBodyBlur      30057f50 f   cg_players.obj
 0001:000576e8       $LN93                      300586e8     cg_players.obj
 0001:000578e0       _CG_G2PlayerAngles         300588e0 f   cg_players.obj
 0001:00058380       _CG_G2SetHeadAnim          30059380 f   cg_players.obj
 0001:00058460       _CG_G2SetHeadBlink         30059460 f   cg_players.obj
 0001:00058c64       $LN80                      30059c64     cg_players.obj
 0001:00058ca4       $LN81                      30059ca4     cg_players.obj
 0001:00058cc0       _CG_InitG2SaberData        30059cc0 f   cg_players.obj
 0001:0005fbf0       $LN64                      30060bf0     cg_players.obj
 0001:0005fc14       $LN65                      30060c14     cg_players.obj
 0001:0005ff14       $LN87                      30060f14     cg_players.obj
 0001:0005ff40       _CG_PlayerAnimation        30060f40 f   cg_players.obj
 0001:000600a0       _CG_PlayerFlag             300610a0 f   cg_players.obj
 0001:00060350       _CG_PlayerFloatSprite      30061350 f   cg_players.obj
 0001:00060410       _CG_PlayerFootsteps        30061410 f   cg_players.obj
 0001:00060580       _CG_PlayerPowerups         30061580 f   cg_players.obj
 0001:000606d0       _CG_PlayerShadow           300616d0 f   cg_players.obj
 0001:000609d0       _CG_PlayerSplash           300619d0 f   cg_players.obj
 0001:00060ba0       _CG_PlayerSprites          30061ba0 f   cg_players.obj
 0001:00060c40       _CG_RGBForSaberColor       30061c40 f   cg_players.obj
 0001:00060e28       $LN60                      30061e28     cg_players.obj
 0001:00060ee0       _CG_RagAnimForPositioning  30061ee0 f   cg_players.obj
 0001:00062060       _CG_RegisterClientModelname 30063060 f   cg_players.obj
 0001:00062c50       _CG_RunLerpFrame           30063c50 f   cg_players.obj
 0001:000632b0       _CG_ScanForExistingClientInfo 300642b0 f   cg_players.obj
 0001:00063600       _CG_SetDeferredClientInfo  30064600 f   cg_players.obj
 0001:00063780       _CG_SetLerpFrameAnimation  30064780 f   cg_players.obj
 0001:00063fd0       _CG_VehicleEffects         30064fd0 f   cg_players.obj
 0001:000661d8       $LN246                     300671d8     cg_players.obj
 0001:00066e70       __PlayerFootStep           30067e70 f   cg_players.obj
 0001:000671b0       $LN69                      300681b0     cg_players.obj
 0001:000671dc       $LN66                      300681dc     cg_players.obj
 0001:00067ae0       _CG_ClipMoveToEntities     30068ae0 f   cg_predict.obj
 0001:00067ff0       _CG_InterpolatePlayerState 30068ff0 f   cg_predict.obj
 0001:00068180       _CG_InterpolateVehiclePlayerState 30069180 f   cg_predict.obj
 0001:00068310       _CG_Piloting               30069310 f   cg_predict.obj
 0001:00069620       _CG_TouchItem              3006a620 f   cg_predict.obj
 0001:00069740       _CG_TouchTriggerPrediction 3006a740 f   cg_predict.obj
 0001:00069910       _CG_VehicleClipCheck       3006a910 f   cg_predict.obj
 0001:0006a2c0       $LN46                      3006b2c0     cg_saga.obj
 0001:0006ae00       _CG_SiegeObjectiveBuffer   3006be00 f   cg_saga.obj
 0001:0006b4a0       _CG_DrawClientScore        3006c4a0 f   cg_scoreboard.obj
 0001:0006c580       _CG_TeamScoreboard         3006d580 f   cg_scoreboard.obj
 0001:0006c610       _CG_BodyQueueCopy          3006d610 f   cg_servercmds.obj
 0001:0006ca90       _CG_ConfigStringModified   3006da90 f   cg_servercmds.obj
 0001:0006d880       _CG_MapRestart             3006e880 f   cg_servercmds.obj
 0001:0006d950       _CG_ParseScores            3006e950 f   cg_servercmds.obj
 0001:0006df00       _CG_ParseTeamInfo          3006ef00 f   cg_servercmds.obj
 0001:0006e0cc       $LN41                      3006f0cc     cg_servercmds.obj
 0001:0006e0f0       _CG_RegisterCustomSounds   3006f0f0 f   cg_servercmds.obj
 0001:0006e1f0       $LN33                      3006f1f0     cg_servercmds.obj
 0001:0006e210       _CG_RemoveChatEscapeChar   3006f210 f   cg_servercmds.obj
 0001:0006e240       _CG_ServerCommand          3006f240 f   cg_servercmds.obj
 0001:0006f160       _GetCustomSoundForType     30070160 f   cg_servercmds.obj
 0001:0006f1c0       $LN13                      300701c0     cg_servercmds.obj
 0001:0006f260       $LN13                      30070260     cg_servercmds.obj
 0001:0006f470       _CG_ReadNextSnapshot       30070470 f   cg_snapshot.obj
 0001:0006f530       _CG_ResetEntity            30070530 f   cg_snapshot.obj
 0001:0006f750       _CG_SetNextSnap            30070750 f   cg_snapshot.obj
 0001:0006f880       _CG_TransitionSnapshot     30070880 f   cg_snapshot.obj
 0001:00071ab0       _CG_AddRefentForAutoMap    30072ab0 f   cg_view.obj
 0001:00071be0       _CG_AddTestModel           30072be0 f   cg_view.obj
 0001:00071de0       _CG_CalcFov                30072de0 f   cg_view.obj
 0001:00072220       _CG_CalcIdealThirdPersonViewLocation 30073220 f   cg_view.obj
 0001:00072330       _CG_CalcIdealThirdPersonViewTarget 30073330 f   cg_view.obj
 0001:000724e0       _CG_CalcViewValues         300734e0 f   cg_view.obj
 0001:00072a70       _CG_DamageBlendBlob        30073a70 f   cg_view.obj
 0001:00073eb0       _CG_OffsetFighterView      30074eb0 f   cg_view.obj
 0001:00074190       _CG_OffsetFirstPersonView  30075190 f   cg_view.obj
 0001:00074560       _CG_OffsetThirdPersonView  30075560 f   cg_view.obj
 0001:00074a00       _CG_PlayBufferedSounds     30075a00 f   cg_view.obj
 0001:00074a70       _CG_ResetThirdPersonViewDamp 30075a70 f   cg_view.obj
 0001:00074f60       _CG_ThirdPersonActionCam   30075f60 f   cg_view.obj
 0001:000753b0       _CG_UpdateThirdPersonCameraDamp 300763b0 f   cg_view.obj
 0001:00075740       _CG_UpdateThirdPersonTargetDamp 30076740 f   cg_view.obj
 0001:00076b4c       $LN77                      30077b4c     cg_weaponinit.obj
 0001:000779f0       _CG_AddWeaponWithPowerups  300789f0 f   cg_weapons.obj
 0001:00077da0       _CG_CalculateWeaponPosition 30078da0 f   cg_weapons.obj
 0001:00078ee0       _CG_MapTorsoToWeaponFrame  30079ee0 f   cg_weapons.obj
 0001:00079170       $LN31                      3007a170     cg_weapons.obj
 0001:0007931c       $LN29                      3007a31c     cg_weapons.obj
 0001:00079910       _CG_WeaponSelectable       3007a910 f   cg_weapons.obj
 0001:00079c00       _FighterDamageRoutine      3007ac00 f   FighterNPC.obj
 0001:00079fd0       _FighterNoseMalfunctionCheck 3007afd0 f   FighterNPC.obj
 0001:0007a1c0       _FighterWingMalfunctionCheck 3007b1c0 f   FighterNPC.obj
 0001:0007a480       _PredictedAngularDecrement 3007b480 f   FighterNPC.obj
 0001:0007a520       _ProcessMoveCommands       3007b520 f   FighterNPC.obj
 0001:0007af90       _ProcessOrientCommands     3007bf90 f   FighterNPC.obj
 0001:0007b914       $LN10                      3007c914     fx_bryarpistol.obj
 0001:0007c220       _CG_DistortionOrb          3007d220 f   fx_heavyrepeater.obj
 0001:0007f2e0       _ProcessMoveCommands       300802e0 f   SpeederNPC.obj
 0001:00081ae8       $LN10                      30082ae8     ui_shared.obj
 0001:00081af0       $LN8                       30082af0     ui_shared.obj
 0001:00082db0       _Display_CloseCinematics   30083db0 f   ui_shared.obj
 0001:000836ec       $LN30                      300846ec     ui_shared.obj
 0001:00085250       $LN29                      30086250     ui_shared.obj
 0001:00085260       $LN23                      30086260     ui_shared.obj
 0001:000856e0       _Item_TextScroll_BuildLines 300866e0 f   ui_shared.obj
 0001:00086600       $LN81                      30087600     ui_shared.obj
 0001:00086620       $LN70                      30087620     ui_shared.obj
 0001:00086b60       _Menu_OverActiveItem       30087b60 f   ui_shared.obj
 0001:000882f0       _Scroll_ListBox_AutoFunc   300892f0 f   ui_shared.obj
 0001:00088360       _Scroll_ListBox_ThumbFunc  30089360 f   ui_shared.obj
 0001:000886a0       _Scroll_Slider_ThumbFunc   300896a0 f   ui_shared.obj
 0001:00088790       _Scroll_TextScroll_AutoFunc 30089790 f   ui_shared.obj
 0001:00088800       _Scroll_TextScroll_ThumbFunc 30089800 f   ui_shared.obj
 0001:00088b80       _hashForString             30089b80 f   ui_shared.obj
 0001:00088c00       _ProcessMoveCommands       30089c00 f   WalkerNPC.obj
 0001:00088dc0       _ProcessOrientCommands     30089dc0 f   WalkerNPC.obj
 0001:00089020       $$000000                   3008a020     LIBCMT:memset.obj
 0001:0008927c       _vscan_fn                  3008a27c f   LIBCMT:sscanf.obj
 0001:000892f0       $$000000                   3008a2f0     LIBCMT:strchr.obj
 0001:00089440       $$000000                   3008a440     LIBCMT:87ctriga.obj
 0001:00089460       $$000000                   3008a460     LIBCMT:cos_sse2_precise.obj
 0001:00089620       $$000000                   3008a620     LIBCMT:sin_sse2_precise.obj
 0001:000897f0       $$000000                   3008a7f0     LIBCMT:strstr.obj
 0001:00089a60       $$000000                   3008aa60     LIBCMT:chkstk.obj
 0001:00089a90       $$000000                   3008aa90     LIBCMT:ftol2.obj
 0001:00089b40       $$000000                   3008ab40     LIBCMT:ceil_pentium4.obj
 0001:00089c60       $$000000                   3008ac60     LIBCMT:floor_pentium4.obj
 0001:00089d90       $$000000                   3008ad90     LIBCMT:sqrt_sse2_precise.obj
 0001:00089e90       $$000000                   3008ae90     LIBCMT:strncmp.obj
 0001:0008a1d0       $$000000                   3008b1d0     LIBCMT:memcpy.obj
 0001:0008a420       LeadUpVec                  3008b420     LIBCMT:memcpy.obj
 0001:0008a49c       UnwindUpVec                3008b49c     LIBCMT:memcpy.obj
 0001:0008a508       TrailUpVec                 3008b508     LIBCMT:memcpy.obj
 0001:0008a5ac       LeadDownVec                3008b5ac     LIBCMT:memcpy.obj
 0001:0008a638       UnwindDownVec              3008b638     LIBCMT:memcpy.obj
 0001:0008a6a4       TrailDownVec               3008b6a4     LIBCMT:memcpy.obj
 0001:0008a820       $$000000                   3008b820     LIBCMT:strrchr.obj
 0001:0008aa90       $$000000                   3008ba90     LIBCMT:acos_sse2_precise.obj
 0001:0008afb0       $$000000                   3008bfb0     LIBCMT:strncpy.obj
 0001:0008b0e0       $$000000                   3008c0e0     LIBCMT:pow_sse2_precise.obj
 0001:0008bc50       $$000000                   3008cc50     LIBCMT:tan_sse2_precise.obj
 0001:0008bec0       $$000000                   3008cec0     LIBCMT:87fmod.obj
 0001:0008c290       $$000000                   3008d290     LIBCMT:memmove.obj
 0001:0008c4e0       LeadUpVec                  3008d4e0     LIBCMT:memmove.obj
 0001:0008c55c       UnwindUpVec                3008d55c     LIBCMT:memmove.obj
 0001:0008c5c8       TrailUpVec                 3008d5c8     LIBCMT:memmove.obj
 0001:0008c66c       LeadDownVec                3008d66c     LIBCMT:memmove.obj
 0001:0008c6f8       UnwindDownVec              3008d6f8     LIBCMT:memmove.obj
 0001:0008c764       TrailDownVec               3008d764     LIBCMT:memmove.obj
 0001:0008ca69       ___DllMainCRTStartup       3008da69 f   LIBCMT:dllcrt0.obj
 0001:0008d1fe       __cftoe2_l                 3008e1fe f   LIBCMT:cvt.obj
 0001:0008d41d       __cftof2_l                 3008e41d f   LIBCMT:cvt.obj
 0001:0008d853       __shift                    3008e853 f   LIBCMT:cvt.obj
 0001:0008e300       $LN333                     3008f300     LIBCMT:strgtold.obj
 0001:0008e6a8       ?CPtoLocaleName@@YAPB_WH@Z 3008f6a8 f   LIBCMT:mbctype.obj
 0001:0008e6e2       ?getSystemCP@@YAHH@Z       3008f6e2 f   LIBCMT:mbctype.obj
 0001:0008e750       ?setSBCS@@YAXPAUthreadmbcinfostruct@@@Z 3008f750 f   LIBCMT:mbctype.obj
 0001:0008e7af       ?setSBUpLow@@YAXPAUthreadmbcinfostruct@@@Z 3008f7af f   LIBCMT:mbctype.obj
 0001:0008f180       $$000000                   30090180     LIBCMT:strlen.obj
 0001:0008f20b       ___check_float_string      3009020b f   LIBCMT:input.obj
 0001:0008f26a       __hextodec                 3009026a f   LIBCMT:input.obj
 0001:0008f28b       __inc                      3009028b f   LIBCMT:input.obj
 0001:000903fc       __whiteout                 300913fc f   LIBCMT:input.obj
 0001:0009042a       ?strtoxl@@YAKPAUlocaleinfo_struct@@PBDPAPBDHH@Z 3009142a f   LIBCMT:strtol.obj
 0001:00090680       $$000000                   30091680     LIBCMT:87triga.obj
 0001:00090730       $$000000                   30091730     LIBCMT:87cdisp.obj
 0001:000909b0       $$000000                   300919b0     LIBCMT:cos.obj
 0001:00090ae0       $$000000                   30091ae0     LIBCMT:sin.obj
 0001:00090eb9       $LN79                      30091eb9     LIBCMT:libm_error.obj
 0001:000910b0       $$000000                   300920b0     LIBCMT:sqrt.obj
 0001:00091e6b       $LN277                     30092e6b     LIBCMT:output.obj
 0001:00091e8b       _write_char                30092e8b f   LIBCMT:output.obj
 0001:00091ed3       _write_multi_char          30092ed3 f   LIBCMT:output.obj
 0001:00091eff       _write_string              30092eff f   LIBCMT:output.obj
 0001:00091f80       $$000000                   30092f80     LIBCMT:acos.obj
 0001:000920d0       $$000000                   300930d0     LIBCMT:pow.obj
 0001:00092360       $$000000                   30093360     LIBCMT:tan.obj
 0001:00092490       $$000000                   30093490     LIBCMT:87disp.obj
 0001:000926a5       ?__crtLCMapStringA_stat@@YAHPAUlocaleinfo_struct@@PB_WKPBDHPADHHH@Z 300936a5 f   LIBCMT:a_map.obj
 0001:00092cd8       __initterm                 30093cd8 f   LIBCMT:crt0dat.obj
 0001:00092d42       _doexit                    30093d42 f   LIBCMT:crt0dat.obj
 0001:00093247       _parse_cmdline             30094247 f   LIBCMT:stdargv.obj
 0001:00093b30       $$000000                   30094b30     LIBCMT:sehprolg4.obj
 0001:000940d0       $$000000                   300950d0     LIBCMT:lldvrm.obj
 0001:000941b0       $$000000                   300951b0     LIBCMT:ullshr.obj
 0001:00095563       ?__crtGetStringTypeA_stat@@YAHPAUlocaleinfo_struct@@KPBDHPAGHH@Z 30096563 f   LIBCMT:a_str.obj
 0001:00095b10       $$000000                   30096b10     LIBCMT:llmul.obj
 0001:00095b50       $$000000                   30096b50     LIBCMT:ulldvrm.obj
 0001:00095cf0       $$000000                   30096cf0     LIBCMT:cos_pentium4.obj
 0001:00095eb0       $$000000                   30096eb0     LIBCMT:common.obj
 0001:00096040       $$000000                   30097040     LIBCMT:genexcep.obj
 0001:000960a0       $$000000                   300970a0     LIBCMT:sin_pentium4.obj
 0001:00097cf0       $$000000                   30098cf0     LIBCMT:acos_pentium4.obj
 0001:00098250       $$000000                   30099250     LIBCMT:pow_pentium4.obj
 0001:00098db0       $$000000                   30099db0     LIBCMT:87tran.obj
 0001:00099150       $$000000                   3009a150     LIBCMT:tan_pentium4.obj
 0001:00099450       $$000000                   3009a450     LIBCMT:alloca16.obj
 0001:00099854       __onexit_nolock            3009a854 f   LIBCMT:onexit.obj
 0001:00099b8a       _siglookup                 3009ab8a f   LIBCMT:winsig.obj
 0001:00099be0       $$000000                   3009abe0     LIBCMT:exsup4.obj
 0001:00099c70       __unwind_handler4          3009ac70 f   LIBCMT:exsup4.obj
 0001:00099d32       ?x_ismbbtype_l@@YAHPAUlocaleinfo_struct@@IHH@Z 3009ad32 f   LIBCMT:ismbbyte.obj
 0001:0009a904       ___hw_cw_sse2              3009b904 f   LIBCMT:ieee87.obj
 0001:0009acaf       __hw_cw                    3009bcaf f   LIBCMT:ieee87.obj
 0001:0009b73b       _flsall                    3009c73b f   LIBCMT:fflush.obj
 0001:0009bd40       $$000000                   3009cd40     LIBCMT:exsup.obj
 0001:0009bd60       __unwind_handler           3009cd60 f   LIBCMT:exsup.obj
 0002:0000010c       _pinit                     3009e10c     LIBCMT:cpu_disp.obj
 0002:00000110       _pinit                     3009e110     LIBCMT:mbctype.obj
 0002:00000114       _pinit                     3009e114     LIBCMT:mathfcns.obj
 0002:00000118       _pinit                     3009e118     LIBCMT:_file.obj
 0002:0000011c       _pinit                     3009e11c     LIBCMT:onexit.obj
 0002:00000128       _pterm                     3009e128     LIBCMT:wsetloca.obj
 0002:0000012c       _pterm                     3009e12c     LIBCMT:initcon.obj
 0002:00000130       _pterm                     3009e130     LIBCMT:_file.obj
 0002:000090d0       ?fFrameInter@?1??BG_UpdateLookAngles@@9@9 300a70d0     bg_pmove.obj
 0002:000090d4       ?lookSpeed@?1??BG_G2PlayerAngles@@9@9 300a70d4     bg_pmove.obj
 0002:000184b4       _g_bindCount               300b64b4     ui_shared.obj
 0002:000184b8       _languageString            300b64b8     ui_shared.obj
 0002:00018c50       Ctable                     300b6c50     LIBCMT:cos_sse2_precise.obj
 0002:00019450       SC_1                       300b7450     LIBCMT:cos_sse2_precise.obj
 0002:00019460       SC_2                       300b7460     LIBCMT:cos_sse2_precise.obj
 0002:00019470       SC_3                       300b7470     LIBCMT:cos_sse2_precise.obj
 0002:00019480       SC_4                       300b7480     LIBCMT:cos_sse2_precise.obj
 0002:00019490       PI32INV                    300b7490     LIBCMT:cos_sse2_precise.obj
 0002:00019498       SHIFTER                    300b7498     LIBCMT:cos_sse2_precise.obj
 0002:000194a0       P_2                        300b74a0     LIBCMT:cos_sse2_precise.obj
 0002:000194b0       P_1                        300b74b0     LIBCMT:cos_sse2_precise.obj
 0002:000194b8       P_3                        300b74b8     LIBCMT:cos_sse2_precise.obj
 0002:000194c0       TWO_POW_55                 300b74c0     LIBCMT:cos_sse2_precise.obj
 0002:000194c8       TWO_POW_M55                300b74c8     LIBCMT:cos_sse2_precise.obj
 0002:000194d0       ALL_ONES                   300b74d0     LIBCMT:cos_sse2_precise.obj
 0002:000194d8       NEG_ZERO                   300b74d8     LIBCMT:cos_sse2_precise.obj
 0002:000194e0       ONE                        300b74e0     LIBCMT:cos_sse2_precise.obj
 0002:000194f0       SIGN_MASK                  300b74f0     LIBCMT:cos_sse2_precise.obj
 0002:00019500       Ctable                     300b7500     LIBCMT:sin_sse2_precise.obj
 0002:00019d00       SC_1                       300b7d00     LIBCMT:sin_sse2_precise.obj
 0002:00019d10       SC_2                       300b7d10     LIBCMT:sin_sse2_precise.obj
 0002:00019d20       SC_3                       300b7d20     LIBCMT:sin_sse2_precise.obj
 0002:00019d30       SC_4                       300b7d30     LIBCMT:sin_sse2_precise.obj
 0002:00019d40       PI32INV                    300b7d40     LIBCMT:sin_sse2_precise.obj
 0002:00019d48       SHIFTER                    300b7d48     LIBCMT:sin_sse2_precise.obj
 0002:00019d50       P_2                        300b7d50     LIBCMT:sin_sse2_precise.obj
 0002:00019d60       P_1                        300b7d60     LIBCMT:sin_sse2_precise.obj
 0002:00019d68       P_3                        300b7d68     LIBCMT:sin_sse2_precise.obj
 0002:00019d70       TWO_POW_55                 300b7d70     LIBCMT:sin_sse2_precise.obj
 0002:00019d78       TWO_POW_M55                300b7d78     LIBCMT:sin_sse2_precise.obj
 0002:00019d80       ALL_ONES                   300b7d80     LIBCMT:sin_sse2_precise.obj
 0002:00019d88       NEG_ZERO                   300b7d88     LIBCMT:sin_sse2_precise.obj
 0002:00019d90       ONE                        300b7d90     LIBCMT:sin_sse2_precise.obj
 0002:00019da0       _One                       300b7da0     LIBCMT:ceil_pentium4.obj
 0002:00019db0       _Bns                       300b7db0     LIBCMT:ceil_pentium4.obj
 0002:00019dc0       _Zero                      300b7dc0     LIBCMT:ceil_pentium4.obj
 0002:00019dd0       _S                         300b7dd0     LIBCMT:ceil_pentium4.obj
 0002:00019de0       _NegZero                   300b7de0     LIBCMT:ceil_pentium4.obj
 0002:00019df0       _One                       300b7df0     LIBCMT:floor_pentium4.obj
 0002:00019e00       _Bns                       300b7e00     LIBCMT:floor_pentium4.obj
 0002:00019e10       _NegOne                    300b7e10     LIBCMT:floor_pentium4.obj
 0002:00019e20       _NegZero                   300b7e20     LIBCMT:floor_pentium4.obj
 0002:00019e30       _S                         300b7e30     LIBCMT:floor_pentium4.obj
 0002:00019e40       Shifter                    300b7e40     LIBCMT:acos_sse2_precise.obj
 0002:00019e50       Tbl_addr                   300b7e50     LIBCMT:acos_sse2_precise.obj
 0002:0001ad50       T_table                    300b8d50     LIBCMT:acos_sse2_precise.obj
 0002:0001b550       PI_BY_2                    300b9550     LIBCMT:acos_sse2_precise.obj
 0002:0001b560       NEG_PI                     300b9560     LIBCMT:acos_sse2_precise.obj
 0002:0001b570       PI                         300b9570     LIBCMT:acos_sse2_precise.obj
 0002:0001b580       SIGNMASK                   300b9580     LIBCMT:acos_sse2_precise.obj
 0002:0001b590       HALFMASK                   300b9590     LIBCMT:acos_sse2_precise.obj
 0002:0001b5a0       HALFMASK2                  300b95a0     LIBCMT:acos_sse2_precise.obj
 0002:0001b5b0       cv                         300b95b0     LIBCMT:acos_sse2_precise.obj
 0002:0001b5d0       cv2                        300b95d0     LIBCMT:acos_sse2_precise.obj
 0002:0001b610       ABSVALMASK                 300b9610     LIBCMT:acos_sse2_precise.obj
 0002:0001b618       TMASK                      300b9618     LIBCMT:acos_sse2_precise.obj
 0002:0001b620       ONEMASK                    300b9620     LIBCMT:acos_sse2_precise.obj
 0002:0001b628       ONE_BY_2                   300b9628     LIBCMT:acos_sse2_precise.obj
 0002:0001b630       EMIN                       300b9630     LIBCMT:acos_sse2_precise.obj
 0002:0001b638       MAX_ARG                    300b9638     LIBCMT:acos_sse2_precise.obj
 0002:0001b640       MIN_ARG                    300b9640     LIBCMT:acos_sse2_precise.obj
 0002:0001b648       INF                        300b9648     LIBCMT:acos_sse2_precise.obj
 0002:0001b650       ZERO                       300b9650     LIBCMT:acos_sse2_precise.obj
 0002:0001b658       ALPHA                      300b9658     LIBCMT:acos_sse2_precise.obj
 0002:0001b660       rcp_t1                     300b9660     LIBCMT:pow_sse2_precise.obj
 0002:0001ba70       log2_t1                    300b9a70     LIBCMT:pow_sse2_precise.obj
 0002:0001c280       rcp_t2                     300ba280     LIBCMT:pow_sse2_precise.obj
 0002:0001c690       log2_t2                    300ba690     LIBCMT:pow_sse2_precise.obj
 0002:0001cea0       rcp_t3                     300baea0     LIBCMT:pow_sse2_precise.obj
 0002:0001d6b0       log2_t3                    300bb6b0     LIBCMT:pow_sse2_precise.obj
 0002:0001e6c0       clv                        300bc6c0     LIBCMT:pow_sse2_precise.obj
 0002:0001e6e0       exp2_tbl                   300bc6e0     LIBCMT:pow_sse2_precise.obj
 0002:0001eee0       Shifter                    300bcee0     LIBCMT:pow_sse2_precise.obj
 0002:0001eef0       SIGMASK                    300bcef0     LIBCMT:pow_sse2_precise.obj
 0002:0001ef00       ONEMASK                    300bcf00     LIBCMT:pow_sse2_precise.obj
 0002:0001ef10       ABSVALMASK                 300bcf10     LIBCMT:pow_sse2_precise.obj
 0002:0001ef20       cev                        300bcf20     LIBCMT:pow_sse2_precise.obj
 0002:0001ef48       HALFSIG                    300bcf48     LIBCMT:pow_sse2_precise.obj
 0002:0001ef50       LHN                        300bcf50     LIBCMT:pow_sse2_precise.obj
 0002:0001ef58       sNaN                       300bcf58     LIBCMT:pow_sse2_precise.obj
 0002:0001ef60       INF                        300bcf60     LIBCMT:pow_sse2_precise.obj
 0002:0001ef68       NEG_INF                    300bcf68     LIBCMT:pow_sse2_precise.obj
 0002:0001ef70       NEG_ZERO                   300bcf70     LIBCMT:pow_sse2_precise.obj
 0002:0001ef78       NEG_BIG                    300bcf78     LIBCMT:pow_sse2_precise.obj
 0002:0001ef80       POS_BIG                    300bcf80     LIBCMT:pow_sse2_precise.obj
 0002:0001ef88       EMIN                       300bcf88     LIBCMT:pow_sse2_precise.obj
 0002:0001ef90       QIND                       300bcf90     LIBCMT:pow_sse2_precise.obj
 0002:0001efa0       Ctable                     300bcfa0     LIBCMT:tan_sse2_precise.obj
 0002:000205a0       PI32INV                    300be5a0     LIBCMT:tan_sse2_precise.obj
 0002:000205b0       SHIFTER                    300be5b0     LIBCMT:tan_sse2_precise.obj
 0002:000205c0       P_1                        300be5c0     LIBCMT:tan_sse2_precise.obj
 0002:000205d0       P_2                        300be5d0     LIBCMT:tan_sse2_precise.obj
 0002:000205e0       P_3                        300be5e0     LIBCMT:tan_sse2_precise.obj
 0002:000205f0       QQ_2                       300be5f0     LIBCMT:tan_sse2_precise.obj
 0002:000205f8       ONE                        300be5f8     LIBCMT:tan_sse2_precise.obj
 0002:00020600       MASK_35                    300be600     LIBCMT:tan_sse2_precise.obj
 0002:00020610       sign_mask                  300be610     LIBCMT:tan_sse2_precise.obj
 0002:00020618       TWO_POW_55                 300be618     LIBCMT:tan_sse2_precise.obj
 0002:00020620       TWO_POW_M55                300be620     LIBCMT:tan_sse2_precise.obj
 0002:00020628       TWO_POW_M53                300be628     LIBCMT:tan_sse2_precise.obj
 0002:00020630       INF                        300be630     LIBCMT:tan_sse2_precise.obj
 0002:0002069c       __mb_locale_names          300be69c     LIBCMT:mbctype.obj
 0002:00020a90       DblMax                     300bea90     LIBCMT:87cdisp.obj
 0002:00020a98       DblMin                     300bea98     LIBCMT:87cdisp.obj
 0002:00020aa0       IeeeAdjO                   300beaa0     LIBCMT:87cdisp.obj
 0002:00020aa8       IeeeAdjU                   300beaa8     LIBCMT:87cdisp.obj
 0002:00020ab0       _infinity                  300beab0     LIBCMT:87cdisp.obj
 0002:00020ab8       _zero                      300beab8     LIBCMT:87cdisp.obj
 0002:00020ac0       _INF                       300beac0     LIBCMT:libm_error.obj
 0002:00020ad0       _BIG                       300bead0     LIBCMT:libm_error.obj
 0002:00020ae0       _ZERO                      300beae0     LIBCMT:libm_error.obj
 0002:00020af0       _INF_32                    300beaf0     LIBCMT:libm_error.obj
 0002:00020af8       _NAN_32                    300beaf8     LIBCMT:libm_error.obj
 0002:00020b00       _ZERO_32                   300beb00     LIBCMT:libm_error.obj
 0002:00020b08       _libm_largef               300beb08     LIBCMT:libm_error.obj
 0002:00020b10       _libm_smallf               300beb10     LIBCMT:libm_error.obj
 0002:00020b18       _libm_small                300beb18     LIBCMT:libm_error.obj
 0002:00020b88       __first_127char            300beb88     LIBCMT:wsetloca.obj
 0002:00020c94       One                        300bec94     LIBCMT:87disp.obj
 0002:00020c9c       XAMtoTagTab                300bec9c     LIBCMT:87disp.obj
 0002:00021058       _GS_ExceptionPointers      300bf058     LIBCMT:gs_report.obj
 0002:00021870       Ctable                     300bf870     LIBCMT:cos_pentium4.obj
 0002:00022070       SC_1                       300c0070     LIBCMT:cos_pentium4.obj
 0002:00022080       SC_2                       300c0080     LIBCMT:cos_pentium4.obj
 0002:00022090       SC_3                       300c0090     LIBCMT:cos_pentium4.obj
 0002:000220a0       SC_4                       300c00a0     LIBCMT:cos_pentium4.obj
 0002:000220b0       PI32INV                    300c00b0     LIBCMT:cos_pentium4.obj
 0002:000220b8       SHIFTER                    300c00b8     LIBCMT:cos_pentium4.obj
 0002:000220c0       P_2                        300c00c0     LIBCMT:cos_pentium4.obj
 0002:000220d0       P_1                        300c00d0     LIBCMT:cos_pentium4.obj
 0002:000220d8       P_3                        300c00d8     LIBCMT:cos_pentium4.obj
 0002:000220e0       TWO_POW_55                 300c00e0     LIBCMT:cos_pentium4.obj
 0002:000220e8       TWO_POW_M55                300c00e8     LIBCMT:cos_pentium4.obj
 0002:000220f0       ALL_ONES                   300c00f0     LIBCMT:cos_pentium4.obj
 0002:000220f8       NEG_ZERO                   300c00f8     LIBCMT:cos_pentium4.obj
 0002:00022100       ONE                        300c0100     LIBCMT:cos_pentium4.obj
 0002:00022110       SIGN_MASK                  300c0110     LIBCMT:cos_pentium4.obj
 0002:00022120       One                        300c0120     LIBCMT:common.obj
 0002:00022134       DblMax                     300c0134     LIBCMT:common.obj
 0002:0002213c       DblMin                     300c013c     LIBCMT:common.obj
 0002:00022144       IeeeAdjO                   300c0144     LIBCMT:common.obj
 0002:0002214c       IeeeAdjU                   300c014c     LIBCMT:common.obj
 0002:00022154       _infinity                  300c0154     LIBCMT:common.obj
 0002:0002215c       _zero                      300c015c     LIBCMT:common.obj
 0002:00022170       Ctable                     300c0170     LIBCMT:sin_pentium4.obj
 0002:00022970       SC_1                       300c0970     LIBCMT:sin_pentium4.obj
 0002:00022980       SC_2                       300c0980     LIBCMT:sin_pentium4.obj
 0002:00022990       SC_3                       300c0990     LIBCMT:sin_pentium4.obj
 0002:000229a0       SC_4                       300c09a0     LIBCMT:sin_pentium4.obj
 0002:000229b0       PI32INV                    300c09b0     LIBCMT:sin_pentium4.obj
 0002:000229b8       SHIFTER                    300c09b8     LIBCMT:sin_pentium4.obj
 0002:000229c0       P_2                        300c09c0     LIBCMT:sin_pentium4.obj
 0002:000229d0       P_1                        300c09d0     LIBCMT:sin_pentium4.obj
 0002:000229d8       P_3                        300c09d8     LIBCMT:sin_pentium4.obj
 0002:000229e0       TWO_POW_55                 300c09e0     LIBCMT:sin_pentium4.obj
 0002:000229e8       TWO_POW_M55                300c09e8     LIBCMT:sin_pentium4.obj
 0002:000229f0       ALL_ONES                   300c09f0     LIBCMT:sin_pentium4.obj
 0002:000229f8       NEG_ZERO                   300c09f8     LIBCMT:sin_pentium4.obj
 0002:00022a00       ONE                        300c0a00     LIBCMT:sin_pentium4.obj
 0002:00024b60       Shifter                    300c2b60     LIBCMT:acos_pentium4.obj
 0002:00024b70       Tbl_addr                   300c2b70     LIBCMT:acos_pentium4.obj
 0002:00025a70       T_table                    300c3a70     LIBCMT:acos_pentium4.obj
 0002:00026270       PI_BY_2                    300c4270     LIBCMT:acos_pentium4.obj
 0002:00026280       NEG_PI                     300c4280     LIBCMT:acos_pentium4.obj
 0002:00026290       PI                         300c4290     LIBCMT:acos_pentium4.obj
 0002:000262a0       SIGNMASK                   300c42a0     LIBCMT:acos_pentium4.obj
 0002:000262b0       HALFMASK                   300c42b0     LIBCMT:acos_pentium4.obj
 0002:000262c0       HALFMASK2                  300c42c0     LIBCMT:acos_pentium4.obj
 0002:000262d0       cv                         300c42d0     LIBCMT:acos_pentium4.obj
 0002:000262f0       cv2                        300c42f0     LIBCMT:acos_pentium4.obj
 0002:00026330       ABSVALMASK                 300c4330     LIBCMT:acos_pentium4.obj
 0002:00026338       TMASK                      300c4338     LIBCMT:acos_pentium4.obj
 0002:00026340       ONEMASK                    300c4340     LIBCMT:acos_pentium4.obj
 0002:00026348       ONE_BY_2                   300c4348     LIBCMT:acos_pentium4.obj
 0002:00026350       EMIN                       300c4350     LIBCMT:acos_pentium4.obj
 0002:00026358       MAX_ARG                    300c4358     LIBCMT:acos_pentium4.obj
 0002:00026360       MIN_ARG                    300c4360     LIBCMT:acos_pentium4.obj
 0002:00026368       INF                        300c4368     LIBCMT:acos_pentium4.obj
 0002:00026370       ZERO                       300c4370     LIBCMT:acos_pentium4.obj
 0002:00026378       ALPHA                      300c4378     LIBCMT:acos_pentium4.obj
 0002:00026380       rcp_t1                     300c4380     LIBCMT:pow_pentium4.obj
 0002:00026790       log2_t1                    300c4790     LIBCMT:pow_pentium4.obj
 0002:00026fa0       rcp_t2                     300c4fa0     LIBCMT:pow_pentium4.obj
 0002:000273b0       log2_t2                    300c53b0     LIBCMT:pow_pentium4.obj
 0002:00027bc0       rcp_t3                     300c5bc0     LIBCMT:pow_pentium4.obj
 0002:000283d0       log2_t3                    300c63d0     LIBCMT:pow_pentium4.obj
 0002:000293e0       clv                        300c73e0     LIBCMT:pow_pentium4.obj
 0002:00029400       exp2_tbl                   300c7400     LIBCMT:pow_pentium4.obj
 0002:00029c00       Shifter                    300c7c00     LIBCMT:pow_pentium4.obj
 0002:00029c10       SIGMASK                    300c7c10     LIBCMT:pow_pentium4.obj
 0002:00029c20       ONEMASK                    300c7c20     LIBCMT:pow_pentium4.obj
 0002:00029c30       ABSVALMASK                 300c7c30     LIBCMT:pow_pentium4.obj
 0002:00029c40       cev                        300c7c40     LIBCMT:pow_pentium4.obj
 0002:00029c68       HALFSIG                    300c7c68     LIBCMT:pow_pentium4.obj
 0002:00029c70       LHN                        300c7c70     LIBCMT:pow_pentium4.obj
 0002:00029c78       sNaN                       300c7c78     LIBCMT:pow_pentium4.obj
 0002:00029c80       INF                        300c7c80     LIBCMT:pow_pentium4.obj
 0002:00029c88       NEG_INF                    300c7c88     LIBCMT:pow_pentium4.obj
 0002:00029c90       NEG_ZERO                   300c7c90     LIBCMT:pow_pentium4.obj
 0002:00029c98       NEG_BIG                    300c7c98     LIBCMT:pow_pentium4.obj
 0002:00029ca0       POS_BIG                    300c7ca0     LIBCMT:pow_pentium4.obj
 0002:00029ca8       EMIN                       300c7ca8     LIBCMT:pow_pentium4.obj
 0002:00029cb0       QIND                       300c7cb0     LIBCMT:pow_pentium4.obj
 0002:00029cde       _log2max                   300c7cde     LIBCMT:87tran.obj
 0002:00029ce8       _smallarg                  300c7ce8     LIBCMT:87tran.obj
 0002:00029cf2       _half                      300c7cf2     LIBCMT:87tran.obj
 0002:00029d20       Ctable                     300c7d20     LIBCMT:tan_pentium4.obj
 0002:0002b320       PI32INV                    300c9320     LIBCMT:tan_pentium4.obj
 0002:0002b330       SHIFTER                    300c9330     LIBCMT:tan_pentium4.obj
 0002:0002b340       P_1                        300c9340     LIBCMT:tan_pentium4.obj
 0002:0002b350       P_2                        300c9350     LIBCMT:tan_pentium4.obj
 0002:0002b360       P_3                        300c9360     LIBCMT:tan_pentium4.obj
 0002:0002b370       QQ_2                       300c9370     LIBCMT:tan_pentium4.obj
 0002:0002b378       ONE                        300c9378     LIBCMT:tan_pentium4.obj
 0002:0002b380       MASK_35                    300c9380     LIBCMT:tan_pentium4.obj
 0002:0002b390       sign_mask                  300c9390     LIBCMT:tan_pentium4.obj
 0002:0002b398       TWO_POW_55                 300c9398     LIBCMT:tan_pentium4.obj
 0002:0002b3a0       TWO_POW_M55                300c93a0     LIBCMT:tan_pentium4.obj
 0002:0002b3a8       TWO_POW_M53                300c93a8     LIBCMT:tan_pentium4.obj
 0002:0002b3b0       INF                        300c93b0     LIBCMT:tan_pentium4.obj
 0002:0002b3c0       _rterrs                    300c93c0     LIBCMT:crt0msg.obj
 0002:0002bf40       __sehtable$__CRT_INIT@12   300c9f40     LIBCMT:dllcrt0.obj
 0002:0002bf60       __sehtable$___DllMainCRTStartup 300c9f60     LIBCMT:dllcrt0.obj
 0002:0002bf80       __sehtable$___updatetlocinfo 300c9f80     LIBCMT:localref.obj
 0002:0002bfa0       __sehtable$___updatetmbcinfo 300c9fa0     LIBCMT:mbctype.obj
 0002:0002bfc0       __sehtable$__setmbcp       300c9fc0     LIBCMT:mbctype.obj
 0002:0002bfe0       __sehtable$__freefls@4     300c9fe0     LIBCMT:tidtable.obj
 0002:0002c008       __sehtable$__initptd       300ca008     LIBCMT:tidtable.obj
 0002:0002c030       __sehtable$__locterm       300ca030     LIBCMT:wsetloca.obj
 0002:0002c050       __sehtable$_doexit         300ca050     LIBCMT:crt0dat.obj
 0002:0002c070       __sehtable$__ioinit        300ca070     LIBCMT:ioinit.obj
 0002:0002c090       __sehtable$__mtinitlocknum 300ca090     LIBCMT:mlock.obj
 0002:0002c0b0       __sehtable$___set_fpsr_sse2 300ca0b0     LIBCMT:fpctrl.obj
 0002:0002c0d0       __sehtable$__write         300ca0d0     LIBCMT:write.obj
 0002:0002c0f0       __sehtable$__lseeki64      300ca0f0     LIBCMT:lseeki64.obj
 0002:0002c110       __sehtable$__IsNonwritableInCurrentImage 300ca110     LIBCMT:pesect.obj
 0002:0002c130       __sehtable$__onexit        300ca130     LIBCMT:onexit.obj
 0002:0002c150       __sehtable$?terminate@@YAXXZ 300ca150     LIBCMT:hooks.obj
 0002:0002c170       __sehtable$_raise          300ca170     LIBCMT:winsig.obj
 0002:0002c190       __sehtable$__read          300ca190     LIBCMT:read.obj
 0002:0002c1b0       __sehtable$__fcloseall     300ca1b0     LIBCMT:closeall.obj
 0002:0002c1d0       __sehtable$_flsall         300ca1d0     LIBCMT:fflush.obj
 0002:0002c1f8       __sehtable$___lock_fhandle 300ca1f8     LIBCMT:osfinfo.obj
 0002:0002c218       __sehtable$_fclose         300ca218     LIBCMT:fclose.obj
 0002:0002c238       __sehtable$__commit        300ca238     LIBCMT:commit.obj
 0002:0002c258       __sehtable$__close         300ca258     LIBCMT:close.obj
 0002:0002c280       .edata                     300ca280     cgamex86.exp
 0002:0002c2a8       rgpv                       300ca2a8     cgamex86.exp
 0002:0002c2b0       rgszName                   300ca2b0     cgamex86.exp
 0002:0002c2b8       rgwOrd                     300ca2b8     cgamex86.exp
 0002:0002c2bc       szName                     300ca2bc     cgamex86.exp
 0002:0002c2c9       $N00001                    300ca2c9     cgamex86.exp
 0002:0002c2d2       $N00002                    300ca2d2     cgamex86.exp
 0002:0002c886       .idata$6                   300ca886     kernel32:KERNEL32.dll
 0003:0000009c       _bg_poolTail               300cb09c     bg_misc.obj
 0003:0000465c       ?headClampMinAngles@?1??BG_G2PlayerAngles@@9@9 300cf65c     bg_pmove.obj
 0003:00004668       ?headClampMaxAngles@?1??BG_G2PlayerAngles@@9@9 300cf668     bg_pmove.obj
 0003:00007c70       _commands                  300d2c70     cg_consolecmds.obj
 0003:00007ebc       ?flip@?1??CG_DrawZoomMask@@9@9 300d2ebc     cg_draw.obj
 0003:00007ec4       ?seed@?1??CG_SmokePuff@@9@9 300d2ec4     cg_effects.obj
 0003:00008258       _cvarTable                 300d3258     cg_main.obj
 0003:00008fc8       _cvarTableSize             300d3fc8     cg_main.obj
 0003:00008fcc       ?drawTeamOverlayModificationCount@?1??CG_UpdateCvars@@9@9 300d3fcc     cg_main.obj
 0003:000090b0       ?sb_nums@?1??CG_RegisterGraphics@@9@9 300d40b0     cg_main.obj
 0003:000090dc       ?sb_t_nums@?1??CG_RegisterGraphics@@9@9 300d40dc     cg_main.obj
 0003:00009150       ?sb_c_nums@?1??CG_RegisterGraphics@@9@9 300d4150     cg_main.obj
 0003:00009180       _shaderAnimNames           300d4180     cg_marks.obj
 0003:00009200       _shaderAnimCounts          300d4200     cg_marks.obj
 0003:00009280       _shaderAnimSTRatio         300d4280     cg_marks.obj
 0003:00009304       ?s@?1??CG_GetKillerText@@9@9 300d4304     cg_newDraw.obj
 0003:00009308       ?s@?1??CG_GetGameStatusText@@9@9 300d4308     cg_newDraw.obj
 0003:00009310       _cg_effectorStringTable    300d4310     cg_players.obj
 0003:00009334       _cg_pushBoneNames          300d4334     cg_players.obj
 0003:0000a00c       _cg_vehThirdPersonAlpha    300d500c     cg_players.obj
 0003:0000a010       _syscall                   300d5010     cg_syscalls.obj
 0003:0000a024       _cg_siegeClassIndex        300d5024     cg_view.obj
 0003:0000a028       _cameramins                300d5028     cg_view.obj
 0003:0000a034       _cameramaxs                300d5034     cg_view.obj
 0003:0000a040       _WHITE                     300d5040     fx_bryarpistol.obj
 0003:0000a04c       _BRIGHT                    300d504c     fx_bryarpistol.obj
 0003:0000a058       _WHITE                     300d5058     fx_disruptor.obj
 0003:0000a068       _holdrand                  300d5068     q_math.obj
 0003:0000a97c       ?squiggy@?1??PC_String_Parse@@9@9 300d597c     ui_shared.obj
 0003:0000a980       _g_bindings                300d5980     ui_shared.obj
 0003:0000b4b4       ?staticNULL@?1??String_Alloc@@9@9 300d64b4     ui_shared.obj
 0003:0000ba40       _errtable                  300d6a40     LIBCMT:dosmap.obj
 0003:0000bba8       _ErrnoNoMem                300d6ba8     LIBCMT:dosmap.obj
 0003:0000bbac       _DoserrorNoMem             300d6bac     LIBCMT:dosmap.obj
 0003:0000bfd8       ___rgctypeflag             300d6fd8     LIBCMT:mbctype.obj
 0003:0000bfe0       ___rgcode_page_info        300d6fe0     LIBCMT:mbctype.obj
 0003:0000c320       _NAME_                     300d7320     LIBCMT:cos.obj
 0003:0000c330       _NAME_                     300d7330     LIBCMT:sin.obj
 0003:0000c338       _newcw                     300d7338     LIBCMT:ceil.obj
 0003:0000c33c       _newcw                     300d733c     LIBCMT:floor.obj
 0003:0000c340       _NAME_                     300d7340     LIBCMT:sqrt.obj
 0003:0000c348       __ctype_loc_style          300d7348     LIBCMT:wsetloca.obj
 0003:0000c370       _NAME_                     300d7370     LIBCMT:acos.obj
 0003:0000c388       POW_name                   300d7388     LIBCMT:pow.obj
 0003:0000c390       _NAME_                     300d7390     LIBCMT:tan.obj
 0003:0000c3e0       ?isPackaged@?1??__crtIsPackagedApp@@9@9 300d73e0     LIBCMT:winapisupp.obj
 0003:0000c3f0       _DoubleFormat              300d73f0     LIBCMT:intrncvt.obj
 0003:0000c408       _FloatFormat               300d7408     LIBCMT:intrncvt.obj
 0003:0000c6e0       __locktable                300d76e0     LIBCMT:mlock.obj
 0003:0000c878       ?_names@?1??_get_fname@@9@9 300d7878     LIBCMT:fpexcept.obj
 0003:0000c988       _over                      300d7988     LIBCMT:fpctrl.obj
 0003:0000c994       _under                     300d7994     LIBCMT:fpctrl.obj
 0003:0000c9a0       ?__DAZ_ENABLED@?1??__set_fpsr_sse2@@9@9 300d79a0     LIBCMT:fpctrl.obj
 0003:0000cd60       _bg_poolSize               300d7d60     bg_misc.obj
 0003:0000cd64       ?i@?1??SnapVector@@9@9     300d7d64     bg_misc.obj
 0003:0000cd68       ?f@?1??SnapVector@@9@9     300d7d68     bg_misc.obj
 0003:0000cd70       _bg_pool                   300d7d70     bg_misc.obj
 0003:00200d88       _pm_flying                 302cbd88     bg_pmove.obj
 0003:00200d8c       ?thoracicAngles@?1??BG_G2PlayerAngles@@9@9 302cbd8c     bg_pmove.obj
 0003:00200d98       ?oldLookAngles@?1??BG_UpdateLookAngles@@9@9 302cbd98     bg_pmove.obj
 0003:00200da4       ?lookAnglesDiff@?1??BG_UpdateLookAngles@@9@9 302cbda4     bg_pmove.obj
 0003:00200db0       ?ang@?1??BG_UpdateLookAngles@@9@9 302cbdb0     bg_pmove.obj
 0003:00200db4       ?dir@?1??BG_G2PlayerAngles@@9@9 302cbdb4     bg_pmove.obj
 0003:00200db8       ?i@?1??BG_G2PlayerAngles@@9@9 302cbdb8     bg_pmove.obj
 0003:00200dbc       ?dif@?1??BG_G2PlayerAngles@@9@9 302cbdbc     bg_pmove.obj
 0003:00200dc0       ?dest@?1??BG_G2PlayerAngles@@9@9 302cbdc0     bg_pmove.obj
 0003:00200dc4       ?speed@?1??BG_G2PlayerAngles@@9@9 302cbdc4     bg_pmove.obj
 0003:00200dc8       ?eyeAngles@?1??BG_G2PlayerAngles@@9@9 302cbdc8     bg_pmove.obj
 0003:00200dd4       ?neckAngles@?1??BG_G2PlayerAngles@@9@9 302cbdd4     bg_pmove.obj
 0003:00200de0       ?velocity@?1??BG_G2PlayerAngles@@9@9 302cbde0     bg_pmove.obj
 0003:00200dec       ?torsoAngles@?1??BG_G2PlayerAngles@@9@9 302cbdec     bg_pmove.obj
 0003:00200df8       ?headAngles@?1??BG_G2PlayerAngles@@9@9 302cbdf8     bg_pmove.obj
 0003:00200e04       ?velPos@?1??BG_G2PlayerAngles@@9@9 302cbe04     bg_pmove.obj
 0003:00200e10       ?velAng@?1??BG_G2PlayerAngles@@9@9 302cbe10     bg_pmove.obj
 0003:00200e1c       ?ulAngles@?1??BG_G2PlayerAngles@@9@9 302cbe1c     bg_pmove.obj
 0003:00200e28       ?llAngles@?1??BG_G2PlayerAngles@@9@9 302cbe28     bg_pmove.obj
 0003:00200e34       ?viewAngles@?1??BG_G2PlayerAngles@@9@9 302cbe34     bg_pmove.obj
 0003:00200e40       ?angles@?1??BG_G2PlayerAngles@@9@9 302cbe40     bg_pmove.obj
 0003:00200e50       _SaberParms                302cbe50     bg_saberLoad.obj
 0003:00280e50       _bgSaberParseTBuffer       3034be50     bg_saberLoad.obj
 0003:003010f8       ?oldDif@?1??CG_DrawRocketLocking@@9@9 303cc0f8     cg_draw.obj
 0003:003010fc       _radarLockSoundDebounceTime 303cc0fc     cg_draw.obj
 0003:00301100       _impactSoundDebounceTime   303cc100     cg_draw.obj
 0003:00301104       ?previousTimes@?1??CG_DrawFPS@@9@9 303cc104     cg_draw.obj
 0003:00301124       ?index@?1??CG_DrawFPS@@9@9 303cc124     cg_draw.obj
 0003:00301128       ?previous@?1??CG_DrawFPS@@9@9 303cc128     cg_draw.obj
 0003:0030112c       ?lastupdate@?1??CG_DrawFPS@@9@9 303cc12c     cg_draw.obj
 0003:00301130       ?color@?1??CG_FadeColor@@9@9 303cc130     cg_drawtools.obj
 0003:00301140       _offX                      303cc140     cg_effects.obj
 0003:00301780       _offZ                      303cc780     cg_effects.obj
 0003:00301dc0       ?lastPos@?1??CG_ScorePlum@@9@9 303ccdc0     cg_effects.obj
 0003:00301dd0       ?str@?1??CG_PlaceString@@9@9 303ccdd0     cg_event.obj
 0003:00301e10       _cl_lightstyle             303cce10     cg_light.obj
 0003:00306010       _lastofs                   303d1010     cg_light.obj
 0003:00306018       _NumMiscEnts               303d1018     cg_main.obj
 0003:0030601c       ?index@?1??CG_GetStringEdString@@9@9 303d101c     cg_main.obj
 0003:00306024       _cg_strPoolSize            303d1024     cg_main.obj
 0003:00306038       ?text@?1??CG_GetLocationString@@9@9 303d1038     cg_main.obj
 0003:00306438       _MiscEnts                  303d1438     cg_main.obj
 0003:003d54b8       _Radius                    304a04b8     cg_main.obj
 0003:003d9338       _zOffset                   304a4338     cg_main.obj
 0003:003dd1b8       ?buffer@?1??CG_Argv@@9@9   304a81b8     cg_main.obj
 0003:003dd5b8       ?intext@?1??CG_GetStringEdString@@9@9 304a85b8     cg_main.obj
 0003:003e52b8       ?translation@?1??CG_GetStringEdString@@9@9 304b02b8     cg_main.obj
 0003:003ecfb8       ?string@?1??CG_GetStringEdString@@9@9 304b7fb8     cg_main.obj
 0003:003f4cb8       ?buf@?1??CG_GetMenuBuffer@@9@9 304bfcb8     cg_main.obj
 0003:003fccb8       ?buf@?1??CG_LoadMenus@@9@9 304c7cb8     cg_main.obj
 0003:003fdcb8       _cg_strPool                304c8cb8     cg_main.obj
 0003:00405cb8       _cg_numSpawnVars           304d0cb8     cg_main.obj
 0003:00405cbc       _cg_numSpawnVarChars       304d0cbc     cg_main.obj
 0003:00405cc0       _cg_spawnVars              304d0cc0     cg_main.obj
 0003:00405ec0       _cg_spawnVarChars          304d0ec0     cg_main.obj
 0003:00406ec0       ?item@?1??CG_Init@@9@9     304d1ec0     cg_main.obj
 0003:00406ec8       _roll                      304d1ec8     cg_marks.obj
 0003:00406ed0       _markTotal                 304d1ed0     cg_marks.obj
 0003:00406ed4       _numShaderAnims            304d1ed4     cg_marks.obj
 0003:00406ed8       _shaderAnims               304d1ed8     cg_marks.obj
 0003:00408ee8       _lastFlyBySound            304d3ee8     cg_players.obj
 0003:00409ee8       _cg_animParseIncluding     304d4ee8     cg_players.obj
 0003:00409ef4       _cg_numSolidEntities       304d4ef4     cg_predict.obj
 0003:00409ef8       _cg_pmove                  304d4ef8     cg_predict.obj
 0003:0040a024       _cg_numTriggerEntities     304d5024     cg_predict.obj
 0003:0040a028       _cg_solidEntities          304d5028     cg_predict.obj
 0003:0040a428       _cg_triggerEntities        304d5428     cg_predict.obj
 0003:0040a840       _team1                     304d5840     cg_saga.obj
 0003:0040aa40       _team2                     304d5a40     cg_saga.obj
 0003:0040ac40       _cgParseObjectives         304d5c40     cg_saga.obj
 0003:0040ec40       ?cur@?1??siege_Str@@9@9    304d9c40     cg_saga.obj
 0003:0040ec48       ?strings@?1??siege_Str@@9@9 304d9c48     cg_saga.obj
 0003:0044ec48       ?buf@?1??CG_SiegeObjectiveBuffer@@9@9 30519c48     cg_saga.obj
 0003:00450c4c       _localClient               3051bc4c     cg_scoreboard.obj
 0003:00450c60       _cg_rangedFogging          3051bc60     cg_view.obj
 0003:00450c68       ?veh@?1??CG_DrawActiveFrame@@9@9 3051bc68     cg_view.obj
 0003:00450ca8       ?zoomSoundTime@?BG@??CG_CalcFov@@9@9 3051bca8     cg_view.obj
 0003:00450cbc       ?lastfov@?1??CG_DrawSkyBoxPortal@@9@9 3051bcbc     cg_view.obj
 0003:00450cc0       _cgWeapFrame               3051bcc0     cg_weapons.obj
 0003:00450cc4       _cgWeapFrameTime           3051bcc4     cg_weapons.obj
 0003:00450cc8       _g2WeaponInstances         3051bcc8     cg_weapons.obj
 0003:00450d18       _g2WeaponInstances2        3051bd18     cg_weapons.obj
 0003:00450d80       ?bops_initialized@?1??BoxOnPlaneSide@@9@9 3051bd80     q_math.obj
 0003:00450d84       ?Ljmptab@?1??BoxOnPlaneSide@@9@9 3051bd84     q_math.obj
 0003:00450da4       ?sr@?1??AngleVectors@@9@9  3051bda4     q_math.obj
 0003:00450da8       ?sp@?1??AngleVectors@@9@9  3051bda8     q_math.obj
 0003:00450dac       ?sy@?1??AngleVectors@@9@9  3051bdac     q_math.obj
 0003:00450db0       ?cr@?1??AngleVectors@@9@9  3051bdb0     q_math.obj
 0003:00450db4       ?cp@?1??AngleVectors@@9@9  3051bdb4     q_math.obj
 0003:00450db8       ?cy@?1??AngleVectors@@9@9  3051bdb8     q_math.obj
 0003:00450dc0       ?final@?1??Q_StrReplace@@9@9 3051bdc0     q_shared.obj
 0003:004511c0       ?index@?1??va@@9@9         3051c1c0     q_shared.obj
 0003:004511c4       ?valueindex@?1??Info_ValueForKey@@9@9 3051c1c4     q_shared.obj
 0003:004511c8       _com_token                 3051c1c8     q_shared.obj
 0003:004515c8       _com_parsename             3051c5c8     q_shared.obj
 0003:004519c8       _com_lines                 3051c9c8     q_shared.obj
 0003:004519d0       ?string@?1??COM_ParseError@@9@9 3051c9d0     q_shared.obj
 0003:004529d0       ?string@?1??COM_ParseWarning@@9@9 3051d9d0     q_shared.obj
 0003:004539d0       ?temp_buffer@?1??va@@9@9   3051e9d0     q_shared.obj
 0003:0045b6d0       ?string@?1??va@@9@9        305266d0     q_shared.obj
 0003:004633d0       ?value@?1??Info_ValueForKey@@9@9 3052e3d0     q_shared.obj
 0003:004673d8       _captureFunc               305323d8     ui_shared.obj
 0003:004673dc       _captureData               305323dc     ui_shared.obj
 0003:004673e0       _itemCapture               305323e0     ui_shared.obj
 0003:004673e8       _g_waitingForKey           305323e8     ui_shared.obj
 0003:004673ec       _g_editingField            305323ec     ui_shared.obj
 0003:004673f0       _g_bindItem                305323f0     ui_shared.obj
 0003:004673f4       _g_editItem                305323f4     ui_shared.obj
 0003:00467400       _debugMode                 30532400     ui_shared.obj
 0003:00467404       _lastListBoxClickTime      30532404     ui_shared.obj
 0003:00467408       _strPoolIndex              30532408     ui_shared.obj
 0003:0046740c       _strHandleCount            3053240c     ui_shared.obj
 0003:00467410       ?inHandleKey@?9??Menu_HandleKey@@9@9 30532410     ui_shared.obj
 0003:00467414       _scrollInfo                30532414     ui_shared.obj
 0003:00467434       _allocPoint                30532434     ui_shared.obj
 0003:00467438       _memoryPool                30532438     ui_shared.obj
 0003:00487438       _outOfMemory               30552438     ui_shared.obj
 0003:00487440       _strPool                   30552440     ui_shared.obj
 0003:004a7440       _strHandle                 30572440     ui_shared.obj
 0003:004a9440       ?string@?1??PC_SourceWarning@@9@9 30574440     ui_shared.obj
 0003:004aa440       ?string@?1??PC_SourceError@@9@9 30575440     ui_shared.obj
 0003:004ab444       ___proc_attached           30576444     LIBCMT:dllcrt0.obj
 0003:004ab474       _fSystemSet                30576474     LIBCMT:mbctype.obj
 0003:004ab478       __pmatherr_set             30576478     LIBCMT:libm_error.obj
 0003:004ab5b8       ?_pgmname@?1??_setargv@@9@9 305765b8     LIBCMT:stdargv.obj
 0003:004ab6c8       _lclcritsects              305766c8     LIBCMT:mlock.obj
 0003:004ab820       _GS_ExceptionRecord        30576820     LIBCMT:gs_report.obj
 0003:004ab870       _GS_ContextRecord          30576870     LIBCMT:gs_report.obj
 0003:004abb3c       _DebuggerWasPresent        30576b3c     LIBCMT:gs_report.obj
 0003:004abb40       ___crtCallProc             30576b40     LIBCMT:winapinls.obj
 0003:004abb48       ___enable_percent_n        30576b48     LIBCMT:printf.obj
 0003:004abb58       ?outmsg@?8??_NMSG_WRITE@@9@9 30576b58     LIBCMT:crt0msg.obj
 0003:004ac18c       _ctrlc_action              3057718c     LIBCMT:winsig.obj
 0003:004ac190       _ctrlbreak_action          30577190     LIBCMT:winsig.obj
 0003:004ac194       _abort_action              30577194     LIBCMT:winsig.obj
 0003:004ac198       _term_action               30577198     LIBCMT:winsig.obj
 0003:004ac19c       _ConsoleCtrlHandler_Installed 3057719c     LIBCMT:winsig.obj
 0003:004ac1a0       _g_pfnRtlGenRandom         305771a0     LIBCMT:rand_s.obj
 0003:004ac1b4       ?pfnMessageBox@?1??__crtMessageBoxW@@9@9 305771b4     LIBCMT:crtmboxw.obj
 0003:004ac1b8       ?pfnGetActiveWindow@?1??__crtMessageBoxW@@9@9 305771b8     LIBCMT:crtmboxw.obj
 0003:004ac1bc       ?pfnGetLastActivePopup@?1??__crtMessageBoxW@@9@9 305771bc     LIBCMT:crtmboxw.obj
 0003:004ac1c0       ?pfnGetProcessWindowStation@?1??__crtMessageBoxW@@9@9 305771c0     LIBCMT:crtmboxw.obj
 0003:004ac1c4       ?pfnGetUserObjectInformation@?1??__crtMessageBoxW@@9@9 305771c4     LIBCMT:crtmboxw.obj
 0004:00000060       $R000000                   30b81060     * linker generated manifest res *
